
code.elf：     文件格式 elf32-littlearm


Disassembly of section .text:

87800000 <_start>:
87800000:	e59ff100 	ldr	pc, [pc, #256]	; 87800108 <FIQ_Handler+0x8>
87800004:	e59ff100 	ldr	pc, [pc, #256]	; 8780010c <FIQ_Handler+0xc>
87800008:	e59ff100 	ldr	pc, [pc, #256]	; 87800110 <FIQ_Handler+0x10>
8780000c:	e59ff100 	ldr	pc, [pc, #256]	; 87800114 <FIQ_Handler+0x14>
87800010:	e59ff100 	ldr	pc, [pc, #256]	; 87800118 <FIQ_Handler+0x18>
87800014:	e59ff100 	ldr	pc, [pc, #256]	; 8780011c <FIQ_Handler+0x1c>
87800018:	e59ff100 	ldr	pc, [pc, #256]	; 87800120 <FIQ_Handler+0x20>
8780001c:	e59ff100 	ldr	pc, [pc, #256]	; 87800124 <FIQ_Handler+0x24>

87800020 <Reset_Handler>:
87800020:	f10c0080 	cpsid	i
87800024:	ee110f10 	mrc	15, 0, r0, cr1, cr0, {0}
87800028:	e3c00a01 	bic	r0, r0, #4096	; 0x1000
8780002c:	e3c00004 	bic	r0, r0, #4
87800030:	e3c00002 	bic	r0, r0, #2
87800034:	e3c00b02 	bic	r0, r0, #2048	; 0x800
87800038:	e3c00001 	bic	r0, r0, #1
8780003c:	ee010f10 	mcr	15, 0, r0, cr1, cr0, {0}
87800040:	e10f0000 	mrs	r0, CPSR
87800044:	e3c0001f 	bic	r0, r0, #31
87800048:	e3800012 	orr	r0, r0, #18
8780004c:	e129f000 	msr	CPSR_fc, r0
87800050:	e59fd0d0 	ldr	sp, [pc, #208]	; 87800128 <FIQ_Handler+0x28>
87800054:	e10f0000 	mrs	r0, CPSR
87800058:	e3c0001f 	bic	r0, r0, #31
8780005c:	e380001f 	orr	r0, r0, #31
87800060:	e129f000 	msr	CPSR_fc, r0
87800064:	e59fd0c0 	ldr	sp, [pc, #192]	; 8780012c <FIQ_Handler+0x2c>
87800068:	e10f0000 	mrs	r0, CPSR
8780006c:	e3c0001f 	bic	r0, r0, #31
87800070:	e3800013 	orr	r0, r0, #19
87800074:	e129f000 	msr	CPSR_fc, r0
87800078:	e59fd0b0 	ldr	sp, [pc, #176]	; 87800130 <FIQ_Handler+0x30>
8780007c:	f1080080 	cpsie	i
87800080:	ea002206 	b	878088a0 <__main_from_arm>

87800084 <Undefined_Handler>:
87800084:	e59f0080 	ldr	r0, [pc, #128]	; 8780010c <FIQ_Handler+0xc>
87800088:	e12fff10 	bx	r0

8780008c <SVC_Handler>:
8780008c:	e59f007c 	ldr	r0, [pc, #124]	; 87800110 <FIQ_Handler+0x10>
87800090:	e12fff10 	bx	r0

87800094 <PrefAbort_Handler>:
87800094:	e59f0078 	ldr	r0, [pc, #120]	; 87800114 <FIQ_Handler+0x14>
87800098:	e12fff10 	bx	r0

8780009c <DataAbort_Handler>:
8780009c:	e59f0074 	ldr	r0, [pc, #116]	; 87800118 <FIQ_Handler+0x18>
878000a0:	e12fff10 	bx	r0

878000a4 <NotUsed_Handler>:
878000a4:	e59f0070 	ldr	r0, [pc, #112]	; 8780011c <FIQ_Handler+0x1c>
878000a8:	e12fff10 	bx	r0

878000ac <IRQ_Handler>:
878000ac:	e52de004 	push	{lr}		; (str lr, [sp, #-4]!)
878000b0:	e92d100f 	push	{r0, r1, r2, r3, ip}
878000b4:	e14f0000 	mrs	r0, SPSR
878000b8:	e52d0004 	push	{r0}		; (str r0, [sp, #-4]!)
878000bc:	ee9f1f10 	mrc	15, 4, r1, cr15, cr0, {0}
878000c0:	e2811a02 	add	r1, r1, #8192	; 0x2000
878000c4:	e591000c 	ldr	r0, [r1, #12]
878000c8:	e92d0003 	push	{r0, r1}
878000cc:	f1020013 	cps	#19
878000d0:	e52de004 	push	{lr}		; (str lr, [sp, #-4]!)
878000d4:	e59f2058 	ldr	r2, [pc, #88]	; 87800134 <FIQ_Handler+0x34>
878000d8:	e12fff32 	blx	r2
878000dc:	e49de004 	pop	{lr}		; (ldr lr, [sp], #4)
878000e0:	f1020012 	cps	#18
878000e4:	e8bd0003 	pop	{r0, r1}
878000e8:	e5810010 	str	r0, [r1, #16]
878000ec:	e49d0004 	pop	{r0}		; (ldr r0, [sp], #4)
878000f0:	e16ff000 	msr	SPSR_fsxc, r0
878000f4:	e8bd100f 	pop	{r0, r1, r2, r3, ip}
878000f8:	e49de004 	pop	{lr}		; (ldr lr, [sp], #4)
878000fc:	e25ef004 	subs	pc, lr, #4

87800100 <FIQ_Handler>:
87800100:	e59f001c 	ldr	r0, [pc, #28]	; 87800124 <FIQ_Handler+0x24>
87800104:	e12fff10 	bx	r0
87800108:	87800020 	strhi	r0, [r0, r0, lsr #32]
8780010c:	87800084 	strhi	r0, [r0, r4, lsl #1]
87800110:	8780008c 	strhi	r0, [r0, ip, lsl #1]
87800114:	87800094 			; <UNDEFINED> instruction: 0x87800094
87800118:	8780009c 			; <UNDEFINED> instruction: 0x8780009c
8780011c:	878000a4 	strhi	r0, [r0, r4, lsr #1]
87800120:	878000ac 	strhi	r0, [r0, ip, lsr #1]
87800124:	87800100 	strhi	r0, [r0, r0, lsl #2]
87800128:	80600000 	rsbhi	r0, r0, r0
8780012c:	80400000 	subhi	r0, r0, r0
87800130:	80200000 	eorhi	r0, r0, r0
87800134:	87806681 	strhi	r6, [r0, r1, lsl #13]
87800138:	00001e41 	andeq	r1, r0, r1, asr #28
8780013c:	61656100 	cmnvs	r5, r0, lsl #2
87800140:	01006962 	tsteq	r0, r2, ror #18
87800144:	00000014 	andeq	r0, r0, r4, lsl r0
87800148:	412d3705 	teqmi	sp, r5, lsl #14
8780014c:	070a0600 	streq	r0, [sl, -r0, lsl #12]
87800150:	09010841 	stmdbeq	r1, {r0, r6, fp}
87800154:	00040a02 	andeq	r0, r4, r2, lsl #20
	...

87800160 <__umodsi3>:
87800160:	e2512001 	subs	r2, r1, #1
87800164:	3a000062 	bcc	878002f4 <Ldiv0>
87800168:	11500001 	cmpne	r0, r1
8780016c:	03a00000 	moveq	r0, #0
87800170:	81110002 	tsthi	r1, r2
87800174:	00000002 	andeq	r0, r0, r2
87800178:	91a0f00e 	movls	pc, lr
8780017c:	e3a02000 	mov	r2, #0
87800180:	e3510201 	cmp	r1, #268435456	; 0x10000000
87800184:	31510000 	cmpcc	r1, r0
87800188:	31a01201 	lslcc	r1, r1, #4
8780018c:	32822004 	addcc	r2, r2, #4
87800190:	3afffffa 	bcc	87800180 <__umodsi3+0x20>
87800194:	e3510102 	cmp	r1, #-2147483648	; 0x80000000
87800198:	31510000 	cmpcc	r1, r0
8780019c:	31a01081 	lslcc	r1, r1, #1
878001a0:	32822001 	addcc	r2, r2, #1
878001a4:	3afffffa 	bcc	87800194 <__umodsi3+0x34>
878001a8:	e2522003 	subs	r2, r2, #3
878001ac:	ba00000e 	blt	878001ec <__umodsi3+0x8c>
878001b0:	e1500001 	cmp	r0, r1
878001b4:	20400001 	subcs	r0, r0, r1
878001b8:	e15000a1 	cmp	r0, r1, lsr #1
878001bc:	204000a1 	subcs	r0, r0, r1, lsr #1
878001c0:	e1500121 	cmp	r0, r1, lsr #2
878001c4:	20400121 	subcs	r0, r0, r1, lsr #2
878001c8:	e15001a1 	cmp	r0, r1, lsr #3
878001cc:	204001a1 	subcs	r0, r0, r1, lsr #3
878001d0:	e3500001 	cmp	r0, #1
878001d4:	e1a01221 	lsr	r1, r1, #4
878001d8:	a2522004 	subsge	r2, r2, #4
878001dc:	aafffff3 	bge	878001b0 <__umodsi3+0x50>
878001e0:	e3120003 	tst	r2, #3
878001e4:	13300000 	teqne	r0, #0
878001e8:	0a00000a 	beq	87800218 <__umodsi3+0xb8>
878001ec:	e3720002 	cmn	r2, #2
878001f0:	ba000006 	blt	87800210 <__umodsi3+0xb0>
878001f4:	0a000002 	beq	87800204 <__umodsi3+0xa4>
878001f8:	e1500001 	cmp	r0, r1
878001fc:	20400001 	subcs	r0, r0, r1
87800200:	e1a010a1 	lsr	r1, r1, #1
87800204:	e1500001 	cmp	r0, r1
87800208:	20400001 	subcs	r0, r0, r1
8780020c:	e1a010a1 	lsr	r1, r1, #1
87800210:	e1500001 	cmp	r0, r1
87800214:	20400001 	subcs	r0, r0, r1
87800218:	e1a0f00e 	mov	pc, lr
8780021c:	90909090 	umullsls	r9, r0, r0, r0

87800220 <__modsi3>:
87800220:	e3510000 	cmp	r1, #0
87800224:	0a000032 	beq	878002f4 <Ldiv0>
87800228:	42611000 	rsbmi	r1, r1, #0
8780022c:	e1b0c000 	movs	ip, r0
87800230:	42600000 	rsbmi	r0, r0, #0
87800234:	e2512001 	subs	r2, r1, #1
87800238:	11500001 	cmpne	r0, r1
8780023c:	03a00000 	moveq	r0, #0
87800240:	81110002 	tsthi	r1, r2
87800244:	00000002 	andeq	r0, r0, r2
87800248:	9a000026 	bls	878002e8 <__modsi3+0xc8>
8780024c:	e3a02000 	mov	r2, #0
87800250:	e3510201 	cmp	r1, #268435456	; 0x10000000
87800254:	31510000 	cmpcc	r1, r0
87800258:	31a01201 	lslcc	r1, r1, #4
8780025c:	32822004 	addcc	r2, r2, #4
87800260:	3afffffa 	bcc	87800250 <__modsi3+0x30>
87800264:	e3510102 	cmp	r1, #-2147483648	; 0x80000000
87800268:	31510000 	cmpcc	r1, r0
8780026c:	31a01081 	lslcc	r1, r1, #1
87800270:	32822001 	addcc	r2, r2, #1
87800274:	3afffffa 	bcc	87800264 <__modsi3+0x44>
87800278:	e2522003 	subs	r2, r2, #3
8780027c:	ba00000e 	blt	878002bc <__modsi3+0x9c>
87800280:	e1500001 	cmp	r0, r1
87800284:	20400001 	subcs	r0, r0, r1
87800288:	e15000a1 	cmp	r0, r1, lsr #1
8780028c:	204000a1 	subcs	r0, r0, r1, lsr #1
87800290:	e1500121 	cmp	r0, r1, lsr #2
87800294:	20400121 	subcs	r0, r0, r1, lsr #2
87800298:	e15001a1 	cmp	r0, r1, lsr #3
8780029c:	204001a1 	subcs	r0, r0, r1, lsr #3
878002a0:	e3500001 	cmp	r0, #1
878002a4:	e1a01221 	lsr	r1, r1, #4
878002a8:	a2522004 	subsge	r2, r2, #4
878002ac:	aafffff3 	bge	87800280 <__modsi3+0x60>
878002b0:	e3120003 	tst	r2, #3
878002b4:	13300000 	teqne	r0, #0
878002b8:	0a00000a 	beq	878002e8 <__modsi3+0xc8>
878002bc:	e3720002 	cmn	r2, #2
878002c0:	ba000006 	blt	878002e0 <__modsi3+0xc0>
878002c4:	0a000002 	beq	878002d4 <__modsi3+0xb4>
878002c8:	e1500001 	cmp	r0, r1
878002cc:	20400001 	subcs	r0, r0, r1
878002d0:	e1a010a1 	lsr	r1, r1, #1
878002d4:	e1500001 	cmp	r0, r1
878002d8:	20400001 	subcs	r0, r0, r1
878002dc:	e1a010a1 	lsr	r1, r1, #1
878002e0:	e1500001 	cmp	r0, r1
878002e4:	20400001 	subcs	r0, r0, r1
878002e8:	e35c0000 	cmp	ip, #0
878002ec:	42600000 	rsbmi	r0, r0, #0
878002f0:	e1a0f00e 	mov	pc, lr

878002f4 <Ldiv0>:
878002f4:	e52de004 	push	{lr}		; (str lr, [sp, #-4]!)
878002f8:	e3a00000 	mov	r0, #0
878002fc:	e49df004 	pop	{pc}		; (ldr pc, [sp], #4)

87800300 <Key_Scan_Save>:
87800300:	b510      	push	{r4, lr}
87800302:	4604      	mov	r4, r0
87800304:	f001 fa66 	bl	878017d4 <key_scanner>
87800308:	2000      	movs	r0, #0
8780030a:	f001 fab1 	bl	87801870 <key_get_state>
8780030e:	2802      	cmp	r0, #2
87800310:	bf15      	itete	ne
87800312:	f24e 43f4 	movwne	r3, #58612	; 0xe4f4
87800316:	f24e 43f4 	movweq	r3, #58612	; 0xe4f4
8780031a:	f2c8 7380 	movtne	r3, #34688	; 0x8780
8780031e:	2201      	moveq	r2, #1
87800320:	bf11      	iteee	ne
87800322:	6859      	ldrne	r1, [r3, #4]
87800324:	f2c8 7380 	movteq	r3, #34688	; 0x8780
87800328:	4611      	moveq	r1, r2
8780032a:	605a      	streq	r2, [r3, #4]
8780032c:	f24e 42f4 	movw	r2, #58612	; 0xe4f4
87800330:	6199      	str	r1, [r3, #24]
87800332:	f2c8 7280 	movt	r2, #34688	; 0x8780
87800336:	b10c      	cbz	r4, 8780033c <Key_Scan_Save+0x3c>
87800338:	2300      	movs	r3, #0
8780033a:	6053      	str	r3, [r2, #4]
8780033c:	bd10      	pop	{r4, pc}
8780033e:	bf00      	nop

87800340 <Buzzer>:
87800340:	b510      	push	{r4, lr}
87800342:	2100      	movs	r1, #0
87800344:	4604      	mov	r4, r0
87800346:	20a1      	movs	r0, #161	; 0xa1
87800348:	f002 ff3e 	bl	878031c8 <gpio_set_level>
8780034c:	4621      	mov	r1, r4
8780034e:	f44f 707a 	mov.w	r0, #1000	; 0x3e8
87800352:	f002 fdfd 	bl	87802f50 <system_delay>
87800356:	2101      	movs	r1, #1
87800358:	20a1      	movs	r0, #161	; 0xa1
8780035a:	e8bd 4010 	ldmia.w	sp!, {r4, lr}
8780035e:	f002 bf33 	b.w	878031c8 <gpio_set_level>
87800362:	bf00      	nop

87800364 <led_init>:
87800364:	2168      	movs	r1, #104	; 0x68
87800366:	f44f 723d 	mov.w	r2, #756	; 0x2f4
8780036a:	f44f 4340 	mov.w	r3, #49152	; 0xc000
8780036e:	b410      	push	{r4}
87800370:	f2c0 2309 	movt	r3, #521	; 0x209
87800374:	2405      	movs	r4, #5
87800376:	f2c0 220e 	movt	r2, #526	; 0x20e
8780037a:	f2c0 210e 	movt	r1, #526	; 0x20e
8780037e:	f241 00b0 	movw	r0, #4272	; 0x10b0
87800382:	600c      	str	r4, [r1, #0]
87800384:	6010      	str	r0, [r2, #0]
87800386:	685a      	ldr	r2, [r3, #4]
87800388:	f85d 4b04 	ldr.w	r4, [sp], #4
8780038c:	f042 0208 	orr.w	r2, r2, #8
87800390:	605a      	str	r2, [r3, #4]
87800392:	681a      	ldr	r2, [r3, #0]
87800394:	f022 0208 	bic.w	r2, r2, #8
87800398:	601a      	str	r2, [r3, #0]
8780039a:	4770      	bx	lr

8780039c <led_switch>:
8780039c:	b950      	cbnz	r0, 878003b4 <led_switch+0x18>
8780039e:	2901      	cmp	r1, #1
878003a0:	d009      	beq.n	878003b6 <led_switch+0x1a>
878003a2:	b939      	cbnz	r1, 878003b4 <led_switch+0x18>
878003a4:	f44f 4340 	mov.w	r3, #49152	; 0xc000
878003a8:	f2c0 2309 	movt	r3, #521	; 0x209
878003ac:	681a      	ldr	r2, [r3, #0]
878003ae:	f042 0208 	orr.w	r2, r2, #8
878003b2:	601a      	str	r2, [r3, #0]
878003b4:	4770      	bx	lr
878003b6:	f44f 4340 	mov.w	r3, #49152	; 0xc000
878003ba:	f2c0 2309 	movt	r3, #521	; 0x209
878003be:	681a      	ldr	r2, [r3, #0]
878003c0:	f022 0208 	bic.w	r2, r2, #8
878003c4:	601a      	str	r2, [r3, #0]
878003c6:	4770      	bx	lr

878003c8 <test_tft_gt9147>:
878003c8:	f64b 408f 	movw	r0, #48271	; 0xbc8f
878003cc:	b538      	push	{r3, r4, r5, lr}
878003ce:	f2c0 008f 	movt	r0, #143	; 0x8f
878003d2:	f24f 24d8 	movw	r4, #62168	; 0xf2d8
878003d6:	f24e 5508 	movw	r5, #58632	; 0xe508
878003da:	f2c8 7480 	movt	r4, #34688	; 0x8780
878003de:	f001 fe1f 	bl	87802020 <tft_lcd_clear>
878003e2:	2100      	movs	r1, #0
878003e4:	f648 2258 	movw	r2, #35416	; 0x8a58
878003e8:	4608      	mov	r0, r1
878003ea:	f2c8 7280 	movt	r2, #34688	; 0x8780
878003ee:	f002 f8cd 	bl	8780258c <tft_lcd_show_string>
878003f2:	f648 227c 	movw	r2, #35452	; 0x8a7c
878003f6:	2118      	movs	r1, #24
878003f8:	f2c8 7280 	movt	r2, #34688	; 0x8780
878003fc:	2000      	movs	r0, #0
878003fe:	f002 f8c5 	bl	8780258c <tft_lcd_show_string>
87800402:	f648 2288 	movw	r2, #35464	; 0x8a88
87800406:	2130      	movs	r1, #48	; 0x30
87800408:	f2c8 7280 	movt	r2, #34688	; 0x8780
8780040c:	2000      	movs	r0, #0
8780040e:	f002 f8bd 	bl	8780258c <tft_lcd_show_string>
87800412:	f648 2294 	movw	r2, #35476	; 0x8a94
87800416:	2148      	movs	r1, #72	; 0x48
87800418:	f2c8 7280 	movt	r2, #34688	; 0x8780
8780041c:	2000      	movs	r0, #0
8780041e:	f002 f8b5 	bl	8780258c <tft_lcd_show_string>
87800422:	f648 22a0 	movw	r2, #35488	; 0x8aa0
87800426:	2160      	movs	r1, #96	; 0x60
87800428:	f2c8 7280 	movt	r2, #34688	; 0x8780
8780042c:	2000      	movs	r0, #0
8780042e:	f002 f8ad 	bl	8780258c <tft_lcd_show_string>
87800432:	f648 22ac 	movw	r2, #35500	; 0x8aac
87800436:	2178      	movs	r1, #120	; 0x78
87800438:	f2c8 7280 	movt	r2, #34688	; 0x8780
8780043c:	2000      	movs	r0, #0
8780043e:	f002 f8a5 	bl	8780258c <tft_lcd_show_string>
87800442:	f648 22b8 	movw	r2, #35512	; 0x8ab8
87800446:	2190      	movs	r1, #144	; 0x90
87800448:	f2c8 7280 	movt	r2, #34688	; 0x8780
8780044c:	2000      	movs	r0, #0
8780044e:	f002 f89d 	bl	8780258c <tft_lcd_show_string>
87800452:	f648 22c4 	movw	r2, #35524	; 0x8ac4
87800456:	21a8      	movs	r1, #168	; 0xa8
87800458:	f2c8 7280 	movt	r2, #34688	; 0x8780
8780045c:	2000      	movs	r0, #0
8780045e:	f002 f895 	bl	8780258c <tft_lcd_show_string>
87800462:	f648 22d0 	movw	r2, #35536	; 0x8ad0
87800466:	21c0      	movs	r1, #192	; 0xc0
87800468:	f2c8 7280 	movt	r2, #34688	; 0x8780
8780046c:	2000      	movs	r0, #0
8780046e:	f002 f88d 	bl	8780258c <tft_lcd_show_string>
87800472:	f648 22dc 	movw	r2, #35548	; 0x8adc
87800476:	21d8      	movs	r1, #216	; 0xd8
87800478:	f2c8 7280 	movt	r2, #34688	; 0x8780
8780047c:	2000      	movs	r0, #0
8780047e:	f002 f885 	bl	8780258c <tft_lcd_show_string>
87800482:	f648 22e8 	movw	r2, #35560	; 0x8ae8
87800486:	21f0      	movs	r1, #240	; 0xf0
87800488:	f2c8 7280 	movt	r2, #34688	; 0x8780
8780048c:	2000      	movs	r0, #0
8780048e:	f002 f87d 	bl	8780258c <tft_lcd_show_string>
87800492:	f648 22f4 	movw	r2, #35572	; 0x8af4
87800496:	f44f 7184 	mov.w	r1, #264	; 0x108
8780049a:	f2c8 7280 	movt	r2, #34688	; 0x8780
8780049e:	2000      	movs	r0, #0
878004a0:	f2c8 7580 	movt	r5, #34688	; 0x8780
878004a4:	f002 f872 	bl	8780258c <tft_lcd_show_string>
878004a8:	2301      	movs	r3, #1
878004aa:	78a2      	ldrb	r2, [r4, #2]
878004ac:	2118      	movs	r1, #24
878004ae:	20f0      	movs	r0, #240	; 0xf0
878004b0:	f002 f902 	bl	878026b8 <tft_lcd_show_uint>
878004b4:	2305      	movs	r3, #5
878004b6:	88a2      	ldrh	r2, [r4, #4]
878004b8:	2130      	movs	r1, #48	; 0x30
878004ba:	20f0      	movs	r0, #240	; 0xf0
878004bc:	f002 f8fc 	bl	878026b8 <tft_lcd_show_uint>
878004c0:	2305      	movs	r3, #5
878004c2:	89e2      	ldrh	r2, [r4, #14]
878004c4:	2148      	movs	r1, #72	; 0x48
878004c6:	20f0      	movs	r0, #240	; 0xf0
878004c8:	f002 f8f6 	bl	878026b8 <tft_lcd_show_uint>
878004cc:	2305      	movs	r3, #5
878004ce:	88e2      	ldrh	r2, [r4, #6]
878004d0:	2160      	movs	r1, #96	; 0x60
878004d2:	20f0      	movs	r0, #240	; 0xf0
878004d4:	f002 f8f0 	bl	878026b8 <tft_lcd_show_uint>
878004d8:	2305      	movs	r3, #5
878004da:	8a22      	ldrh	r2, [r4, #16]
878004dc:	2178      	movs	r1, #120	; 0x78
878004de:	20f0      	movs	r0, #240	; 0xf0
878004e0:	f002 f8ea 	bl	878026b8 <tft_lcd_show_uint>
878004e4:	2305      	movs	r3, #5
878004e6:	8922      	ldrh	r2, [r4, #8]
878004e8:	2190      	movs	r1, #144	; 0x90
878004ea:	20f0      	movs	r0, #240	; 0xf0
878004ec:	f002 f8e4 	bl	878026b8 <tft_lcd_show_uint>
878004f0:	2305      	movs	r3, #5
878004f2:	8a62      	ldrh	r2, [r4, #18]
878004f4:	21a8      	movs	r1, #168	; 0xa8
878004f6:	20f0      	movs	r0, #240	; 0xf0
878004f8:	f002 f8de 	bl	878026b8 <tft_lcd_show_uint>
878004fc:	2305      	movs	r3, #5
878004fe:	8962      	ldrh	r2, [r4, #10]
87800500:	21c0      	movs	r1, #192	; 0xc0
87800502:	20f0      	movs	r0, #240	; 0xf0
87800504:	f002 f8d8 	bl	878026b8 <tft_lcd_show_uint>
87800508:	2305      	movs	r3, #5
8780050a:	8aa2      	ldrh	r2, [r4, #20]
8780050c:	21d8      	movs	r1, #216	; 0xd8
8780050e:	20f0      	movs	r0, #240	; 0xf0
87800510:	f002 f8d2 	bl	878026b8 <tft_lcd_show_uint>
87800514:	21f0      	movs	r1, #240	; 0xf0
87800516:	2305      	movs	r3, #5
87800518:	4608      	mov	r0, r1
8780051a:	89a2      	ldrh	r2, [r4, #12]
8780051c:	f002 f8cc 	bl	878026b8 <tft_lcd_show_uint>
87800520:	2305      	movs	r3, #5
87800522:	8ae2      	ldrh	r2, [r4, #22]
87800524:	f44f 7184 	mov.w	r1, #264	; 0x108
87800528:	20f0      	movs	r0, #240	; 0xf0
8780052a:	f002 f8c5 	bl	878026b8 <tft_lcd_show_uint>
8780052e:	2200      	movs	r2, #0
87800530:	89e1      	ldrh	r1, [r4, #14]
87800532:	88a0      	ldrh	r0, [r4, #4]
87800534:	f001 fdd6 	bl	878020e4 <tft_lcd_draw_bigpoint>
87800538:	2001      	movs	r0, #1
8780053a:	f7ff fee1 	bl	87800300 <Key_Scan_Save>
8780053e:	686b      	ldr	r3, [r5, #4]
87800540:	2b01      	cmp	r3, #1
87800542:	d1b1      	bne.n	878004a8 <test_tft_gt9147+0xe0>
87800544:	f64b 408f 	movw	r0, #48271	; 0xbc8f
87800548:	e8bd 4038 	ldmia.w	sp!, {r3, r4, r5, lr}
8780054c:	f2c0 008f 	movt	r0, #143	; 0x8f
87800550:	f001 bd66 	b.w	87802020 <tft_lcd_clear>

87800554 <test_tft5xx6>:
87800554:	f64b 408f 	movw	r0, #48271	; 0xbc8f
87800558:	b538      	push	{r3, r4, r5, lr}
8780055a:	f2c0 008f 	movt	r0, #143	; 0x8f
8780055e:	f24f 24c0 	movw	r4, #62144	; 0xf2c0
87800562:	f24e 5508 	movw	r5, #58632	; 0xe508
87800566:	f2c8 7480 	movt	r4, #34688	; 0x8780
8780056a:	f001 fd59 	bl	87802020 <tft_lcd_clear>
8780056e:	2100      	movs	r1, #0
87800570:	f648 3200 	movw	r2, #35584	; 0x8b00
87800574:	4608      	mov	r0, r1
87800576:	f2c8 7280 	movt	r2, #34688	; 0x8780
8780057a:	f002 f807 	bl	8780258c <tft_lcd_show_string>
8780057e:	f648 227c 	movw	r2, #35452	; 0x8a7c
87800582:	2118      	movs	r1, #24
87800584:	f2c8 7280 	movt	r2, #34688	; 0x8780
87800588:	2000      	movs	r0, #0
8780058a:	f001 ffff 	bl	8780258c <tft_lcd_show_string>
8780058e:	f648 2288 	movw	r2, #35464	; 0x8a88
87800592:	2130      	movs	r1, #48	; 0x30
87800594:	f2c8 7280 	movt	r2, #34688	; 0x8780
87800598:	2000      	movs	r0, #0
8780059a:	f001 fff7 	bl	8780258c <tft_lcd_show_string>
8780059e:	f648 2294 	movw	r2, #35476	; 0x8a94
878005a2:	2148      	movs	r1, #72	; 0x48
878005a4:	f2c8 7280 	movt	r2, #34688	; 0x8780
878005a8:	2000      	movs	r0, #0
878005aa:	f001 ffef 	bl	8780258c <tft_lcd_show_string>
878005ae:	f648 22a0 	movw	r2, #35488	; 0x8aa0
878005b2:	2160      	movs	r1, #96	; 0x60
878005b4:	f2c8 7280 	movt	r2, #34688	; 0x8780
878005b8:	2000      	movs	r0, #0
878005ba:	f001 ffe7 	bl	8780258c <tft_lcd_show_string>
878005be:	f648 22ac 	movw	r2, #35500	; 0x8aac
878005c2:	2178      	movs	r1, #120	; 0x78
878005c4:	f2c8 7280 	movt	r2, #34688	; 0x8780
878005c8:	2000      	movs	r0, #0
878005ca:	f001 ffdf 	bl	8780258c <tft_lcd_show_string>
878005ce:	f648 22b8 	movw	r2, #35512	; 0x8ab8
878005d2:	2190      	movs	r1, #144	; 0x90
878005d4:	f2c8 7280 	movt	r2, #34688	; 0x8780
878005d8:	2000      	movs	r0, #0
878005da:	f001 ffd7 	bl	8780258c <tft_lcd_show_string>
878005de:	f648 22c4 	movw	r2, #35524	; 0x8ac4
878005e2:	21a8      	movs	r1, #168	; 0xa8
878005e4:	f2c8 7280 	movt	r2, #34688	; 0x8780
878005e8:	2000      	movs	r0, #0
878005ea:	f001 ffcf 	bl	8780258c <tft_lcd_show_string>
878005ee:	f648 22d0 	movw	r2, #35536	; 0x8ad0
878005f2:	21c0      	movs	r1, #192	; 0xc0
878005f4:	f2c8 7280 	movt	r2, #34688	; 0x8780
878005f8:	2000      	movs	r0, #0
878005fa:	f001 ffc7 	bl	8780258c <tft_lcd_show_string>
878005fe:	f648 22dc 	movw	r2, #35548	; 0x8adc
87800602:	21d8      	movs	r1, #216	; 0xd8
87800604:	f2c8 7280 	movt	r2, #34688	; 0x8780
87800608:	2000      	movs	r0, #0
8780060a:	f001 ffbf 	bl	8780258c <tft_lcd_show_string>
8780060e:	f648 22e8 	movw	r2, #35560	; 0x8ae8
87800612:	21f0      	movs	r1, #240	; 0xf0
87800614:	f2c8 7280 	movt	r2, #34688	; 0x8780
87800618:	2000      	movs	r0, #0
8780061a:	f001 ffb7 	bl	8780258c <tft_lcd_show_string>
8780061e:	f648 22f4 	movw	r2, #35572	; 0x8af4
87800622:	f44f 7184 	mov.w	r1, #264	; 0x108
87800626:	f2c8 7280 	movt	r2, #34688	; 0x8780
8780062a:	2000      	movs	r0, #0
8780062c:	f2c8 7580 	movt	r5, #34688	; 0x8780
87800630:	f001 ffac 	bl	8780258c <tft_lcd_show_string>
87800634:	2301      	movs	r3, #1
87800636:	78a2      	ldrb	r2, [r4, #2]
87800638:	2118      	movs	r1, #24
8780063a:	20f0      	movs	r0, #240	; 0xf0
8780063c:	f002 f83c 	bl	878026b8 <tft_lcd_show_uint>
87800640:	2305      	movs	r3, #5
87800642:	88a2      	ldrh	r2, [r4, #4]
87800644:	2130      	movs	r1, #48	; 0x30
87800646:	20f0      	movs	r0, #240	; 0xf0
87800648:	f002 f836 	bl	878026b8 <tft_lcd_show_uint>
8780064c:	2305      	movs	r3, #5
8780064e:	89e2      	ldrh	r2, [r4, #14]
87800650:	2148      	movs	r1, #72	; 0x48
87800652:	20f0      	movs	r0, #240	; 0xf0
87800654:	f002 f830 	bl	878026b8 <tft_lcd_show_uint>
87800658:	2305      	movs	r3, #5
8780065a:	88e2      	ldrh	r2, [r4, #6]
8780065c:	2160      	movs	r1, #96	; 0x60
8780065e:	20f0      	movs	r0, #240	; 0xf0
87800660:	f002 f82a 	bl	878026b8 <tft_lcd_show_uint>
87800664:	2305      	movs	r3, #5
87800666:	8a22      	ldrh	r2, [r4, #16]
87800668:	2178      	movs	r1, #120	; 0x78
8780066a:	20f0      	movs	r0, #240	; 0xf0
8780066c:	f002 f824 	bl	878026b8 <tft_lcd_show_uint>
87800670:	2305      	movs	r3, #5
87800672:	8922      	ldrh	r2, [r4, #8]
87800674:	2190      	movs	r1, #144	; 0x90
87800676:	20f0      	movs	r0, #240	; 0xf0
87800678:	f002 f81e 	bl	878026b8 <tft_lcd_show_uint>
8780067c:	2305      	movs	r3, #5
8780067e:	8a62      	ldrh	r2, [r4, #18]
87800680:	21a8      	movs	r1, #168	; 0xa8
87800682:	20f0      	movs	r0, #240	; 0xf0
87800684:	f002 f818 	bl	878026b8 <tft_lcd_show_uint>
87800688:	2305      	movs	r3, #5
8780068a:	8962      	ldrh	r2, [r4, #10]
8780068c:	21c0      	movs	r1, #192	; 0xc0
8780068e:	20f0      	movs	r0, #240	; 0xf0
87800690:	f002 f812 	bl	878026b8 <tft_lcd_show_uint>
87800694:	2305      	movs	r3, #5
87800696:	8aa2      	ldrh	r2, [r4, #20]
87800698:	21d8      	movs	r1, #216	; 0xd8
8780069a:	20f0      	movs	r0, #240	; 0xf0
8780069c:	f002 f80c 	bl	878026b8 <tft_lcd_show_uint>
878006a0:	21f0      	movs	r1, #240	; 0xf0
878006a2:	2305      	movs	r3, #5
878006a4:	4608      	mov	r0, r1
878006a6:	89a2      	ldrh	r2, [r4, #12]
878006a8:	f002 f806 	bl	878026b8 <tft_lcd_show_uint>
878006ac:	2305      	movs	r3, #5
878006ae:	8ae2      	ldrh	r2, [r4, #22]
878006b0:	f44f 7184 	mov.w	r1, #264	; 0x108
878006b4:	20f0      	movs	r0, #240	; 0xf0
878006b6:	f001 ffff 	bl	878026b8 <tft_lcd_show_uint>
878006ba:	2001      	movs	r0, #1
878006bc:	f7ff fe20 	bl	87800300 <Key_Scan_Save>
878006c0:	686b      	ldr	r3, [r5, #4]
878006c2:	2b01      	cmp	r3, #1
878006c4:	d1b6      	bne.n	87800634 <test_tft5xx6+0xe0>
878006c6:	f64b 408f 	movw	r0, #48271	; 0xbc8f
878006ca:	e8bd 4038 	ldmia.w	sp!, {r3, r4, r5, lr}
878006ce:	f2c0 008f 	movt	r0, #143	; 0x8f
878006d2:	f001 bca5 	b.w	87802020 <tft_lcd_clear>
878006d6:	bf00      	nop

878006d8 <test_icm20608>:
878006d8:	f64b 408f 	movw	r0, #48271	; 0xbc8f
878006dc:	e92d 4ff8 	stmdb	sp!, {r3, r4, r5, r6, r7, r8, r9, sl, fp, lr}
878006e0:	f2c0 008f 	movt	r0, #143	; 0x8f
878006e4:	ed2d 8b02 	vpush	{d8}
878006e8:	f24e 5a1c 	movw	sl, #58652	; 0xe51c
878006ec:	f24e 591e 	movw	r9, #58654	; 0xe51e
878006f0:	f001 fc96 	bl	87802020 <tft_lcd_clear>
878006f4:	f648 3220 	movw	r2, #35616	; 0x8b20
878006f8:	2100      	movs	r1, #0
878006fa:	f24e 5820 	movw	r8, #58656	; 0xe520
878006fe:	f24e 5722 	movw	r7, #58658	; 0xe522
87800702:	f24e 5624 	movw	r6, #58660	; 0xe524
87800706:	f24e 5526 	movw	r5, #58662	; 0xe526
8780070a:	f24f 2498 	movw	r4, #62104	; 0xf298
8780070e:	f24e 5b08 	movw	fp, #58632	; 0xe508
87800712:	f2c8 7280 	movt	r2, #34688	; 0x8780
87800716:	4608      	mov	r0, r1
87800718:	ed9f 8b65 	vldr	d8, [pc, #404]	; 878008b0 <test_icm20608+0x1d8>
8780071c:	f2c8 7a80 	movt	sl, #34688	; 0x8780
87800720:	f2c8 7980 	movt	r9, #34688	; 0x8780
87800724:	f2c8 7880 	movt	r8, #34688	; 0x8780
87800728:	f2c8 7780 	movt	r7, #34688	; 0x8780
8780072c:	f2c8 7680 	movt	r6, #34688	; 0x8780
87800730:	f2c8 7580 	movt	r5, #34688	; 0x8780
87800734:	f2c8 7480 	movt	r4, #34688	; 0x8780
87800738:	f2c8 7b80 	movt	fp, #34688	; 0x8780
8780073c:	f001 ff26 	bl	8780258c <tft_lcd_show_string>
87800740:	f000 ff04 	bl	8780154c <icm20608_get_acc>
87800744:	f000 ff30 	bl	878015a8 <icm20608_get_gyro>
87800748:	f648 3240 	movw	r2, #35648	; 0x8b40
8780074c:	2118      	movs	r1, #24
8780074e:	f2c8 7280 	movt	r2, #34688	; 0x8780
87800752:	2000      	movs	r0, #0
87800754:	f001 ff1a 	bl	8780258c <tft_lcd_show_string>
87800758:	2304      	movs	r3, #4
8780075a:	f9ba 2000 	ldrsh.w	r2, [sl]
8780075e:	2130      	movs	r1, #48	; 0x30
87800760:	2000      	movs	r0, #0
87800762:	f001 ff7d 	bl	87802660 <tft_lcd_show_int>
87800766:	2304      	movs	r3, #4
87800768:	f9b9 2000 	ldrsh.w	r2, [r9]
8780076c:	2130      	movs	r1, #48	; 0x30
8780076e:	2060      	movs	r0, #96	; 0x60
87800770:	f001 ff76 	bl	87802660 <tft_lcd_show_int>
87800774:	2304      	movs	r3, #4
87800776:	f9b8 2000 	ldrsh.w	r2, [r8]
8780077a:	2130      	movs	r1, #48	; 0x30
8780077c:	20c0      	movs	r0, #192	; 0xc0
8780077e:	f001 ff6f 	bl	87802660 <tft_lcd_show_int>
87800782:	f9ba 0000 	ldrsh.w	r0, [sl]
87800786:	f000 ff31 	bl	878015ec <icm20608_acc_transition>
8780078a:	2302      	movs	r3, #2
8780078c:	2203      	movs	r2, #3
8780078e:	2148      	movs	r1, #72	; 0x48
87800790:	2000      	movs	r0, #0
87800792:	f001 ffbd 	bl	87802710 <tft_lcd_show_float>
87800796:	f9b9 0000 	ldrsh.w	r0, [r9]
8780079a:	f000 ff27 	bl	878015ec <icm20608_acc_transition>
8780079e:	2302      	movs	r3, #2
878007a0:	2203      	movs	r2, #3
878007a2:	2148      	movs	r1, #72	; 0x48
878007a4:	2060      	movs	r0, #96	; 0x60
878007a6:	f001 ffb3 	bl	87802710 <tft_lcd_show_float>
878007aa:	f9b8 0000 	ldrsh.w	r0, [r8]
878007ae:	f000 ff1d 	bl	878015ec <icm20608_acc_transition>
878007b2:	2302      	movs	r3, #2
878007b4:	2203      	movs	r2, #3
878007b6:	2148      	movs	r1, #72	; 0x48
878007b8:	20c0      	movs	r0, #192	; 0xc0
878007ba:	f001 ffa9 	bl	87802710 <tft_lcd_show_float>
878007be:	f648 3254 	movw	r2, #35668	; 0x8b54
878007c2:	2160      	movs	r1, #96	; 0x60
878007c4:	f2c8 7280 	movt	r2, #34688	; 0x8780
878007c8:	2000      	movs	r0, #0
878007ca:	f001 fedf 	bl	8780258c <tft_lcd_show_string>
878007ce:	2305      	movs	r3, #5
878007d0:	f9b7 2000 	ldrsh.w	r2, [r7]
878007d4:	2178      	movs	r1, #120	; 0x78
878007d6:	2000      	movs	r0, #0
878007d8:	f001 ff42 	bl	87802660 <tft_lcd_show_int>
878007dc:	2178      	movs	r1, #120	; 0x78
878007de:	2305      	movs	r3, #5
878007e0:	4608      	mov	r0, r1
878007e2:	f9b6 2000 	ldrsh.w	r2, [r6]
878007e6:	f001 ff3b 	bl	87802660 <tft_lcd_show_int>
878007ea:	2305      	movs	r3, #5
878007ec:	f9b5 2000 	ldrsh.w	r2, [r5]
878007f0:	2178      	movs	r1, #120	; 0x78
878007f2:	20f0      	movs	r0, #240	; 0xf0
878007f4:	f001 ff34 	bl	87802660 <tft_lcd_show_int>
878007f8:	f9b7 0000 	ldrsh.w	r0, [r7]
878007fc:	f000 fefc 	bl	878015f8 <icm20608_gyro_transition>
87800800:	2302      	movs	r3, #2
87800802:	2203      	movs	r2, #3
87800804:	2190      	movs	r1, #144	; 0x90
87800806:	2000      	movs	r0, #0
87800808:	f001 ff82 	bl	87802710 <tft_lcd_show_float>
8780080c:	f9b6 0000 	ldrsh.w	r0, [r6]
87800810:	f000 fef2 	bl	878015f8 <icm20608_gyro_transition>
87800814:	2302      	movs	r3, #2
87800816:	2203      	movs	r2, #3
87800818:	2190      	movs	r1, #144	; 0x90
8780081a:	2078      	movs	r0, #120	; 0x78
8780081c:	f001 ff78 	bl	87802710 <tft_lcd_show_float>
87800820:	f9b5 0000 	ldrsh.w	r0, [r5]
87800824:	f000 fee8 	bl	878015f8 <icm20608_gyro_transition>
87800828:	2302      	movs	r3, #2
8780082a:	2203      	movs	r2, #3
8780082c:	2190      	movs	r1, #144	; 0x90
8780082e:	20f0      	movs	r0, #240	; 0xf0
87800830:	f001 ff6e 	bl	87802710 <tft_lcd_show_float>
87800834:	f648 3268 	movw	r2, #35688	; 0x8b68
87800838:	21a8      	movs	r1, #168	; 0xa8
8780083a:	f2c8 7280 	movt	r2, #34688	; 0x8780
8780083e:	2000      	movs	r0, #0
87800840:	f001 fea4 	bl	8780258c <tft_lcd_show_string>
87800844:	2305      	movs	r3, #5
87800846:	f9b4 2000 	ldrsh.w	r2, [r4]
8780084a:	21c0      	movs	r1, #192	; 0xc0
8780084c:	2000      	movs	r0, #0
8780084e:	f001 ff07 	bl	87802660 <tft_lcd_show_int>
87800852:	f9b4 3000 	ldrsh.w	r3, [r4]
87800856:	2205      	movs	r2, #5
87800858:	eeb3 7a09 	vmov.f32	s14, #57	; 0x39
8780085c:	21c0      	movs	r1, #192	; 0xc0
8780085e:	eef3 0b09 	vmov.f64	d16, #57	; 0x39
87800862:	2078      	movs	r0, #120	; 0x78
87800864:	ee00 3a10 	vmov	s0, r3
87800868:	2302      	movs	r3, #2
8780086a:	eef8 7ac0 	vcvt.f32.s32	s15, s0
8780086e:	ee37 0ac7 	vsub.f32	s0, s15, s14
87800872:	eeb7 0ac0 	vcvt.f64.f32	d0, s0
87800876:	ee80 0b08 	vdiv.f64	d0, d0, d8
8780087a:	ee30 0b20 	vadd.f64	d0, d0, d16
8780087e:	eeb7 0bc0 	vcvt.f32.f64	s0, d0
87800882:	f001 ff45 	bl	87802710 <tft_lcd_show_float>
87800886:	2001      	movs	r0, #1
87800888:	f7ff fd3a 	bl	87800300 <Key_Scan_Save>
8780088c:	f8db 3004 	ldr.w	r3, [fp, #4]
87800890:	2b01      	cmp	r3, #1
87800892:	f47f af55 	bne.w	87800740 <test_icm20608+0x68>
87800896:	ecbd 8b02 	vpop	{d8}
8780089a:	f64b 408f 	movw	r0, #48271	; 0xbc8f
8780089e:	f2c0 008f 	movt	r0, #143	; 0x8f
878008a2:	e8bd 4ff8 	ldmia.w	sp!, {r3, r4, r5, r6, r7, r8, r9, sl, fp, lr}
878008a6:	f001 bbbb 	b.w	87802020 <tft_lcd_clear>
878008aa:	bf00      	nop
878008ac:	f3af 8000 	nop.w
878008b0:	cccccccd 	stclgt	12, cr12, [ip], {205}	; 0xcd
878008b4:	40746ccc 	rsbsmi	r6, r4, ip, asr #25

878008b8 <text_ap3216c>:
878008b8:	f64b 408f 	movw	r0, #48271	; 0xbc8f
878008bc:	b510      	push	{r4, lr}
878008be:	f2c0 008f 	movt	r0, #143	; 0x8f
878008c2:	b082      	sub	sp, #8
878008c4:	f24e 5408 	movw	r4, #58632	; 0xe508
878008c8:	f001 fbaa 	bl	87802020 <tft_lcd_clear>
878008cc:	f648 3278 	movw	r2, #35704	; 0x8b78
878008d0:	2160      	movs	r1, #96	; 0x60
878008d2:	f2c8 7280 	movt	r2, #34688	; 0x8780
878008d6:	2000      	movs	r0, #0
878008d8:	f001 fe58 	bl	8780258c <tft_lcd_show_string>
878008dc:	f648 3288 	movw	r2, #35720	; 0x8b88
878008e0:	2180      	movs	r1, #128	; 0x80
878008e2:	f2c8 7280 	movt	r2, #34688	; 0x8780
878008e6:	2000      	movs	r0, #0
878008e8:	f001 fe50 	bl	8780258c <tft_lcd_show_string>
878008ec:	f648 3290 	movw	r2, #35728	; 0x8b90
878008f0:	21a0      	movs	r1, #160	; 0xa0
878008f2:	f2c8 7280 	movt	r2, #34688	; 0x8780
878008f6:	2000      	movs	r0, #0
878008f8:	f001 fe48 	bl	8780258c <tft_lcd_show_string>
878008fc:	f648 3298 	movw	r2, #35736	; 0x8b98
87800900:	21c0      	movs	r1, #192	; 0xc0
87800902:	f2c8 7280 	movt	r2, #34688	; 0x8780
87800906:	2000      	movs	r0, #0
87800908:	f2c8 7480 	movt	r4, #34688	; 0x8780
8780090c:	f001 fe3e 	bl	8780258c <tft_lcd_show_string>
87800910:	f10d 0206 	add.w	r2, sp, #6
87800914:	a901      	add	r1, sp, #4
87800916:	f10d 0002 	add.w	r0, sp, #2
8780091a:	f000 fda3 	bl	87801464 <ap3216c_read_data>
8780091e:	2310      	movs	r3, #16
87800920:	f8bd 2002 	ldrh.w	r2, [sp, #2]
87800924:	2180      	movs	r1, #128	; 0x80
87800926:	2040      	movs	r0, #64	; 0x40
87800928:	f001 fec6 	bl	878026b8 <tft_lcd_show_uint>
8780092c:	2310      	movs	r3, #16
8780092e:	f8bd 2004 	ldrh.w	r2, [sp, #4]
87800932:	21a0      	movs	r1, #160	; 0xa0
87800934:	2040      	movs	r0, #64	; 0x40
87800936:	f001 febf 	bl	878026b8 <tft_lcd_show_uint>
8780093a:	2310      	movs	r3, #16
8780093c:	f8bd 2006 	ldrh.w	r2, [sp, #6]
87800940:	21c0      	movs	r1, #192	; 0xc0
87800942:	2040      	movs	r0, #64	; 0x40
87800944:	f001 feb8 	bl	878026b8 <tft_lcd_show_uint>
87800948:	2178      	movs	r1, #120	; 0x78
8780094a:	f44f 707a 	mov.w	r0, #1000	; 0x3e8
8780094e:	f002 faff 	bl	87802f50 <system_delay>
87800952:	2001      	movs	r0, #1
87800954:	f7ff fcd4 	bl	87800300 <Key_Scan_Save>
87800958:	6863      	ldr	r3, [r4, #4]
8780095a:	2b01      	cmp	r3, #1
8780095c:	d1d8      	bne.n	87800910 <text_ap3216c+0x58>
8780095e:	b002      	add	sp, #8
87800960:	bd10      	pop	{r4, pc}
87800962:	bf00      	nop

87800964 <test_rtc_clock>:
87800964:	b5f0      	push	{r4, r5, r6, r7, lr}
87800966:	b0af      	sub	sp, #188	; 0xbc
87800968:	22a0      	movs	r2, #160	; 0xa0
8780096a:	2100      	movs	r1, #0
8780096c:	a806      	add	r0, sp, #24
8780096e:	2400      	movs	r4, #0
87800970:	f006 fa14 	bl	87806d9c <memset>
87800974:	f64b 408f 	movw	r0, #48271	; 0xbc8f
87800978:	f24e 5608 	movw	r6, #58632	; 0xe508
8780097c:	f2c0 008f 	movt	r0, #143	; 0x8f
87800980:	f2c8 7680 	movt	r6, #34688	; 0x8780
87800984:	f001 fb4c 	bl	87802020 <tft_lcd_clear>
87800988:	f648 32a0 	movw	r2, #35744	; 0x8ba0
8780098c:	2120      	movs	r1, #32
8780098e:	f2c8 7280 	movt	r2, #34688	; 0x8780
87800992:	4620      	mov	r0, r4
87800994:	2503      	movs	r5, #3
87800996:	f001 fdf9 	bl	8780258c <tft_lcd_show_string>
8780099a:	e016      	b.n	878009ca <test_rtc_clock+0x66>
8780099c:	2c5a      	cmp	r4, #90	; 0x5a
8780099e:	bf02      	ittt	eq
878009a0:	f105 35ff 	addeq.w	r5, r5, #4294967295	; 0xffffffff
878009a4:	2400      	moveq	r4, #0
878009a6:	b2ed      	uxtbeq	r5, r5
878009a8:	462a      	mov	r2, r5
878009aa:	f001 fe85 	bl	878026b8 <tft_lcd_show_uint>
878009ae:	b385      	cbz	r5, 87800a12 <test_rtc_clock+0xae>
878009b0:	f648 32c0 	movw	r2, #35776	; 0x8bc0
878009b4:	2140      	movs	r1, #64	; 0x40
878009b6:	202a      	movs	r0, #42	; 0x2a
878009b8:	f2c8 7280 	movt	r2, #34688	; 0x8780
878009bc:	f001 fde6 	bl	8780258c <tft_lcd_show_string>
878009c0:	210a      	movs	r1, #10
878009c2:	f44f 707a 	mov.w	r0, #1000	; 0x3e8
878009c6:	f002 fac3 	bl	87802f50 <system_delay>
878009ca:	2001      	movs	r0, #1
878009cc:	3401      	adds	r4, #1
878009ce:	f7ff fc97 	bl	87800300 <Key_Scan_Save>
878009d2:	6872      	ldr	r2, [r6, #4]
878009d4:	b2e4      	uxtb	r4, r4
878009d6:	2302      	movs	r3, #2
878009d8:	2140      	movs	r1, #64	; 0x40
878009da:	200a      	movs	r0, #10
878009dc:	2a01      	cmp	r2, #1
878009de:	d1dd      	bne.n	8780099c <test_rtc_clock+0x38>
878009e0:	2332      	movs	r3, #50	; 0x32
878009e2:	2203      	movs	r2, #3
878009e4:	9301      	str	r3, [sp, #4]
878009e6:	2109      	movs	r1, #9
878009e8:	2300      	movs	r3, #0
878009ea:	9200      	str	r2, [sp, #0]
878009ec:	f240 70e7 	movw	r0, #2023	; 0x7e7
878009f0:	2205      	movs	r2, #5
878009f2:	f003 fbd7 	bl	878041a4 <rtc_update_time>
878009f6:	f648 32b0 	movw	r2, #35760	; 0x8bb0
878009fa:	2160      	movs	r1, #96	; 0x60
878009fc:	2000      	movs	r0, #0
878009fe:	f2c8 7280 	movt	r2, #34688	; 0x8780
87800a02:	f001 fdc3 	bl	8780258c <tft_lcd_show_string>
87800a06:	f44f 71fa 	mov.w	r1, #500	; 0x1f4
87800a0a:	f44f 707a 	mov.w	r0, #1000	; 0x3e8
87800a0e:	f002 fa9f 	bl	87802f50 <system_delay>
87800a12:	f44f 707a 	mov.w	r0, #1000	; 0x3e8
87800a16:	2164      	movs	r1, #100	; 0x64
87800a18:	f002 fa9a 	bl	87802f50 <system_delay>
87800a1c:	f64b 408f 	movw	r0, #48271	; 0xbc8f
87800a20:	f2c0 008f 	movt	r0, #143	; 0x8f
87800a24:	f001 fafc 	bl	87802020 <tft_lcd_clear>
87800a28:	a804      	add	r0, sp, #16
87800a2a:	f003 fbab 	bl	87804184 <rtc_getdatetime>
87800a2e:	f648 32e0 	movw	r2, #35808	; 0x8be0
87800a32:	2180      	movs	r1, #128	; 0x80
87800a34:	f2c8 7280 	movt	r2, #34688	; 0x8780
87800a38:	2000      	movs	r0, #0
87800a3a:	f001 fda7 	bl	8780258c <tft_lcd_show_string>
87800a3e:	f89d e016 	ldrb.w	lr, [sp, #22]
87800a42:	f648 31f0 	movw	r1, #35824	; 0x8bf0
87800a46:	f89d 7015 	ldrb.w	r7, [sp, #21]
87800a4a:	f2c8 7180 	movt	r1, #34688	; 0x8780
87800a4e:	f89d 5014 	ldrb.w	r5, [sp, #20]
87800a52:	a806      	add	r0, sp, #24
87800a54:	f89d 4013 	ldrb.w	r4, [sp, #19]
87800a58:	f89d 3012 	ldrb.w	r3, [sp, #18]
87800a5c:	f8bd 2010 	ldrh.w	r2, [sp, #16]
87800a60:	e88d 40b0 	stmia.w	sp, {r4, r5, r7, lr}
87800a64:	f007 f8f8 	bl	87807c58 <sprintf>
87800a68:	aa06      	add	r2, sp, #24
87800a6a:	2180      	movs	r1, #128	; 0x80
87800a6c:	f44f 70e0 	mov.w	r0, #448	; 0x1c0
87800a70:	f001 fd8c 	bl	8780258c <tft_lcd_show_string>
87800a74:	2001      	movs	r0, #1
87800a76:	f7ff fc43 	bl	87800300 <Key_Scan_Save>
87800a7a:	6873      	ldr	r3, [r6, #4]
87800a7c:	2b01      	cmp	r3, #1
87800a7e:	d1d3      	bne.n	87800a28 <test_rtc_clock+0xc4>
87800a80:	b02f      	add	sp, #188	; 0xbc
87800a82:	bdf0      	pop	{r4, r5, r6, r7, pc}
87800a84:	f3af 8000 	nop.w

87800a88 <EPIT1_IRQn_Irq_Handler>:
87800a88:	2000      	movs	r0, #0
87800a8a:	b508      	push	{r3, lr}
87800a8c:	f2c0 200d 	movt	r0, #525	; 0x20d
87800a90:	f002 ff16 	bl	878038c0 <pit_flag_get>
87800a94:	b900      	cbnz	r0, 87800a98 <EPIT1_IRQn_Irq_Handler+0x10>
87800a96:	bd08      	pop	{r3, pc}
87800a98:	2000      	movs	r0, #0
87800a9a:	f2c0 200d 	movt	r0, #525	; 0x20d
87800a9e:	f002 ff13 	bl	878038c8 <pit_flag_clear>
87800aa2:	2000      	movs	r0, #0
87800aa4:	f2c0 200d 	movt	r0, #525	; 0x20d
87800aa8:	f002 ff14 	bl	878038d4 <pit_close>
87800aac:	2032      	movs	r0, #50	; 0x32
87800aae:	f002 fbc5 	bl	8780323c <gpio_get_level>
87800ab2:	2800      	cmp	r0, #0
87800ab4:	d1ef      	bne.n	87800a96 <EPIT1_IRQn_Irq_Handler+0xe>
87800ab6:	2046      	movs	r0, #70	; 0x46
87800ab8:	e8bd 4008 	ldmia.w	sp!, {r3, lr}
87800abc:	f7ff bc40 	b.w	87800340 <Buzzer>

87800ac0 <EPIT2_IRQn_Irq_Handler>:
87800ac0:	f44f 4080 	mov.w	r0, #16384	; 0x4000
87800ac4:	b508      	push	{r3, lr}
87800ac6:	f2c0 200d 	movt	r0, #525	; 0x20d
87800aca:	f002 fef9 	bl	878038c0 <pit_flag_get>
87800ace:	b900      	cbnz	r0, 87800ad2 <EPIT2_IRQn_Irq_Handler+0x12>
87800ad0:	bd08      	pop	{r3, pc}
87800ad2:	f44f 4080 	mov.w	r0, #16384	; 0x4000
87800ad6:	f2c0 200d 	movt	r0, #525	; 0x20d
87800ada:	f002 fef5 	bl	878038c8 <pit_flag_clear>
87800ade:	2023      	movs	r0, #35	; 0x23
87800ae0:	e8bd 4008 	ldmia.w	sp!, {r3, lr}
87800ae4:	f002 bbe6 	b.w	878032b4 <gpio_toggle_level>

87800ae8 <GPIO1_Combined_0_15_Irq_Handler>:
87800ae8:	b508      	push	{r3, lr}
87800aea:	2029      	movs	r0, #41	; 0x29
87800aec:	f002 fa4e 	bl	87802f8c <exti_flag_get>
87800af0:	b900      	cbnz	r0, 87800af4 <GPIO1_Combined_0_15_Irq_Handler+0xc>
87800af2:	bd08      	pop	{r3, pc}
87800af4:	2029      	movs	r0, #41	; 0x29
87800af6:	f002 fa55 	bl	87802fa4 <exti_flag_clear>
87800afa:	f24f 23d8 	movw	r3, #62168	; 0xf2d8
87800afe:	f2c8 7380 	movt	r3, #34688	; 0x8780
87800b02:	781a      	ldrb	r2, [r3, #0]
87800b04:	2a01      	cmp	r2, #1
87800b06:	d00b      	beq.n	87800b20 <GPIO1_Combined_0_15_Irq_Handler+0x38>
87800b08:	f24f 23c0 	movw	r3, #62144	; 0xf2c0
87800b0c:	f2c8 7380 	movt	r3, #34688	; 0x8780
87800b10:	781a      	ldrb	r2, [r3, #0]
87800b12:	2a01      	cmp	r2, #1
87800b14:	d1ed      	bne.n	87800af2 <GPIO1_Combined_0_15_Irq_Handler+0xa>
87800b16:	705a      	strb	r2, [r3, #1]
87800b18:	e8bd 4008 	ldmia.w	sp!, {r3, lr}
87800b1c:	f001 bf5e 	b.w	878029dc <ft5426_read_tpcoord>
87800b20:	705a      	strb	r2, [r3, #1]
87800b22:	e8bd 4008 	ldmia.w	sp!, {r3, lr}
87800b26:	f002 b9a1 	b.w	87802e6c <gt9147_read_tpcoord>
87800b2a:	bf00      	nop

87800b2c <GPIO1_Combined_16_31_Irq_Handler>:
87800b2c:	b508      	push	{r3, lr}
87800b2e:	2032      	movs	r0, #50	; 0x32
87800b30:	f002 fa2c 	bl	87802f8c <exti_flag_get>
87800b34:	b900      	cbnz	r0, 87800b38 <GPIO1_Combined_16_31_Irq_Handler+0xc>
87800b36:	bd08      	pop	{r3, pc}
87800b38:	2000      	movs	r0, #0
87800b3a:	f2c0 200d 	movt	r0, #525	; 0x20d
87800b3e:	f002 fecf 	bl	878038e0 <pit_restart>
87800b42:	2032      	movs	r0, #50	; 0x32
87800b44:	e8bd 4008 	ldmia.w	sp!, {r3, lr}
87800b48:	f002 ba2c 	b.w	87802fa4 <exti_flag_clear>

87800b4c <GPIO2_Combined_0_15_Irq_Handler>:
87800b4c:	2040      	movs	r0, #64	; 0x40
87800b4e:	f002 ba29 	b.w	87802fa4 <exti_flag_clear>
87800b52:	bf00      	nop

87800b54 <GPIO2_Combined_16_31_Irq_Handler>:
87800b54:	2040      	movs	r0, #64	; 0x40
87800b56:	f002 ba25 	b.w	87802fa4 <exti_flag_clear>
87800b5a:	bf00      	nop

87800b5c <GPIO3_Combined_0_15_Irq_Handler>:
87800b5c:	2060      	movs	r0, #96	; 0x60
87800b5e:	f002 ba21 	b.w	87802fa4 <exti_flag_clear>
87800b62:	bf00      	nop

87800b64 <GPIO3_Combined_16_31_Irq_Handler>:
87800b64:	2060      	movs	r0, #96	; 0x60
87800b66:	f002 ba1d 	b.w	87802fa4 <exti_flag_clear>
87800b6a:	bf00      	nop

87800b6c <GPIO4_Combined_0_15_Irq_Handler>:
87800b6c:	2080      	movs	r0, #128	; 0x80
87800b6e:	f002 ba19 	b.w	87802fa4 <exti_flag_clear>
87800b72:	bf00      	nop

87800b74 <GPIO4_Combined_16_31_Irq_Handler>:
87800b74:	2080      	movs	r0, #128	; 0x80
87800b76:	f002 ba15 	b.w	87802fa4 <exti_flag_clear>
87800b7a:	bf00      	nop

87800b7c <GPIO5_Combined_0_15_Irq_Handler>:
87800b7c:	20a0      	movs	r0, #160	; 0xa0
87800b7e:	f002 ba11 	b.w	87802fa4 <exti_flag_clear>
87800b82:	bf00      	nop

87800b84 <GPIO5_Combined_16_31_Irq_Handler>:
87800b84:	20a0      	movs	r0, #160	; 0xa0
87800b86:	f002 ba0d 	b.w	87802fa4 <exti_flag_clear>
87800b8a:	bf00      	nop

87800b8c <clk_enable>:
87800b8c:	f44f 4380 	mov.w	r3, #16384	; 0x4000
87800b90:	f04f 32ff 	mov.w	r2, #4294967295	; 0xffffffff
87800b94:	f2c0 230c 	movt	r3, #524	; 0x20c
87800b98:	669a      	str	r2, [r3, #104]	; 0x68
87800b9a:	66da      	str	r2, [r3, #108]	; 0x6c
87800b9c:	671a      	str	r2, [r3, #112]	; 0x70
87800b9e:	675a      	str	r2, [r3, #116]	; 0x74
87800ba0:	679a      	str	r2, [r3, #120]	; 0x78
87800ba2:	67da      	str	r2, [r3, #124]	; 0x7c
87800ba4:	f8c3 2080 	str.w	r2, [r3, #128]	; 0x80
87800ba8:	4770      	bx	lr
87800baa:	bf00      	nop

87800bac <imx6u_clkinit>:
87800bac:	f44f 4380 	mov.w	r3, #16384	; 0x4000
87800bb0:	b470      	push	{r4, r5, r6}
87800bb2:	f2c0 230c 	movt	r3, #524	; 0x20c
87800bb6:	68da      	ldr	r2, [r3, #12]
87800bb8:	0754      	lsls	r4, r2, #29
87800bba:	d407      	bmi.n	87800bcc <imx6u_clkinit+0x20>
87800bbc:	68da      	ldr	r2, [r3, #12]
87800bbe:	f422 7280 	bic.w	r2, r2, #256	; 0x100
87800bc2:	60da      	str	r2, [r3, #12]
87800bc4:	68da      	ldr	r2, [r3, #12]
87800bc6:	f042 0204 	orr.w	r2, r2, #4
87800bca:	60da      	str	r2, [r3, #12]
87800bcc:	f44f 4200 	mov.w	r2, #32768	; 0x8000
87800bd0:	f44f 4380 	mov.w	r3, #16384	; 0x4000
87800bd4:	f2c0 230c 	movt	r3, #524	; 0x20c
87800bd8:	f2c0 220c 	movt	r2, #524	; 0x20c
87800bdc:	f242 0142 	movw	r1, #8258	; 0x2042
87800be0:	2600      	movs	r6, #0
87800be2:	6011      	str	r1, [r2, #0]
87800be4:	f241 041b 	movw	r4, #4123	; 0x101b
87800be8:	68dd      	ldr	r5, [r3, #12]
87800bea:	f2c2 0418 	movt	r4, #8216	; 0x2018
87800bee:	f241 000c 	movw	r0, #4108	; 0x100c
87800bf2:	4619      	mov	r1, r3
87800bf4:	f2c1 3011 	movt	r0, #4881	; 0x1311
87800bf8:	f025 0504 	bic.w	r5, r5, #4
87800bfc:	60dd      	str	r5, [r3, #12]
87800bfe:	611e      	str	r6, [r3, #16]
87800c00:	f8d2 5100 	ldr.w	r5, [r2, #256]	; 0x100
87800c04:	f005 35c0 	and.w	r5, r5, #3233857728	; 0xc0c0c0c0
87800c08:	432c      	orrs	r4, r5
87800c0a:	f8c2 4100 	str.w	r4, [r2, #256]	; 0x100
87800c0e:	f8d2 40f0 	ldr.w	r4, [r2, #240]	; 0xf0
87800c12:	f004 34c0 	and.w	r4, r4, #3233857728	; 0xc0c0c0c0
87800c16:	4320      	orrs	r0, r4
87800c18:	f8c2 00f0 	str.w	r0, [r2, #240]	; 0xf0
87800c1c:	699a      	ldr	r2, [r3, #24]
87800c1e:	f422 2240 	bic.w	r2, r2, #786432	; 0xc0000
87800c22:	619a      	str	r2, [r3, #24]
87800c24:	699a      	ldr	r2, [r3, #24]
87800c26:	f442 2280 	orr.w	r2, r2, #262144	; 0x40000
87800c2a:	619a      	str	r2, [r3, #24]
87800c2c:	695a      	ldr	r2, [r3, #20]
87800c2e:	f022 7200 	bic.w	r2, r2, #33554432	; 0x2000000
87800c32:	615a      	str	r2, [r3, #20]
87800c34:	6c8a      	ldr	r2, [r1, #72]	; 0x48
87800c36:	f44f 4380 	mov.w	r3, #16384	; 0x4000
87800c3a:	f2c0 230c 	movt	r3, #524	; 0x20c
87800c3e:	0690      	lsls	r0, r2, #26
87800c40:	d4f8      	bmi.n	87800c34 <imx6u_clkinit+0x88>
87800c42:	695a      	ldr	r2, [r3, #20]
87800c44:	4619      	mov	r1, r3
87800c46:	f422 52e0 	bic.w	r2, r2, #7168	; 0x1c00
87800c4a:	615a      	str	r2, [r3, #20]
87800c4c:	695a      	ldr	r2, [r3, #20]
87800c4e:	f442 6200 	orr.w	r2, r2, #2048	; 0x800
87800c52:	615a      	str	r2, [r3, #20]
87800c54:	6c8a      	ldr	r2, [r1, #72]	; 0x48
87800c56:	f44f 4380 	mov.w	r3, #16384	; 0x4000
87800c5a:	f2c0 230c 	movt	r3, #524	; 0x20c
87800c5e:	0792      	lsls	r2, r2, #30
87800c60:	d4f8      	bmi.n	87800c54 <imx6u_clkinit+0xa8>
87800c62:	695a      	ldr	r2, [r3, #20]
87800c64:	bc70      	pop	{r4, r5, r6}
87800c66:	f422 7240 	bic.w	r2, r2, #768	; 0x300
87800c6a:	615a      	str	r2, [r3, #20]
87800c6c:	695a      	ldr	r2, [r3, #20]
87800c6e:	f442 7280 	orr.w	r2, r2, #256	; 0x100
87800c72:	615a      	str	r2, [r3, #20]
87800c74:	69da      	ldr	r2, [r3, #28]
87800c76:	f022 0240 	bic.w	r2, r2, #64	; 0x40
87800c7a:	61da      	str	r2, [r3, #28]
87800c7c:	69da      	ldr	r2, [r3, #28]
87800c7e:	f022 0207 	bic.w	r2, r2, #7
87800c82:	61da      	str	r2, [r3, #28]
87800c84:	4770      	bx	lr
87800c86:	bf00      	nop

87800c88 <imx6ul_hardfpu_enable>:
87800c88:	ee11 3f50 	mrc	15, 0, r3, cr1, cr0, {2}
87800c8c:	f023 4340 	bic.w	r3, r3, #3221225472	; 0xc0000000
87800c90:	f423 0370 	bic.w	r3, r3, #15728640	; 0xf00000
87800c94:	f443 0370 	orr.w	r3, r3, #15728640	; 0xf00000
87800c98:	ee01 3f50 	mcr	15, 0, r3, cr1, cr0, {2}
87800c9c:	eef8 3a10 	vmrs	r3, fpexc
87800ca0:	f043 4380 	orr.w	r3, r3, #1073741824	; 0x40000000
87800ca4:	eee8 3a10 	vmsr	fpexc, r3
87800ca8:	4770      	bx	lr
87800caa:	bf00      	nop

87800cac <system_init>:
87800cac:	b5f8      	push	{r3, r4, r5, r6, r7, lr}
87800cae:	ee11 3f50 	mrc	15, 0, r3, cr1, cr0, {2}
87800cb2:	f023 4340 	bic.w	r3, r3, #3221225472	; 0xc0000000
87800cb6:	f423 0370 	bic.w	r3, r3, #15728640	; 0xf00000
87800cba:	f443 0370 	orr.w	r3, r3, #15728640	; 0xf00000
87800cbe:	ee01 3f50 	mcr	15, 0, r3, cr1, cr0, {2}
87800cc2:	eef8 3a10 	vmrs	r3, fpexc
87800cc6:	f043 4380 	orr.w	r3, r3, #1073741824	; 0x40000000
87800cca:	eee8 3a10 	vmsr	fpexc, r3
87800cce:	ee9f 1f10 	mrc	15, 4, r1, cr15, cr0, {0}
87800cd2:	0c09      	lsrs	r1, r1, #16
87800cd4:	f241 0204 	movw	r2, #4100	; 0x1004
87800cd8:	2300      	movs	r3, #0
87800cda:	0409      	lsls	r1, r1, #16
87800cdc:	f04f 35ff 	mov.w	r5, #4294967295	; 0xffffffff
87800ce0:	5888      	ldr	r0, [r1, r2]
87800ce2:	f000 001f 	and.w	r0, r0, #31
87800ce6:	3001      	adds	r0, #1
87800ce8:	f503 628c 	add.w	r2, r3, #1120	; 0x460
87800cec:	3301      	adds	r3, #1
87800cee:	4298      	cmp	r0, r3
87800cf0:	f841 5022 	str.w	r5, [r1, r2, lsl #2]
87800cf4:	f04f 34ff 	mov.w	r4, #4294967295	; 0xffffffff
87800cf8:	d1f6      	bne.n	87800ce8 <system_init+0x3c>
87800cfa:	f242 0304 	movw	r3, #8196	; 0x2004
87800cfe:	27f8      	movs	r7, #248	; 0xf8
87800d00:	50cf      	str	r7, [r1, r3]
87800d02:	f501 5080 	add.w	r0, r1, #4096	; 0x1000
87800d06:	2301      	movs	r3, #1
87800d08:	f501 5200 	add.w	r2, r1, #8192	; 0x2000
87800d0c:	f242 0508 	movw	r5, #8200	; 0x2008
87800d10:	2602      	movs	r6, #2
87800d12:	514e      	str	r6, [r1, r5]
87800d14:	6003      	str	r3, [r0, #0]
87800d16:	6013      	str	r3, [r2, #0]
87800d18:	f005 fba4 	bl	87806464 <SystemInitIrqTable>
87800d1c:	2300      	movs	r3, #0
87800d1e:	f2c8 7380 	movt	r3, #34688	; 0x8780
87800d22:	ee0c 3f10 	mcr	15, 0, r3, cr12, cr0, {0}
87800d26:	f7ff ff41 	bl	87800bac <imx6u_clkinit>
87800d2a:	f002 f8f3 	bl	87802f14 <gpt_clock_delay_init>
87800d2e:	f44f 4380 	mov.w	r3, #16384	; 0x4000
87800d32:	f2c0 230c 	movt	r3, #524	; 0x20c
87800d36:	669c      	str	r4, [r3, #104]	; 0x68
87800d38:	66dc      	str	r4, [r3, #108]	; 0x6c
87800d3a:	671c      	str	r4, [r3, #112]	; 0x70
87800d3c:	675c      	str	r4, [r3, #116]	; 0x74
87800d3e:	679c      	str	r4, [r3, #120]	; 0x78
87800d40:	67dc      	str	r4, [r3, #124]	; 0x7c
87800d42:	f8c3 4080 	str.w	r4, [r3, #128]	; 0x80
87800d46:	bdf8      	pop	{r3, r4, r5, r6, r7, pc}

87800d48 <func_get_greatest_common_divisor>:
87800d48:	4288      	cmp	r0, r1
87800d4a:	d006      	beq.n	87800d5a <func_get_greatest_common_divisor+0x12>
87800d4c:	4288      	cmp	r0, r1
87800d4e:	bf88      	it	hi
87800d50:	1a40      	subhi	r0, r0, r1
87800d52:	4288      	cmp	r0, r1
87800d54:	bf38      	it	cc
87800d56:	1a09      	subcc	r1, r1, r0
87800d58:	e7f6      	b.n	87800d48 <func_get_greatest_common_divisor>
87800d5a:	4770      	bx	lr

87800d5c <func_soft_delay>:
87800d5c:	b082      	sub	sp, #8
87800d5e:	9001      	str	r0, [sp, #4]
87800d60:	9b01      	ldr	r3, [sp, #4]
87800d62:	1e5a      	subs	r2, r3, #1
87800d64:	9201      	str	r2, [sp, #4]
87800d66:	2b00      	cmp	r3, #0
87800d68:	d1fa      	bne.n	87800d60 <func_soft_delay+0x4>
87800d6a:	b002      	add	sp, #8
87800d6c:	4770      	bx	lr
87800d6e:	bf00      	nop

87800d70 <func_str_to_int>:
87800d70:	b308      	cbz	r0, 87800db6 <func_str_to_int+0x46>
87800d72:	b470      	push	{r4, r5, r6}
87800d74:	7801      	ldrb	r1, [r0, #0]
87800d76:	292d      	cmp	r1, #45	; 0x2d
87800d78:	d01e      	beq.n	87800db8 <func_str_to_int+0x48>
87800d7a:	292b      	cmp	r1, #43	; 0x2b
87800d7c:	f04f 0500 	mov.w	r5, #0
87800d80:	bf03      	ittte	eq
87800d82:	7841      	ldrbeq	r1, [r0, #1]
87800d84:	462e      	moveq	r6, r5
87800d86:	3001      	addeq	r0, #1
87800d88:	462e      	movne	r6, r5
87800d8a:	f1a1 0230 	sub.w	r2, r1, #48	; 0x30
87800d8e:	b2d3      	uxtb	r3, r2
87800d90:	2b09      	cmp	r3, #9
87800d92:	f04f 0300 	mov.w	r3, #0
87800d96:	d80a      	bhi.n	87800dae <func_str_to_int+0x3e>
87800d98:	00dc      	lsls	r4, r3, #3
87800d9a:	f810 1f01 	ldrb.w	r1, [r0, #1]!
87800d9e:	eb04 0343 	add.w	r3, r4, r3, lsl #1
87800da2:	4413      	add	r3, r2
87800da4:	f1a1 0230 	sub.w	r2, r1, #48	; 0x30
87800da8:	b2d1      	uxtb	r1, r2
87800daa:	2909      	cmp	r1, #9
87800dac:	d9f4      	bls.n	87800d98 <func_str_to_int+0x28>
87800dae:	ea83 0006 	eor.w	r0, r3, r6
87800db2:	4428      	add	r0, r5
87800db4:	bc70      	pop	{r4, r5, r6}
87800db6:	4770      	bx	lr
87800db8:	2501      	movs	r5, #1
87800dba:	7841      	ldrb	r1, [r0, #1]
87800dbc:	f04f 36ff 	mov.w	r6, #4294967295	; 0xffffffff
87800dc0:	4428      	add	r0, r5
87800dc2:	e7e2      	b.n	87800d8a <func_str_to_int+0x1a>

87800dc4 <func_int_to_str>:
87800dc4:	b5f0      	push	{r4, r5, r6, r7, lr}
87800dc6:	b085      	sub	sp, #20
87800dc8:	b368      	cbz	r0, 87800e26 <func_int_to_str+0x62>
87800dca:	2900      	cmp	r1, #0
87800dcc:	db2d      	blt.n	87800e2a <func_int_to_str+0x66>
87800dce:	bf04      	itt	eq
87800dd0:	2330      	moveq	r3, #48	; 0x30
87800dd2:	7003      	strbeq	r3, [r0, #0]
87800dd4:	d027      	beq.n	87800e26 <func_int_to_str+0x62>
87800dd6:	f246 6e67 	movw	lr, #26215	; 0x6667
87800dda:	2500      	movs	r5, #0
87800ddc:	f2c6 6e66 	movt	lr, #26214	; 0x6666
87800de0:	fb81 670e 	smull	r6, r7, r1, lr
87800de4:	17cc      	asrs	r4, r1, #31
87800de6:	aa04      	add	r2, sp, #16
87800de8:	1956      	adds	r6, r2, r5
87800dea:	1c6b      	adds	r3, r5, #1
87800dec:	b2db      	uxtb	r3, r3
87800dee:	ebc4 04a7 	rsb	r4, r4, r7, asr #2
87800df2:	461d      	mov	r5, r3
87800df4:	00e2      	lsls	r2, r4, #3
87800df6:	eb02 0244 	add.w	r2, r2, r4, lsl #1
87800dfa:	1a8a      	subs	r2, r1, r2
87800dfc:	4621      	mov	r1, r4
87800dfe:	2a00      	cmp	r2, #0
87800e00:	bfb8      	it	lt
87800e02:	4252      	neglt	r2, r2
87800e04:	f806 2c10 	strb.w	r2, [r6, #-16]
87800e08:	2c00      	cmp	r4, #0
87800e0a:	d1e9      	bne.n	87800de0 <func_int_to_str+0x1c>
87800e0c:	b15b      	cbz	r3, 87800e26 <func_int_to_str+0x62>
87800e0e:	aa04      	add	r2, sp, #16
87800e10:	441a      	add	r2, r3
87800e12:	3b01      	subs	r3, #1
87800e14:	f812 2c11 	ldrb.w	r2, [r2, #-17]
87800e18:	f013 03ff 	ands.w	r3, r3, #255	; 0xff
87800e1c:	f102 0230 	add.w	r2, r2, #48	; 0x30
87800e20:	f800 2b01 	strb.w	r2, [r0], #1
87800e24:	d1f3      	bne.n	87800e0e <func_int_to_str+0x4a>
87800e26:	b005      	add	sp, #20
87800e28:	bdf0      	pop	{r4, r5, r6, r7, pc}
87800e2a:	232d      	movs	r3, #45	; 0x2d
87800e2c:	4249      	negs	r1, r1
87800e2e:	7003      	strb	r3, [r0, #0]
87800e30:	3001      	adds	r0, #1
87800e32:	e7d0      	b.n	87800dd6 <func_int_to_str+0x12>

87800e34 <func_str_to_uint>:
87800e34:	b198      	cbz	r0, 87800e5e <func_str_to_uint+0x2a>
87800e36:	7801      	ldrb	r1, [r0, #0]
87800e38:	f1a1 0330 	sub.w	r3, r1, #48	; 0x30
87800e3c:	2b09      	cmp	r3, #9
87800e3e:	f04f 0300 	mov.w	r3, #0
87800e42:	d80a      	bhi.n	87800e5a <func_str_to_uint+0x26>
87800e44:	00da      	lsls	r2, r3, #3
87800e46:	eb02 0343 	add.w	r3, r2, r3, lsl #1
87800e4a:	440b      	add	r3, r1
87800e4c:	f810 1f01 	ldrb.w	r1, [r0, #1]!
87800e50:	3b30      	subs	r3, #48	; 0x30
87800e52:	f1a1 0230 	sub.w	r2, r1, #48	; 0x30
87800e56:	2a09      	cmp	r2, #9
87800e58:	d9f4      	bls.n	87800e44 <func_str_to_uint+0x10>
87800e5a:	4618      	mov	r0, r3
87800e5c:	4770      	bx	lr
87800e5e:	4603      	mov	r3, r0
87800e60:	4618      	mov	r0, r3
87800e62:	4770      	bx	lr

87800e64 <func_uint_to_str>:
87800e64:	b348      	cbz	r0, 87800eba <func_uint_to_str+0x56>
87800e66:	b331      	cbz	r1, 87800eb6 <func_uint_to_str+0x52>
87800e68:	b5f0      	push	{r4, r5, r6, r7, lr}
87800e6a:	f64c 4ecd 	movw	lr, #52429	; 0xcccd
87800e6e:	b085      	sub	sp, #20
87800e70:	2500      	movs	r5, #0
87800e72:	f6cc 4ecc 	movt	lr, #52428	; 0xcccc
87800e76:	fba1 670e 	umull	r6, r7, r1, lr
87800e7a:	aa04      	add	r2, sp, #16
87800e7c:	1956      	adds	r6, r2, r5
87800e7e:	1c6b      	adds	r3, r5, #1
87800e80:	b2db      	uxtb	r3, r3
87800e82:	461d      	mov	r5, r3
87800e84:	08fc      	lsrs	r4, r7, #3
87800e86:	00e2      	lsls	r2, r4, #3
87800e88:	eb02 0244 	add.w	r2, r2, r4, lsl #1
87800e8c:	1a8a      	subs	r2, r1, r2
87800e8e:	4621      	mov	r1, r4
87800e90:	f806 2c10 	strb.w	r2, [r6, #-16]
87800e94:	2c00      	cmp	r4, #0
87800e96:	d1ee      	bne.n	87800e76 <func_uint_to_str+0x12>
87800e98:	b15b      	cbz	r3, 87800eb2 <func_uint_to_str+0x4e>
87800e9a:	aa04      	add	r2, sp, #16
87800e9c:	441a      	add	r2, r3
87800e9e:	3b01      	subs	r3, #1
87800ea0:	f812 2c11 	ldrb.w	r2, [r2, #-17]
87800ea4:	f013 03ff 	ands.w	r3, r3, #255	; 0xff
87800ea8:	f102 0230 	add.w	r2, r2, #48	; 0x30
87800eac:	f800 2b01 	strb.w	r2, [r0], #1
87800eb0:	d1f3      	bne.n	87800e9a <func_uint_to_str+0x36>
87800eb2:	b005      	add	sp, #20
87800eb4:	bdf0      	pop	{r4, r5, r6, r7, pc}
87800eb6:	2330      	movs	r3, #48	; 0x30
87800eb8:	7003      	strb	r3, [r0, #0]
87800eba:	4770      	bx	lr

87800ebc <func_str_to_float>:
87800ebc:	2800      	cmp	r0, #0
87800ebe:	d055      	beq.n	87800f6c <func_str_to_float+0xb0>
87800ec0:	b410      	push	{r4}
87800ec2:	7802      	ldrb	r2, [r0, #0]
87800ec4:	2a2d      	cmp	r2, #45	; 0x2d
87800ec6:	d029      	beq.n	87800f1c <func_str_to_float+0x60>
87800ec8:	2a2b      	cmp	r2, #43	; 0x2b
87800eca:	bf03      	ittte	eq
87800ecc:	7842      	ldrbeq	r2, [r0, #1]
87800ece:	2400      	moveq	r4, #0
87800ed0:	3001      	addeq	r0, #1
87800ed2:	2400      	movne	r4, #0
87800ed4:	f1a2 0330 	sub.w	r3, r2, #48	; 0x30
87800ed8:	eddf 7a26 	vldr	s15, [pc, #152]	; 87800f74 <func_str_to_float+0xb8>
87800edc:	b2d9      	uxtb	r1, r3
87800ede:	2909      	cmp	r1, #9
87800ee0:	d810      	bhi.n	87800f04 <func_str_to_float+0x48>
87800ee2:	eef2 6a04 	vmov.f32	s13, #36	; 0x24
87800ee6:	ee07 3a10 	vmov	s14, r3
87800eea:	f810 2f01 	ldrb.w	r2, [r0, #1]!
87800eee:	eeb8 7ac7 	vcvt.f32.s32	s14, s14
87800ef2:	f1a2 0330 	sub.w	r3, r2, #48	; 0x30
87800ef6:	b2d9      	uxtb	r1, r3
87800ef8:	eea7 7aa6 	vfma.f32	s14, s15, s13
87800efc:	2909      	cmp	r1, #9
87800efe:	eef0 7a47 	vmov.f32	s15, s14
87800f02:	d9f0      	bls.n	87800ee6 <func_str_to_float+0x2a>
87800f04:	2a2e      	cmp	r2, #46	; 0x2e
87800f06:	d00d      	beq.n	87800f24 <func_str_to_float+0x68>
87800f08:	ed9f 0a1a 	vldr	s0, [pc, #104]	; 87800f74 <func_str_to_float+0xb8>
87800f0c:	ee37 0a80 	vadd.f32	s0, s15, s0
87800f10:	b10c      	cbz	r4, 87800f16 <func_str_to_float+0x5a>
87800f12:	eeb1 0a40 	vneg.f32	s0, s0
87800f16:	f85d 4b04 	ldr.w	r4, [sp], #4
87800f1a:	4770      	bx	lr
87800f1c:	2401      	movs	r4, #1
87800f1e:	7842      	ldrb	r2, [r0, #1]
87800f20:	4420      	add	r0, r4
87800f22:	e7d7      	b.n	87800ed4 <func_str_to_float+0x18>
87800f24:	7841      	ldrb	r1, [r0, #1]
87800f26:	1c42      	adds	r2, r0, #1
87800f28:	f1a1 0330 	sub.w	r3, r1, #48	; 0x30
87800f2c:	b2d9      	uxtb	r1, r3
87800f2e:	2909      	cmp	r1, #9
87800f30:	d8ea      	bhi.n	87800f08 <func_str_to_float+0x4c>
87800f32:	ed9f 7a10 	vldr	s14, [pc, #64]	; 87800f74 <func_str_to_float+0xb8>
87800f36:	3007      	adds	r0, #7
87800f38:	eeb7 0a00 	vmov.f32	s0, #112	; 0x70
87800f3c:	eef2 6a04 	vmov.f32	s13, #36	; 0x24
87800f40:	ee06 3a10 	vmov	s12, r3
87800f44:	f812 1f01 	ldrb.w	r1, [r2, #1]!
87800f48:	eeb8 6ac6 	vcvt.f32.s32	s12, s12
87800f4c:	ee20 0a26 	vmul.f32	s0, s0, s13
87800f50:	f1a1 0330 	sub.w	r3, r1, #48	; 0x30
87800f54:	b2d9      	uxtb	r1, r3
87800f56:	eea7 6a26 	vfma.f32	s12, s14, s13
87800f5a:	2909      	cmp	r1, #9
87800f5c:	eeb0 7a46 	vmov.f32	s14, s12
87800f60:	d801      	bhi.n	87800f66 <func_str_to_float+0xaa>
87800f62:	4282      	cmp	r2, r0
87800f64:	d1ec      	bne.n	87800f40 <func_str_to_float+0x84>
87800f66:	ee87 0a00 	vdiv.f32	s0, s14, s0
87800f6a:	e7cf      	b.n	87800f0c <func_str_to_float+0x50>
87800f6c:	ed9f 0a01 	vldr	s0, [pc, #4]	; 87800f74 <func_str_to_float+0xb8>
87800f70:	4770      	bx	lr
87800f72:	bf00      	nop
87800f74:	00000000 	andeq	r0, r0, r0

87800f78 <func_float_to_str>:
87800f78:	e92d 43f0 	stmdb	sp!, {r4, r5, r6, r7, r8, r9, lr}
87800f7c:	b08f      	sub	sp, #60	; 0x3c
87800f7e:	2800      	cmp	r0, #0
87800f80:	f000 8081 	beq.w	87801086 <func_float_to_str+0x10e>
87800f84:	eeb5 0ac0 	vcmpe.f32	s0, #0.0
87800f88:	eef1 fa10 	vmrs	APSR_nzcv, fpscr
87800f8c:	bf42      	ittt	mi
87800f8e:	232d      	movmi	r3, #45	; 0x2d
87800f90:	7003      	strbmi	r3, [r0, #0]
87800f92:	3001      	addmi	r0, #1
87800f94:	d404      	bmi.n	87800fa0 <func_float_to_str+0x28>
87800f96:	eeb5 0a40 	vcmp.f32	s0, #0.0
87800f9a:	eef1 fa10 	vmrs	APSR_nzcv, fpscr
87800f9e:	d075      	beq.n	8780108c <func_float_to_str+0x114>
87800fa0:	eefd 7ac0 	vcvt.s32.f32	s15, s0
87800fa4:	1e4e      	subs	r6, r1, #1
87800fa6:	b2f3      	uxtb	r3, r6
87800fa8:	ee17 7a90 	vmov	r7, s15
87800fac:	eef8 7ae7 	vcvt.f32.s32	s15, s15
87800fb0:	ee30 0a67 	vsub.f32	s0, s0, s15
87800fb4:	b139      	cbz	r1, 87800fc6 <func_float_to_str+0x4e>
87800fb6:	eef2 7a04 	vmov.f32	s15, #36	; 0x24
87800fba:	3b01      	subs	r3, #1
87800fbc:	ee20 0a27 	vmul.f32	s0, s0, s15
87800fc0:	b2db      	uxtb	r3, r3
87800fc2:	2bff      	cmp	r3, #255	; 0xff
87800fc4:	d1f9      	bne.n	87800fba <func_float_to_str+0x42>
87800fc6:	f246 6e67 	movw	lr, #26215	; 0x6667
87800fca:	2300      	movs	r3, #0
87800fcc:	f2c6 6e66 	movt	lr, #26214	; 0x6666
87800fd0:	fb87 890e 	smull	r8, r9, r7, lr
87800fd4:	17fc      	asrs	r4, r7, #31
87800fd6:	aa0e      	add	r2, sp, #56	; 0x38
87800fd8:	eb02 0c83 	add.w	ip, r2, r3, lsl #2
87800fdc:	1c5d      	adds	r5, r3, #1
87800fde:	b2ed      	uxtb	r5, r5
87800fe0:	ebc4 04a9 	rsb	r4, r4, r9, asr #2
87800fe4:	462b      	mov	r3, r5
87800fe6:	00e2      	lsls	r2, r4, #3
87800fe8:	eb02 0244 	add.w	r2, r2, r4, lsl #1
87800fec:	1aba      	subs	r2, r7, r2
87800fee:	4627      	mov	r7, r4
87800ff0:	f84c 2c20 	str.w	r2, [ip, #-32]
87800ff4:	2c00      	cmp	r4, #0
87800ff6:	d1eb      	bne.n	87800fd0 <func_float_to_str+0x58>
87800ff8:	b1a5      	cbz	r5, 87801024 <func_float_to_str+0xac>
87800ffa:	4604      	mov	r4, r0
87800ffc:	3b01      	subs	r3, #1
87800ffe:	aa0e      	add	r2, sp, #56	; 0x38
87801000:	eb02 0283 	add.w	r2, r2, r3, lsl #2
87801004:	f852 2c20 	ldr.w	r2, [r2, #-32]
87801008:	2a00      	cmp	r2, #0
8780100a:	bfb8      	it	lt
8780100c:	4252      	neglt	r2, r2
8780100e:	f013 03ff 	ands.w	r3, r3, #255	; 0xff
87801012:	f102 0230 	add.w	r2, r2, #48	; 0x30
87801016:	f804 2b01 	strb.w	r2, [r4], #1
8780101a:	d1ef      	bne.n	87800ffc <func_float_to_str+0x84>
8780101c:	3d01      	subs	r5, #1
8780101e:	b2ed      	uxtb	r5, r5
87801020:	3501      	adds	r5, #1
87801022:	4428      	add	r0, r5
87801024:	b379      	cbz	r1, 87801086 <func_float_to_str+0x10e>
87801026:	eefd 7ac0 	vcvt.s32.f32	s15, s0
8780102a:	222e      	movs	r2, #46	; 0x2e
8780102c:	7002      	strb	r2, [r0, #0]
8780102e:	ee17 3a90 	vmov	r3, s15
87801032:	b39b      	cbz	r3, 8780109c <func_float_to_str+0x124>
87801034:	f246 6767 	movw	r7, #26215	; 0x6667
87801038:	46ee      	mov	lr, sp
8780103a:	f2c6 6766 	movt	r7, #26214	; 0x6666
8780103e:	fb83 4507 	smull	r4, r5, r3, r7
87801042:	17dc      	asrs	r4, r3, #31
87801044:	3901      	subs	r1, #1
87801046:	f011 01ff 	ands.w	r1, r1, #255	; 0xff
8780104a:	ebc4 04a5 	rsb	r4, r4, r5, asr #2
8780104e:	ea4f 02c4 	mov.w	r2, r4, lsl #3
87801052:	eb02 0244 	add.w	r2, r2, r4, lsl #1
87801056:	eba3 0202 	sub.w	r2, r3, r2
8780105a:	4623      	mov	r3, r4
8780105c:	f84e 2b04 	str.w	r2, [lr], #4
87801060:	d1ed      	bne.n	8780103e <func_float_to_str+0xc6>
87801062:	3001      	adds	r0, #1
87801064:	ab0e      	add	r3, sp, #56	; 0x38
87801066:	eb03 0386 	add.w	r3, r3, r6, lsl #2
8780106a:	f853 3c38 	ldr.w	r3, [r3, #-56]
8780106e:	2b00      	cmp	r3, #0
87801070:	bfb8      	it	lt
87801072:	425b      	neglt	r3, r3
87801074:	f016 01ff 	ands.w	r1, r6, #255	; 0xff
87801078:	f103 0330 	add.w	r3, r3, #48	; 0x30
8780107c:	f101 36ff 	add.w	r6, r1, #4294967295	; 0xffffffff
87801080:	f800 3b01 	strb.w	r3, [r0], #1
87801084:	d1ee      	bne.n	87801064 <func_float_to_str+0xec>
87801086:	b00f      	add	sp, #60	; 0x3c
87801088:	e8bd 83f0 	ldmia.w	sp!, {r4, r5, r6, r7, r8, r9, pc}
8780108c:	2330      	movs	r3, #48	; 0x30
8780108e:	222e      	movs	r2, #46	; 0x2e
87801090:	7003      	strb	r3, [r0, #0]
87801092:	7083      	strb	r3, [r0, #2]
87801094:	7042      	strb	r2, [r0, #1]
87801096:	b00f      	add	sp, #60	; 0x3c
87801098:	e8bd 83f0 	ldmia.w	sp!, {r4, r5, r6, r7, r8, r9, pc}
8780109c:	2330      	movs	r3, #48	; 0x30
8780109e:	7043      	strb	r3, [r0, #1]
878010a0:	b00f      	add	sp, #60	; 0x3c
878010a2:	e8bd 83f0 	ldmia.w	sp!, {r4, r5, r6, r7, r8, r9, pc}
878010a6:	bf00      	nop

878010a8 <func_str_to_double>:
878010a8:	2800      	cmp	r0, #0
878010aa:	d055      	beq.n	87801158 <func_str_to_double+0xb0>
878010ac:	b410      	push	{r4}
878010ae:	7802      	ldrb	r2, [r0, #0]
878010b0:	2a2d      	cmp	r2, #45	; 0x2d
878010b2:	d029      	beq.n	87801108 <func_str_to_double+0x60>
878010b4:	2a2b      	cmp	r2, #43	; 0x2b
878010b6:	bf03      	ittte	eq
878010b8:	7842      	ldrbeq	r2, [r0, #1]
878010ba:	2400      	moveq	r4, #0
878010bc:	3001      	addeq	r0, #1
878010be:	2400      	movne	r4, #0
878010c0:	f1a2 0330 	sub.w	r3, r2, #48	; 0x30
878010c4:	eddf 0b26 	vldr	d16, [pc, #152]	; 87801160 <func_str_to_double+0xb8>
878010c8:	b2d9      	uxtb	r1, r3
878010ca:	2909      	cmp	r1, #9
878010cc:	d810      	bhi.n	878010f0 <func_str_to_double+0x48>
878010ce:	eef2 2b04 	vmov.f64	d18, #36	; 0x24
878010d2:	ee07 3a90 	vmov	s15, r3
878010d6:	eef8 1be7 	vcvt.f64.s32	d17, s15
878010da:	f810 2f01 	ldrb.w	r2, [r0, #1]!
878010de:	eee0 1ba2 	vfma.f64	d17, d16, d18
878010e2:	f1a2 0330 	sub.w	r3, r2, #48	; 0x30
878010e6:	b2d9      	uxtb	r1, r3
878010e8:	2909      	cmp	r1, #9
878010ea:	eef0 0b61 	vmov.f64	d16, d17
878010ee:	d9f0      	bls.n	878010d2 <func_str_to_double+0x2a>
878010f0:	2a2e      	cmp	r2, #46	; 0x2e
878010f2:	d00d      	beq.n	87801110 <func_str_to_double+0x68>
878010f4:	ed9f 0b1a 	vldr	d0, [pc, #104]	; 87801160 <func_str_to_double+0xb8>
878010f8:	ee30 0b80 	vadd.f64	d0, d16, d0
878010fc:	b10c      	cbz	r4, 87801102 <func_str_to_double+0x5a>
878010fe:	eeb1 0b40 	vneg.f64	d0, d0
87801102:	f85d 4b04 	ldr.w	r4, [sp], #4
87801106:	4770      	bx	lr
87801108:	2401      	movs	r4, #1
8780110a:	7842      	ldrb	r2, [r0, #1]
8780110c:	4420      	add	r0, r4
8780110e:	e7d7      	b.n	878010c0 <func_str_to_double+0x18>
87801110:	7841      	ldrb	r1, [r0, #1]
87801112:	1c42      	adds	r2, r0, #1
87801114:	f1a1 0330 	sub.w	r3, r1, #48	; 0x30
87801118:	b2d9      	uxtb	r1, r3
8780111a:	2909      	cmp	r1, #9
8780111c:	d8ea      	bhi.n	878010f4 <func_str_to_double+0x4c>
8780111e:	eddf 1b10 	vldr	d17, [pc, #64]	; 87801160 <func_str_to_double+0xb8>
87801122:	300a      	adds	r0, #10
87801124:	eeb7 0b00 	vmov.f64	d0, #112	; 0x70
87801128:	eef2 2b04 	vmov.f64	d18, #36	; 0x24
8780112c:	ee07 3a90 	vmov	s15, r3
87801130:	eef8 3be7 	vcvt.f64.s32	d19, s15
87801134:	f812 1f01 	ldrb.w	r1, [r2, #1]!
87801138:	ee20 0b22 	vmul.f64	d0, d0, d18
8780113c:	eee1 3ba2 	vfma.f64	d19, d17, d18
87801140:	f1a1 0330 	sub.w	r3, r1, #48	; 0x30
87801144:	b2d9      	uxtb	r1, r3
87801146:	2909      	cmp	r1, #9
87801148:	eef0 1b63 	vmov.f64	d17, d19
8780114c:	d801      	bhi.n	87801152 <func_str_to_double+0xaa>
8780114e:	4282      	cmp	r2, r0
87801150:	d1ec      	bne.n	8780112c <func_str_to_double+0x84>
87801152:	ee81 0b80 	vdiv.f64	d0, d17, d0
87801156:	e7cf      	b.n	878010f8 <func_str_to_double+0x50>
87801158:	ed9f 0b01 	vldr	d0, [pc, #4]	; 87801160 <func_str_to_double+0xb8>
8780115c:	4770      	bx	lr
8780115e:	bf00      	nop
	...

87801168 <func_double_to_str>:
87801168:	e92d 43f0 	stmdb	sp!, {r4, r5, r6, r7, r8, r9, lr}
8780116c:	b097      	sub	sp, #92	; 0x5c
8780116e:	2800      	cmp	r0, #0
87801170:	f000 8083 	beq.w	8780127a <func_double_to_str+0x112>
87801174:	eeb5 0bc0 	vcmpe.f64	d0, #0.0
87801178:	eef1 fa10 	vmrs	APSR_nzcv, fpscr
8780117c:	bf42      	ittt	mi
8780117e:	232d      	movmi	r3, #45	; 0x2d
87801180:	7003      	strbmi	r3, [r0, #0]
87801182:	3001      	addmi	r0, #1
87801184:	d404      	bmi.n	87801190 <func_double_to_str+0x28>
87801186:	eeb5 0b40 	vcmp.f64	d0, #0.0
8780118a:	eef1 fa10 	vmrs	APSR_nzcv, fpscr
8780118e:	d077      	beq.n	87801280 <func_double_to_str+0x118>
87801190:	eefd 7bc0 	vcvt.s32.f64	s15, d0
87801194:	f101 3eff 	add.w	lr, r1, #4294967295	; 0xffffffff
87801198:	fa5f fc8e 	uxtb.w	ip, lr
8780119c:	eef8 0be7 	vcvt.f64.s32	d16, s15
878011a0:	ee17 5a90 	vmov	r5, s15
878011a4:	ee30 0b60 	vsub.f64	d0, d0, d16
878011a8:	b141      	cbz	r1, 878011bc <func_double_to_str+0x54>
878011aa:	4663      	mov	r3, ip
878011ac:	eef2 0b04 	vmov.f64	d16, #36	; 0x24
878011b0:	3b01      	subs	r3, #1
878011b2:	ee20 0b20 	vmul.f64	d0, d0, d16
878011b6:	b2db      	uxtb	r3, r3
878011b8:	2bff      	cmp	r3, #255	; 0xff
878011ba:	d1f9      	bne.n	878011b0 <func_double_to_str+0x48>
878011bc:	f246 6867 	movw	r8, #26215	; 0x6667
878011c0:	2300      	movs	r3, #0
878011c2:	f2c6 6866 	movt	r8, #26214	; 0x6666
878011c6:	fb85 6708 	smull	r6, r7, r5, r8
878011ca:	17ec      	asrs	r4, r5, #31
878011cc:	aa16      	add	r2, sp, #88	; 0x58
878011ce:	eb02 0983 	add.w	r9, r2, r3, lsl #2
878011d2:	1c5e      	adds	r6, r3, #1
878011d4:	b2f6      	uxtb	r6, r6
878011d6:	ebc4 04a7 	rsb	r4, r4, r7, asr #2
878011da:	4633      	mov	r3, r6
878011dc:	00e2      	lsls	r2, r4, #3
878011de:	eb02 0244 	add.w	r2, r2, r4, lsl #1
878011e2:	1aaa      	subs	r2, r5, r2
878011e4:	4625      	mov	r5, r4
878011e6:	f849 2c30 	str.w	r2, [r9, #-48]
878011ea:	2c00      	cmp	r4, #0
878011ec:	d1eb      	bne.n	878011c6 <func_double_to_str+0x5e>
878011ee:	b1a6      	cbz	r6, 8780121a <func_double_to_str+0xb2>
878011f0:	4604      	mov	r4, r0
878011f2:	3b01      	subs	r3, #1
878011f4:	aa16      	add	r2, sp, #88	; 0x58
878011f6:	eb02 0283 	add.w	r2, r2, r3, lsl #2
878011fa:	f852 2c30 	ldr.w	r2, [r2, #-48]
878011fe:	2a00      	cmp	r2, #0
87801200:	bfb8      	it	lt
87801202:	4252      	neglt	r2, r2
87801204:	f013 03ff 	ands.w	r3, r3, #255	; 0xff
87801208:	f102 0230 	add.w	r2, r2, #48	; 0x30
8780120c:	f804 2b01 	strb.w	r2, [r4], #1
87801210:	d1ef      	bne.n	878011f2 <func_double_to_str+0x8a>
87801212:	3e01      	subs	r6, #1
87801214:	b2f6      	uxtb	r6, r6
87801216:	3601      	adds	r6, #1
87801218:	4430      	add	r0, r6
8780121a:	b371      	cbz	r1, 8780127a <func_double_to_str+0x112>
8780121c:	eefd 7bc0 	vcvt.s32.f64	s15, d0
87801220:	222e      	movs	r2, #46	; 0x2e
87801222:	7002      	strb	r2, [r0, #0]
87801224:	ee17 3a90 	vmov	r3, s15
87801228:	b393      	cbz	r3, 87801290 <func_double_to_str+0x128>
8780122a:	aa01      	add	r2, sp, #4
8780122c:	f246 6567 	movw	r5, #26215	; 0x6667
87801230:	eb02 0c8c 	add.w	ip, r2, ip, lsl #2
87801234:	f2c6 6566 	movt	r5, #26214	; 0x6666
87801238:	466c      	mov	r4, sp
8780123a:	fb83 6705 	smull	r6, r7, r3, r5
8780123e:	17d9      	asrs	r1, r3, #31
87801240:	ebc1 01a7 	rsb	r1, r1, r7, asr #2
87801244:	00ca      	lsls	r2, r1, #3
87801246:	eb02 0241 	add.w	r2, r2, r1, lsl #1
8780124a:	1a9a      	subs	r2, r3, r2
8780124c:	460b      	mov	r3, r1
8780124e:	f844 2f04 	str.w	r2, [r4, #4]!
87801252:	4564      	cmp	r4, ip
87801254:	d1f1      	bne.n	8780123a <func_double_to_str+0xd2>
87801256:	3001      	adds	r0, #1
87801258:	ab16      	add	r3, sp, #88	; 0x58
8780125a:	eb03 038e 	add.w	r3, r3, lr, lsl #2
8780125e:	f853 3c54 	ldr.w	r3, [r3, #-84]
87801262:	2b00      	cmp	r3, #0
87801264:	bfb8      	it	lt
87801266:	425b      	neglt	r3, r3
87801268:	f01e 01ff 	ands.w	r1, lr, #255	; 0xff
8780126c:	f103 0330 	add.w	r3, r3, #48	; 0x30
87801270:	f101 3eff 	add.w	lr, r1, #4294967295	; 0xffffffff
87801274:	f800 3b01 	strb.w	r3, [r0], #1
87801278:	d1ee      	bne.n	87801258 <func_double_to_str+0xf0>
8780127a:	b017      	add	sp, #92	; 0x5c
8780127c:	e8bd 83f0 	ldmia.w	sp!, {r4, r5, r6, r7, r8, r9, pc}
87801280:	2330      	movs	r3, #48	; 0x30
87801282:	222e      	movs	r2, #46	; 0x2e
87801284:	7003      	strb	r3, [r0, #0]
87801286:	7083      	strb	r3, [r0, #2]
87801288:	7042      	strb	r2, [r0, #1]
8780128a:	b017      	add	sp, #92	; 0x5c
8780128c:	e8bd 83f0 	ldmia.w	sp!, {r4, r5, r6, r7, r8, r9, pc}
87801290:	2330      	movs	r3, #48	; 0x30
87801292:	7043      	strb	r3, [r0, #1]
87801294:	b017      	add	sp, #92	; 0x5c
87801296:	e8bd 83f0 	ldmia.w	sp!, {r4, r5, r6, r7, r8, r9, pc}
8780129a:	bf00      	nop

8780129c <func_str_to_hex>:
8780129c:	b510      	push	{r4, lr}
8780129e:	4604      	mov	r4, r0
878012a0:	f005 fcba 	bl	87806c18 <strlen>
878012a4:	2c00      	cmp	r4, #0
878012a6:	d02e      	beq.n	87801306 <func_str_to_hex+0x6a>
878012a8:	2300      	movs	r3, #0
878012aa:	1e42      	subs	r2, r0, #1
878012ac:	4618      	mov	r0, r3
878012ae:	b1eb      	cbz	r3, 878012ec <func_str_to_hex+0x50>
878012b0:	7823      	ldrb	r3, [r4, #0]
878012b2:	f1a3 0161 	sub.w	r1, r3, #97	; 0x61
878012b6:	2905      	cmp	r1, #5
878012b8:	bf9c      	itt	ls
878012ba:	3b57      	subls	r3, #87	; 0x57
878012bc:	b2db      	uxtbls	r3, r3
878012be:	d90a      	bls.n	878012d6 <func_str_to_hex+0x3a>
878012c0:	f1a3 0141 	sub.w	r1, r3, #65	; 0x41
878012c4:	2905      	cmp	r1, #5
878012c6:	bf9c      	itt	ls
878012c8:	3b37      	subls	r3, #55	; 0x37
878012ca:	b2db      	uxtbls	r3, r3
878012cc:	d903      	bls.n	878012d6 <func_str_to_hex+0x3a>
878012ce:	3b30      	subs	r3, #48	; 0x30
878012d0:	b2db      	uxtb	r3, r3
878012d2:	2b09      	cmp	r3, #9
878012d4:	d809      	bhi.n	878012ea <func_str_to_hex+0x4e>
878012d6:	ea43 1000 	orr.w	r0, r3, r0, lsl #4
878012da:	2301      	movs	r3, #1
878012dc:	1c51      	adds	r1, r2, #1
878012de:	f104 0401 	add.w	r4, r4, #1
878012e2:	d00f      	beq.n	87801304 <func_str_to_hex+0x68>
878012e4:	3a01      	subs	r2, #1
878012e6:	2c00      	cmp	r4, #0
878012e8:	d1e1      	bne.n	878012ae <func_str_to_hex+0x12>
878012ea:	bd10      	pop	{r4, pc}
878012ec:	7821      	ldrb	r1, [r4, #0]
878012ee:	2930      	cmp	r1, #48	; 0x30
878012f0:	d1f4      	bne.n	878012dc <func_str_to_hex+0x40>
878012f2:	7861      	ldrb	r1, [r4, #1]
878012f4:	2978      	cmp	r1, #120	; 0x78
878012f6:	bf04      	itt	eq
878012f8:	3401      	addeq	r4, #1
878012fa:	2301      	moveq	r3, #1
878012fc:	1c51      	adds	r1, r2, #1
878012fe:	f104 0401 	add.w	r4, r4, #1
87801302:	d1ef      	bne.n	878012e4 <func_str_to_hex+0x48>
87801304:	bd10      	pop	{r4, pc}
87801306:	4620      	mov	r0, r4
87801308:	e7ef      	b.n	878012ea <func_str_to_hex+0x4e>
8780130a:	bf00      	nop

8780130c <func_hex_to_str>:
8780130c:	f64d 33ec 	movw	r3, #56300	; 0xdbec
87801310:	b5f0      	push	{r4, r5, r6, r7, lr}
87801312:	f2c8 7380 	movt	r3, #34688	; 0x8780
87801316:	4605      	mov	r5, r0
87801318:	460c      	mov	r4, r1
8780131a:	b089      	sub	sp, #36	; 0x24
8780131c:	689a      	ldr	r2, [r3, #8]
8780131e:	f04f 0e78 	mov.w	lr, #120	; 0x78
87801322:	6818      	ldr	r0, [r3, #0]
87801324:	ae04      	add	r6, sp, #16
87801326:	6859      	ldr	r1, [r3, #4]
87801328:	2730      	movs	r7, #48	; 0x30
8780132a:	68db      	ldr	r3, [r3, #12]
8780132c:	f885 e001 	strb.w	lr, [r5, #1]
87801330:	702f      	strb	r7, [r5, #0]
87801332:	c60f      	stmia	r6!, {r0, r1, r2, r3}
87801334:	2200      	movs	r2, #0
87801336:	b1e4      	cbz	r4, 87801372 <func_hex_to_str+0x66>
87801338:	a908      	add	r1, sp, #32
8780133a:	1c53      	adds	r3, r2, #1
8780133c:	440a      	add	r2, r1
8780133e:	f004 010f 	and.w	r1, r4, #15
87801342:	0924      	lsrs	r4, r4, #4
87801344:	b2db      	uxtb	r3, r3
87801346:	f802 1c1c 	strb.w	r1, [r2, #-28]
8780134a:	461a      	mov	r2, r3
8780134c:	d1f4      	bne.n	87801338 <func_hex_to_str+0x2c>
8780134e:	b173      	cbz	r3, 8780136e <func_hex_to_str+0x62>
87801350:	1ca8      	adds	r0, r5, #2
87801352:	aa08      	add	r2, sp, #32
87801354:	a908      	add	r1, sp, #32
87801356:	441a      	add	r2, r3
87801358:	3b01      	subs	r3, #1
8780135a:	f912 2c1d 	ldrsb.w	r2, [r2, #-29]
8780135e:	f013 03ff 	ands.w	r3, r3, #255	; 0xff
87801362:	440a      	add	r2, r1
87801364:	f812 2c10 	ldrb.w	r2, [r2, #-16]
87801368:	f800 2b01 	strb.w	r2, [r0], #1
8780136c:	d1f1      	bne.n	87801352 <func_hex_to_str+0x46>
8780136e:	b009      	add	sp, #36	; 0x24
87801370:	bdf0      	pop	{r4, r5, r6, r7, pc}
87801372:	70af      	strb	r7, [r5, #2]
87801374:	b009      	add	sp, #36	; 0x24
87801376:	bdf0      	pop	{r4, r5, r6, r7, pc}

87801378 <ap3216c_write_one_byte>:
87801378:	b530      	push	{r4, r5, lr}
8780137a:	b089      	sub	sp, #36	; 0x24
8780137c:	f88d 0008 	strb.w	r0, [sp, #8]
87801380:	2000      	movs	r0, #0
87801382:	2301      	movs	r3, #1
87801384:	2400      	movs	r4, #0
87801386:	9104      	str	r1, [sp, #16]
87801388:	f10d 0507 	add.w	r5, sp, #7
8780138c:	a902      	add	r1, sp, #8
8780138e:	f2c0 201a 	movt	r0, #538	; 0x21a
87801392:	9506      	str	r5, [sp, #24]
87801394:	f88d 2007 	strb.w	r2, [sp, #7]
87801398:	9403      	str	r4, [sp, #12]
8780139a:	f88d 3014 	strb.w	r3, [sp, #20]
8780139e:	9307      	str	r3, [sp, #28]
878013a0:	f002 f9b8 	bl	87803714 <iic_master_transfer>
878013a4:	1b00      	subs	r0, r0, r4
878013a6:	bf18      	it	ne
878013a8:	2001      	movne	r0, #1
878013aa:	b009      	add	sp, #36	; 0x24
878013ac:	bd30      	pop	{r4, r5, pc}
878013ae:	bf00      	nop

878013b0 <ap3216c_read_one_byte>:
878013b0:	b510      	push	{r4, lr}
878013b2:	b088      	sub	sp, #32
878013b4:	f88d 0008 	strb.w	r0, [sp, #8]
878013b8:	2000      	movs	r0, #0
878013ba:	2301      	movs	r3, #1
878013bc:	2200      	movs	r2, #0
878013be:	9104      	str	r1, [sp, #16]
878013c0:	f10d 0407 	add.w	r4, sp, #7
878013c4:	a902      	add	r1, sp, #8
878013c6:	f2c0 201a 	movt	r0, #538	; 0x21a
878013ca:	9406      	str	r4, [sp, #24]
878013cc:	f88d 2007 	strb.w	r2, [sp, #7]
878013d0:	9303      	str	r3, [sp, #12]
878013d2:	f88d 3014 	strb.w	r3, [sp, #20]
878013d6:	9307      	str	r3, [sp, #28]
878013d8:	f002 f99c 	bl	87803714 <iic_master_transfer>
878013dc:	f89d 0007 	ldrb.w	r0, [sp, #7]
878013e0:	b008      	add	sp, #32
878013e2:	bd10      	pop	{r4, pc}

878013e4 <ap3216c_init>:
878013e4:	b5f0      	push	{r4, r5, r6, r7, lr}
878013e6:	f64d 34fc 	movw	r4, #56316	; 0xdbfc
878013ea:	f2c8 7480 	movt	r4, #34688	; 0x8780
878013ee:	b08f      	sub	sp, #60	; 0x3c
878013f0:	4625      	mov	r5, r4
878013f2:	f247 07b0 	movw	r7, #28848	; 0x70b0
878013f6:	cd0f      	ldmia	r5!, {r0, r1, r2, r3}
878013f8:	ae04      	add	r6, sp, #16
878013fa:	3414      	adds	r4, #20
878013fc:	9702      	str	r7, [sp, #8]
878013fe:	682d      	ldr	r5, [r5, #0]
87801400:	c60f      	stmia	r6!, {r0, r1, r2, r3}
87801402:	2601      	movs	r6, #1
87801404:	e88d 0060 	stmia.w	sp, {r5, r6}
87801408:	ad09      	add	r5, sp, #36	; 0x24
8780140a:	f001 ffff 	bl	8780340c <iomuxc_set>
8780140e:	cc0f      	ldmia	r4!, {r0, r1, r2, r3}
87801410:	9702      	str	r7, [sp, #8]
87801412:	9601      	str	r6, [sp, #4]
87801414:	6824      	ldr	r4, [r4, #0]
87801416:	c50f      	stmia	r5!, {r0, r1, r2, r3}
87801418:	9400      	str	r4, [sp, #0]
8780141a:	f001 fff7 	bl	8780340c <iomuxc_set>
8780141e:	0431      	lsls	r1, r6, #16
87801420:	2000      	movs	r0, #0
87801422:	f2c0 201a 	movt	r0, #538	; 0x21a
87801426:	f441 4106 	orr.w	r1, r1, #34304	; 0x8600
8780142a:	f041 01a0 	orr.w	r1, r1, #160	; 0xa0
8780142e:	f002 f847 	bl	878034c0 <iic_init>
87801432:	2204      	movs	r2, #4
87801434:	2100      	movs	r1, #0
87801436:	201e      	movs	r0, #30
87801438:	f7ff ff9e 	bl	87801378 <ap3216c_write_one_byte>
8780143c:	2132      	movs	r1, #50	; 0x32
8780143e:	f44f 707a 	mov.w	r0, #1000	; 0x3e8
87801442:	f001 fd85 	bl	87802f50 <system_delay>
87801446:	2203      	movs	r2, #3
87801448:	2100      	movs	r1, #0
8780144a:	201e      	movs	r0, #30
8780144c:	f7ff ff94 	bl	87801378 <ap3216c_write_one_byte>
87801450:	2100      	movs	r1, #0
87801452:	201e      	movs	r0, #30
87801454:	f7ff ffac 	bl	878013b0 <ap3216c_read_one_byte>
87801458:	3803      	subs	r0, #3
8780145a:	bf18      	it	ne
8780145c:	2001      	movne	r0, #1
8780145e:	b00f      	add	sp, #60	; 0x3c
87801460:	bdf0      	pop	{r4, r5, r6, r7, pc}
87801462:	bf00      	nop

87801464 <ap3216c_read_data>:
87801464:	e92d 41f0 	stmdb	sp!, {r4, r5, r6, r7, r8, lr}
87801468:	b082      	sub	sp, #8
8780146a:	4680      	mov	r8, r0
8780146c:	460e      	mov	r6, r1
8780146e:	4617      	mov	r7, r2
87801470:	466d      	mov	r5, sp
87801472:	240a      	movs	r4, #10
87801474:	4621      	mov	r1, r4
87801476:	3401      	adds	r4, #1
87801478:	b2e4      	uxtb	r4, r4
8780147a:	201e      	movs	r0, #30
8780147c:	f7ff ff98 	bl	878013b0 <ap3216c_read_one_byte>
87801480:	2c10      	cmp	r4, #16
87801482:	f805 0b01 	strb.w	r0, [r5], #1
87801486:	d1f5      	bne.n	87801474 <ap3216c_read_data+0x10>
87801488:	f89d 3000 	ldrb.w	r3, [sp]
8780148c:	0619      	lsls	r1, r3, #24
8780148e:	f89d 1003 	ldrb.w	r1, [sp, #3]
87801492:	bf5b      	ittet	pl
87801494:	f89d 2001 	ldrbpl.w	r2, [sp, #1]
87801498:	f003 0303 	andpl.w	r3, r3, #3
8780149c:	2300      	movmi	r3, #0
8780149e:	ea43 0382 	orrpl.w	r3, r3, r2, lsl #2
878014a2:	f89d 2002 	ldrb.w	r2, [sp, #2]
878014a6:	f8a8 3000 	strh.w	r3, [r8]
878014aa:	f89d 3004 	ldrb.w	r3, [sp, #4]
878014ae:	ea42 2201 	orr.w	r2, r2, r1, lsl #8
878014b2:	803a      	strh	r2, [r7, #0]
878014b4:	065a      	lsls	r2, r3, #25
878014b6:	bf5b      	ittet	pl
878014b8:	f89d 2005 	ldrbpl.w	r2, [sp, #5]
878014bc:	f003 030f 	andpl.w	r3, r3, #15
878014c0:	2300      	movmi	r3, #0
878014c2:	f002 023f 	andpl.w	r2, r2, #63	; 0x3f
878014c6:	bf58      	it	pl
878014c8:	ea43 1302 	orrpl.w	r3, r3, r2, lsl #4
878014cc:	8033      	strh	r3, [r6, #0]
878014ce:	b002      	add	sp, #8
878014d0:	e8bd 81f0 	ldmia.w	sp!, {r4, r5, r6, r7, r8, pc}

878014d4 <icm20608_read_registers>:
878014d4:	e92d 41f0 	stmdb	sp!, {r4, r5, r6, r7, r8, lr}
878014d8:	4606      	mov	r6, r0
878014da:	2034      	movs	r0, #52	; 0x34
878014dc:	460f      	mov	r7, r1
878014de:	4690      	mov	r8, r2
878014e0:	f001 fe4a 	bl	87803178 <get_port>
878014e4:	4605      	mov	r5, r0
878014e6:	2000      	movs	r0, #0
878014e8:	682c      	ldr	r4, [r5, #0]
878014ea:	4643      	mov	r3, r8
878014ec:	463a      	mov	r2, r7
878014ee:	f046 0180 	orr.w	r1, r6, #128	; 0x80
878014f2:	f2c0 2001 	movt	r0, #513	; 0x201
878014f6:	f424 1480 	bic.w	r4, r4, #1048576	; 0x100000
878014fa:	602c      	str	r4, [r5, #0]
878014fc:	f002 ff58 	bl	878043b0 <spi_transfer_8bit_registers>
87801500:	2034      	movs	r0, #52	; 0x34
87801502:	f001 fe39 	bl	87803178 <get_port>
87801506:	6803      	ldr	r3, [r0, #0]
87801508:	f443 1380 	orr.w	r3, r3, #1048576	; 0x100000
8780150c:	6003      	str	r3, [r0, #0]
8780150e:	e8bd 81f0 	ldmia.w	sp!, {r4, r5, r6, r7, r8, pc}
87801512:	bf00      	nop

87801514 <icm20608_write_register>:
87801514:	b570      	push	{r4, r5, r6, lr}
87801516:	4605      	mov	r5, r0
87801518:	2034      	movs	r0, #52	; 0x34
8780151a:	460e      	mov	r6, r1
8780151c:	f001 fe2c 	bl	87803178 <get_port>
87801520:	4604      	mov	r4, r0
87801522:	2000      	movs	r0, #0
87801524:	6823      	ldr	r3, [r4, #0]
87801526:	4632      	mov	r2, r6
87801528:	f005 017f 	and.w	r1, r5, #127	; 0x7f
8780152c:	f2c0 2001 	movt	r0, #513	; 0x201
87801530:	f423 1380 	bic.w	r3, r3, #1048576	; 0x100000
87801534:	6023      	str	r3, [r4, #0]
87801536:	f002 ff1d 	bl	87804374 <spi_transfer_8bit_register>
8780153a:	2034      	movs	r0, #52	; 0x34
8780153c:	f001 fe1c 	bl	87803178 <get_port>
87801540:	6803      	ldr	r3, [r0, #0]
87801542:	f443 1380 	orr.w	r3, r3, #1048576	; 0x100000
87801546:	6003      	str	r3, [r0, #0]
87801548:	bd70      	pop	{r4, r5, r6, pc}
8780154a:	bf00      	nop

8780154c <icm20608_get_acc>:
8780154c:	b5f0      	push	{r4, r5, r6, r7, lr}
8780154e:	b083      	sub	sp, #12
87801550:	4669      	mov	r1, sp
87801552:	2208      	movs	r2, #8
87801554:	203b      	movs	r0, #59	; 0x3b
87801556:	f7ff ffbd 	bl	878014d4 <icm20608_read_registers>
8780155a:	f89d 1001 	ldrb.w	r1, [sp, #1]
8780155e:	f24e 531c 	movw	r3, #58652	; 0xe51c
87801562:	f89d 5000 	ldrb.w	r5, [sp]
87801566:	f24f 2298 	movw	r2, #62104	; 0xf298
8780156a:	f89d e002 	ldrb.w	lr, [sp, #2]
8780156e:	f2c8 7380 	movt	r3, #34688	; 0x8780
87801572:	f89d 4003 	ldrb.w	r4, [sp, #3]
87801576:	f2c8 7280 	movt	r2, #34688	; 0x8780
8780157a:	f89d 7004 	ldrb.w	r7, [sp, #4]
8780157e:	ea41 2505 	orr.w	r5, r1, r5, lsl #8
87801582:	f89d 0005 	ldrb.w	r0, [sp, #5]
87801586:	f89d 6006 	ldrb.w	r6, [sp, #6]
8780158a:	f89d 1007 	ldrb.w	r1, [sp, #7]
8780158e:	ea44 240e 	orr.w	r4, r4, lr, lsl #8
87801592:	801d      	strh	r5, [r3, #0]
87801594:	ea40 2007 	orr.w	r0, r0, r7, lsl #8
87801598:	805c      	strh	r4, [r3, #2]
8780159a:	ea41 2106 	orr.w	r1, r1, r6, lsl #8
8780159e:	8098      	strh	r0, [r3, #4]
878015a0:	8011      	strh	r1, [r2, #0]
878015a2:	b003      	add	sp, #12
878015a4:	bdf0      	pop	{r4, r5, r6, r7, pc}
878015a6:	bf00      	nop

878015a8 <icm20608_get_gyro>:
878015a8:	b570      	push	{r4, r5, r6, lr}
878015aa:	b082      	sub	sp, #8
878015ac:	4669      	mov	r1, sp
878015ae:	2206      	movs	r2, #6
878015b0:	2043      	movs	r0, #67	; 0x43
878015b2:	f7ff ff8f 	bl	878014d4 <icm20608_read_registers>
878015b6:	f89d 6000 	ldrb.w	r6, [sp]
878015ba:	f24e 531c 	movw	r3, #58652	; 0xe51c
878015be:	f89d 0001 	ldrb.w	r0, [sp, #1]
878015c2:	f2c8 7380 	movt	r3, #34688	; 0x8780
878015c6:	f89d 5002 	ldrb.w	r5, [sp, #2]
878015ca:	f89d 1003 	ldrb.w	r1, [sp, #3]
878015ce:	f89d 4004 	ldrb.w	r4, [sp, #4]
878015d2:	f89d 2005 	ldrb.w	r2, [sp, #5]
878015d6:	ea40 2006 	orr.w	r0, r0, r6, lsl #8
878015da:	ea41 2105 	orr.w	r1, r1, r5, lsl #8
878015de:	80d8      	strh	r0, [r3, #6]
878015e0:	ea42 2204 	orr.w	r2, r2, r4, lsl #8
878015e4:	8119      	strh	r1, [r3, #8]
878015e6:	815a      	strh	r2, [r3, #10]
878015e8:	b002      	add	sp, #8
878015ea:	bd70      	pop	{r4, r5, r6, pc}

878015ec <icm20608_acc_transition>:
878015ec:	ee00 0a10 	vmov	s0, r0
878015f0:	eeba 0aea 	vcvt.f32.s32	s0, s0, #11
878015f4:	4770      	bx	lr
878015f6:	bf00      	nop

878015f8 <icm20608_gyro_transition>:
878015f8:	ee07 0a90 	vmov	s15, r0
878015fc:	eeb8 0ae7 	vcvt.f32.s32	s0, s15
87801600:	eddf 7a02 	vldr	s15, [pc, #8]	; 8780160c <icm20608_gyro_transition+0x14>
87801604:	ee80 0a27 	vdiv.f32	s0, s0, s15
87801608:	4770      	bx	lr
8780160a:	bf00      	nop
8780160c:	41833333 	orrmi	r3, r3, r3, lsr r3

87801610 <icm20608_init>:
87801610:	e92d 43f0 	stmdb	sp!, {r4, r5, r6, r7, r8, r9, lr}
87801614:	f64d 4524 	movw	r5, #56356	; 0xdc24
87801618:	f2c8 7580 	movt	r5, #34688	; 0x8780
8780161c:	b099      	sub	sp, #100	; 0x64
8780161e:	f04f 0800 	mov.w	r8, #0
87801622:	f241 09b1 	movw	r9, #4273	; 0x10b1
87801626:	cd0f      	ldmia	r5!, {r0, r1, r2, r3}
87801628:	af04      	add	r7, sp, #16
8780162a:	f44f 7480 	mov.w	r4, #256	; 0x100
8780162e:	f8cd 9008 	str.w	r9, [sp, #8]
87801632:	f8cd 8004 	str.w	r8, [sp, #4]
87801636:	462e      	mov	r6, r5
87801638:	c70f      	stmia	r7!, {r0, r1, r2, r3}
8780163a:	f856 cb04 	ldr.w	ip, [r6], #4
8780163e:	f8cd c000 	str.w	ip, [sp]
87801642:	f8c7 c000 	str.w	ip, [r7]
87801646:	af09      	add	r7, sp, #36	; 0x24
87801648:	f001 fee0 	bl	8780340c <iomuxc_set>
8780164c:	ce0f      	ldmia	r6!, {r0, r1, r2, r3}
8780164e:	f8cd 9008 	str.w	r9, [sp, #8]
87801652:	f8cd 8004 	str.w	r8, [sp, #4]
87801656:	6836      	ldr	r6, [r6, #0]
87801658:	c70f      	stmia	r7!, {r0, r1, r2, r3}
8780165a:	9600      	str	r6, [sp, #0]
8780165c:	603e      	str	r6, [r7, #0]
8780165e:	f105 0718 	add.w	r7, r5, #24
87801662:	f001 fed3 	bl	8780340c <iomuxc_set>
87801666:	cf0f      	ldmia	r7!, {r0, r1, r2, r3}
87801668:	ae0e      	add	r6, sp, #56	; 0x38
8780166a:	352c      	adds	r5, #44	; 0x2c
8780166c:	f8cd 9008 	str.w	r9, [sp, #8]
87801670:	f8cd 8004 	str.w	r8, [sp, #4]
87801674:	683f      	ldr	r7, [r7, #0]
87801676:	c60f      	stmia	r6!, {r0, r1, r2, r3}
87801678:	9700      	str	r7, [sp, #0]
8780167a:	6037      	str	r7, [r6, #0]
8780167c:	ae13      	add	r6, sp, #76	; 0x4c
8780167e:	f001 fec5 	bl	8780340c <iomuxc_set>
87801682:	cd0f      	ldmia	r5!, {r0, r1, r2, r3}
87801684:	f241 0eb0 	movw	lr, #4272	; 0x10b0
87801688:	f8cd e008 	str.w	lr, [sp, #8]
8780168c:	f8cd 8004 	str.w	r8, [sp, #4]
87801690:	682d      	ldr	r5, [r5, #0]
87801692:	c60f      	stmia	r6!, {r0, r1, r2, r3}
87801694:	9500      	str	r5, [sp, #0]
87801696:	6035      	str	r5, [r6, #0]
87801698:	f001 feb8 	bl	8780340c <iomuxc_set>
8780169c:	4642      	mov	r2, r8
8780169e:	2101      	movs	r1, #1
878016a0:	2034      	movs	r0, #52	; 0x34
878016a2:	f001 fe6d 	bl	87803380 <gpio_init>
878016a6:	4640      	mov	r0, r8
878016a8:	f648 5180 	movw	r1, #36224	; 0x8d80
878016ac:	f2c0 015b 	movt	r1, #91	; 0x5b
878016b0:	f2c0 2001 	movt	r0, #513	; 0x201
878016b4:	f002 feaa 	bl	8780440c <spi_init>
878016b8:	2180      	movs	r1, #128	; 0x80
878016ba:	206b      	movs	r0, #107	; 0x6b
878016bc:	f7ff ff2a 	bl	87801514 <icm20608_write_register>
878016c0:	2132      	movs	r1, #50	; 0x32
878016c2:	f44f 707a 	mov.w	r0, #1000	; 0x3e8
878016c6:	f001 fc43 	bl	87802f50 <system_delay>
878016ca:	2101      	movs	r1, #1
878016cc:	206b      	movs	r0, #107	; 0x6b
878016ce:	f7ff ff21 	bl	87801514 <icm20608_write_register>
878016d2:	2132      	movs	r1, #50	; 0x32
878016d4:	f44f 707a 	mov.w	r0, #1000	; 0x3e8
878016d8:	f001 fc3a 	bl	87802f50 <system_delay>
878016dc:	2034      	movs	r0, #52	; 0x34
878016de:	f001 fd4b 	bl	87803178 <get_port>
878016e2:	4605      	mov	r5, r0
878016e4:	4640      	mov	r0, r8
878016e6:	682b      	ldr	r3, [r5, #0]
878016e8:	22ff      	movs	r2, #255	; 0xff
878016ea:	21f5      	movs	r1, #245	; 0xf5
878016ec:	f2c0 2001 	movt	r0, #513	; 0x201
878016f0:	f423 1380 	bic.w	r3, r3, #1048576	; 0x100000
878016f4:	602b      	str	r3, [r5, #0]
878016f6:	f002 fe3d 	bl	87804374 <spi_transfer_8bit_register>
878016fa:	4605      	mov	r5, r0
878016fc:	2034      	movs	r0, #52	; 0x34
878016fe:	f001 fd3b 	bl	87803178 <get_port>
87801702:	4602      	mov	r2, r0
87801704:	f64d 4074 	movw	r0, #56436	; 0xdc74
87801708:	6813      	ldr	r3, [r2, #0]
8780170a:	4629      	mov	r1, r5
8780170c:	f2c8 7080 	movt	r0, #34688	; 0x8780
87801710:	f443 1380 	orr.w	r3, r3, #1048576	; 0x100000
87801714:	6013      	str	r3, [r2, #0]
87801716:	f005 f961 	bl	878069dc <printf>
8780171a:	e020      	b.n	8780175e <icm20608_init+0x14e>
8780171c:	f001 fd2c 	bl	87803178 <get_port>
87801720:	4605      	mov	r5, r0
87801722:	2000      	movs	r0, #0
87801724:	682b      	ldr	r3, [r5, #0]
87801726:	22ff      	movs	r2, #255	; 0xff
87801728:	21f5      	movs	r1, #245	; 0xf5
8780172a:	f2c0 2001 	movt	r0, #513	; 0x201
8780172e:	3c01      	subs	r4, #1
87801730:	f423 1380 	bic.w	r3, r3, #1048576	; 0x100000
87801734:	b2a4      	uxth	r4, r4
87801736:	602b      	str	r3, [r5, #0]
87801738:	f002 fe1c 	bl	87804374 <spi_transfer_8bit_register>
8780173c:	4605      	mov	r5, r0
8780173e:	2034      	movs	r0, #52	; 0x34
87801740:	f001 fd1a 	bl	87803178 <get_port>
87801744:	4602      	mov	r2, r0
87801746:	f64d 4074 	movw	r0, #56436	; 0xdc74
8780174a:	6813      	ldr	r3, [r2, #0]
8780174c:	4629      	mov	r1, r5
8780174e:	f2c8 7080 	movt	r0, #34688	; 0x8780
87801752:	f443 1380 	orr.w	r3, r3, #1048576	; 0x100000
87801756:	6013      	str	r3, [r2, #0]
87801758:	f005 f940 	bl	878069dc <printf>
8780175c:	b384      	cbz	r4, 878017c0 <icm20608_init+0x1b0>
8780175e:	f105 0352 	add.w	r3, r5, #82	; 0x52
87801762:	2034      	movs	r0, #52	; 0x34
87801764:	b2db      	uxtb	r3, r3
87801766:	2b01      	cmp	r3, #1
87801768:	d8d8      	bhi.n	8780171c <icm20608_init+0x10c>
8780176a:	f64d 4074 	movw	r0, #56436	; 0xdc74
8780176e:	4629      	mov	r1, r5
87801770:	f2c8 7080 	movt	r0, #34688	; 0x8780
87801774:	f005 f932 	bl	878069dc <printf>
87801778:	2100      	movs	r1, #0
8780177a:	206c      	movs	r0, #108	; 0x6c
8780177c:	f7ff feca 	bl	87801514 <icm20608_write_register>
87801780:	2104      	movs	r1, #4
87801782:	201a      	movs	r0, #26
87801784:	f7ff fec6 	bl	87801514 <icm20608_write_register>
87801788:	2104      	movs	r1, #4
8780178a:	201d      	movs	r0, #29
8780178c:	f7ff fec2 	bl	87801514 <icm20608_write_register>
87801790:	2100      	movs	r1, #0
87801792:	2019      	movs	r0, #25
87801794:	f7ff febe 	bl	87801514 <icm20608_write_register>
87801798:	2118      	movs	r1, #24
8780179a:	201b      	movs	r0, #27
8780179c:	f7ff feba 	bl	87801514 <icm20608_write_register>
878017a0:	2118      	movs	r1, #24
878017a2:	201c      	movs	r0, #28
878017a4:	f7ff feb6 	bl	87801514 <icm20608_write_register>
878017a8:	2100      	movs	r1, #0
878017aa:	201e      	movs	r0, #30
878017ac:	f7ff feb2 	bl	87801514 <icm20608_write_register>
878017b0:	2100      	movs	r1, #0
878017b2:	2023      	movs	r0, #35	; 0x23
878017b4:	f7ff feae 	bl	87801514 <icm20608_write_register>
878017b8:	2000      	movs	r0, #0
878017ba:	b019      	add	sp, #100	; 0x64
878017bc:	e8bd 83f0 	ldmia.w	sp!, {r4, r5, r6, r7, r8, r9, pc}
878017c0:	f64d 4088 	movw	r0, #56456	; 0xdc88
878017c4:	f2c8 7080 	movt	r0, #34688	; 0x8780
878017c8:	f005 f908 	bl	878069dc <printf>
878017cc:	2001      	movs	r0, #1
878017ce:	b019      	add	sp, #100	; 0x64
878017d0:	e8bd 83f0 	ldmia.w	sp!, {r4, r5, r6, r7, r8, r9, pc}

878017d4 <key_scanner>:
878017d4:	b570      	push	{r4, r5, r6, lr}
878017d6:	f24e 5428 	movw	r4, #58664	; 0xe528
878017da:	f2c8 7480 	movt	r4, #34688	; 0x8780
878017de:	6823      	ldr	r3, [r4, #0]
878017e0:	2b03      	cmp	r3, #3
878017e2:	d818      	bhi.n	87801816 <key_scanner+0x42>
878017e4:	e8df f003 	tbb	[pc, r3]
878017e8:	12021827 	andne	r1, r2, #2555904	; 0x270000
878017ec:	6865      	ldr	r5, [r4, #4]
878017ee:	f44f 60fa 	mov.w	r0, #2000	; 0x7d0
878017f2:	68a1      	ldr	r1, [r4, #8]
878017f4:	f24e 5628 	movw	r6, #58664	; 0xe528
878017f8:	f2c8 7680 	movt	r6, #34688	; 0x8780
878017fc:	3501      	adds	r5, #1
878017fe:	6065      	str	r5, [r4, #4]
87801800:	f006 fd0e 	bl	87808220 <__aeabi_uidiv>
87801804:	4285      	cmp	r5, r0
87801806:	bf24      	itt	cs
87801808:	2303      	movcs	r3, #3
8780180a:	6033      	strcs	r3, [r6, #0]
8780180c:	2032      	movs	r0, #50	; 0x32
8780180e:	f001 fd15 	bl	8780323c <gpio_get_level>
87801812:	2801      	cmp	r0, #1
87801814:	d024      	beq.n	87801860 <key_scanner+0x8c>
87801816:	bd70      	pop	{r4, r5, r6, pc}
87801818:	2032      	movs	r0, #50	; 0x32
8780181a:	f001 fd0f 	bl	8780323c <gpio_get_level>
8780181e:	2801      	cmp	r0, #1
87801820:	d01e      	beq.n	87801860 <key_scanner+0x8c>
87801822:	6865      	ldr	r5, [r4, #4]
87801824:	200a      	movs	r0, #10
87801826:	68a1      	ldr	r1, [r4, #8]
87801828:	3501      	adds	r5, #1
8780182a:	6065      	str	r5, [r4, #4]
8780182c:	f006 fcf8 	bl	87808220 <__aeabi_uidiv>
87801830:	4285      	cmp	r5, r0
87801832:	d219      	bcs.n	87801868 <key_scanner+0x94>
87801834:	bd70      	pop	{r4, r5, r6, pc}
87801836:	2032      	movs	r0, #50	; 0x32
87801838:	f001 fd00 	bl	8780323c <gpio_get_level>
8780183c:	2801      	cmp	r0, #1
8780183e:	d0ea      	beq.n	87801816 <key_scanner+0x42>
87801840:	6865      	ldr	r5, [r4, #4]
87801842:	200a      	movs	r0, #10
87801844:	68a1      	ldr	r1, [r4, #8]
87801846:	f24e 5628 	movw	r6, #58664	; 0xe528
8780184a:	f2c8 7680 	movt	r6, #34688	; 0x8780
8780184e:	3501      	adds	r5, #1
87801850:	6065      	str	r5, [r4, #4]
87801852:	f006 fce5 	bl	87808220 <__aeabi_uidiv>
87801856:	4285      	cmp	r5, r0
87801858:	d206      	bcs.n	87801868 <key_scanner+0x94>
8780185a:	2301      	movs	r3, #1
8780185c:	6033      	str	r3, [r6, #0]
8780185e:	bd70      	pop	{r4, r5, r6, pc}
87801860:	2300      	movs	r3, #0
87801862:	6023      	str	r3, [r4, #0]
87801864:	6063      	str	r3, [r4, #4]
87801866:	bd70      	pop	{r4, r5, r6, pc}
87801868:	2302      	movs	r3, #2
8780186a:	6023      	str	r3, [r4, #0]
8780186c:	bd70      	pop	{r4, r5, r6, pc}
8780186e:	bf00      	nop

87801870 <key_get_state>:
87801870:	f24e 5328 	movw	r3, #58664	; 0xe528
87801874:	f2c8 7380 	movt	r3, #34688	; 0x8780
87801878:	f853 0020 	ldr.w	r0, [r3, r0, lsl #2]
8780187c:	4770      	bx	lr
8780187e:	bf00      	nop

87801880 <key_init>:
87801880:	b510      	push	{r4, lr}
87801882:	2201      	movs	r2, #1
87801884:	4604      	mov	r4, r0
87801886:	2100      	movs	r1, #0
87801888:	2032      	movs	r0, #50	; 0x32
8780188a:	f001 fd79 	bl	87803380 <gpio_init>
8780188e:	f24e 5328 	movw	r3, #58664	; 0xe528
87801892:	2200      	movs	r2, #0
87801894:	f2c8 7380 	movt	r3, #34688	; 0x8780
87801898:	4610      	mov	r0, r2
8780189a:	609c      	str	r4, [r3, #8]
8780189c:	601a      	str	r2, [r3, #0]
8780189e:	bd10      	pop	{r4, pc}

878018a0 <tft_lcd_read_panelid>:
878018a0:	b5f0      	push	{r4, r5, r6, r7, lr}
878018a2:	f64d 44a0 	movw	r4, #56480	; 0xdca0
878018a6:	f2c8 7480 	movt	r4, #34688	; 0x8780
878018aa:	b099      	sub	sp, #100	; 0x64
878018ac:	f241 05b0 	movw	r5, #4272	; 0x10b0
878018b0:	2600      	movs	r6, #0
878018b2:	cc0f      	ldmia	r4!, {r0, r1, r2, r3}
878018b4:	f10d 0e10 	add.w	lr, sp, #16
878018b8:	f24f 0780 	movw	r7, #61568	; 0xf080
878018bc:	9502      	str	r5, [sp, #8]
878018be:	9601      	str	r6, [sp, #4]
878018c0:	4625      	mov	r5, r4
878018c2:	e8ae 000f 	stmia.w	lr!, {r0, r1, r2, r3}
878018c6:	f855 eb04 	ldr.w	lr, [r5], #4
878018ca:	f8cd e000 	str.w	lr, [sp]
878018ce:	f001 fd9d 	bl	8780340c <iomuxc_set>
878018d2:	2201      	movs	r2, #1
878018d4:	2063      	movs	r0, #99	; 0x63
878018d6:	4611      	mov	r1, r2
878018d8:	f001 fd52 	bl	87803380 <gpio_init>
878018dc:	cd0f      	ldmia	r5!, {r0, r1, r2, r3}
878018de:	f10d 0e24 	add.w	lr, sp, #36	; 0x24
878018e2:	9601      	str	r6, [sp, #4]
878018e4:	9702      	str	r7, [sp, #8]
878018e6:	682d      	ldr	r5, [r5, #0]
878018e8:	e8ae 000f 	stmia.w	lr!, {r0, r1, r2, r3}
878018ec:	9500      	str	r5, [sp, #0]
878018ee:	f104 0518 	add.w	r5, r4, #24
878018f2:	f001 fd8b 	bl	8780340c <iomuxc_set>
878018f6:	cd0f      	ldmia	r5!, {r0, r1, r2, r3}
878018f8:	f10d 0e38 	add.w	lr, sp, #56	; 0x38
878018fc:	342c      	adds	r4, #44	; 0x2c
878018fe:	9702      	str	r7, [sp, #8]
87801900:	9601      	str	r6, [sp, #4]
87801902:	682d      	ldr	r5, [r5, #0]
87801904:	e8ae 000f 	stmia.w	lr!, {r0, r1, r2, r3}
87801908:	9500      	str	r5, [sp, #0]
8780190a:	ad13      	add	r5, sp, #76	; 0x4c
8780190c:	f001 fd7e 	bl	8780340c <iomuxc_set>
87801910:	cc0f      	ldmia	r4!, {r0, r1, r2, r3}
87801912:	9702      	str	r7, [sp, #8]
87801914:	9601      	str	r6, [sp, #4]
87801916:	6824      	ldr	r4, [r4, #0]
87801918:	c50f      	stmia	r5!, {r0, r1, r2, r3}
8780191a:	9400      	str	r4, [sp, #0]
8780191c:	f001 fd76 	bl	8780340c <iomuxc_set>
87801920:	4631      	mov	r1, r6
87801922:	2201      	movs	r2, #1
87801924:	206c      	movs	r0, #108	; 0x6c
87801926:	f001 fd2b 	bl	87803380 <gpio_init>
8780192a:	4631      	mov	r1, r6
8780192c:	2201      	movs	r2, #1
8780192e:	2074      	movs	r0, #116	; 0x74
87801930:	f001 fd26 	bl	87803380 <gpio_init>
87801934:	4631      	mov	r1, r6
87801936:	2201      	movs	r2, #1
87801938:	207c      	movs	r0, #124	; 0x7c
8780193a:	f001 fd21 	bl	87803380 <gpio_init>
8780193e:	207c      	movs	r0, #124	; 0x7c
87801940:	f001 fc7c 	bl	8780323c <gpio_get_level>
87801944:	4604      	mov	r4, r0
87801946:	2074      	movs	r0, #116	; 0x74
87801948:	f001 fc78 	bl	8780323c <gpio_get_level>
8780194c:	4605      	mov	r5, r0
8780194e:	206c      	movs	r0, #108	; 0x6c
87801950:	f001 fc74 	bl	8780323c <gpio_get_level>
87801954:	0080      	lsls	r0, r0, #2
87801956:	ea40 0045 	orr.w	r0, r0, r5, lsl #1
8780195a:	4320      	orrs	r0, r4
8780195c:	f010 00ff 	ands.w	r0, r0, #255	; 0xff
87801960:	bf08      	it	eq
87801962:	f244 3042 	movweq	r0, #17218	; 0x4342
87801966:	d101      	bne.n	8780196c <tft_lcd_read_panelid+0xcc>
87801968:	b019      	add	sp, #100	; 0x64
8780196a:	bdf0      	pop	{r4, r5, r6, r7, pc}
8780196c:	2801      	cmp	r0, #1
8780196e:	bf08      	it	eq
87801970:	f247 0084 	movweq	r0, #28804	; 0x7084
87801974:	d0f8      	beq.n	87801968 <tft_lcd_read_panelid+0xc8>
87801976:	2802      	cmp	r0, #2
87801978:	bf08      	it	eq
8780197a:	f247 0016 	movweq	r0, #28694	; 0x7016
8780197e:	d0f3      	beq.n	87801968 <tft_lcd_read_panelid+0xc8>
87801980:	2804      	cmp	r0, #4
87801982:	bf08      	it	eq
87801984:	f244 3084 	movweq	r0, #17284	; 0x4384
87801988:	d0ee      	beq.n	87801968 <tft_lcd_read_panelid+0xc8>
8780198a:	2805      	cmp	r0, #5
8780198c:	bf08      	it	eq
8780198e:	f241 0018 	movweq	r0, #4120	; 0x1018
87801992:	d0e9      	beq.n	87801968 <tft_lcd_read_panelid+0xc8>
87801994:	2807      	cmp	r0, #7
87801996:	bf0c      	ite	eq
87801998:	f44f 407f 	moveq.w	r0, #65280	; 0xff00
8780199c:	4630      	movne	r0, r6
8780199e:	e7e3      	b.n	87801968 <tft_lcd_read_panelid+0xc8>

878019a0 <tft_lcd_gpio_init>:
878019a0:	b5f0      	push	{r4, r5, r6, r7, lr}
878019a2:	f64d 44a0 	movw	r4, #56480	; 0xdca0
878019a6:	f2c8 7480 	movt	r4, #34688	; 0x8780
878019aa:	f5ad 7d17 	sub.w	sp, sp, #604	; 0x25c
878019ae:	f104 0750 	add.w	r7, r4, #80	; 0x50
878019b2:	f10d 0c14 	add.w	ip, sp, #20
878019b6:	cf0f      	ldmia	r7!, {r0, r1, r2, r3}
878019b8:	26b9      	movs	r6, #185	; 0xb9
878019ba:	2500      	movs	r5, #0
878019bc:	46e6      	mov	lr, ip
878019be:	9602      	str	r6, [sp, #8]
878019c0:	9501      	str	r5, [sp, #4]
878019c2:	683f      	ldr	r7, [r7, #0]
878019c4:	e8ae 000f 	stmia.w	lr!, {r0, r1, r2, r3}
878019c8:	9700      	str	r7, [sp, #0]
878019ca:	f104 0764 	add.w	r7, r4, #100	; 0x64
878019ce:	f001 fd1d 	bl	8780340c <iomuxc_set>
878019d2:	cf0f      	ldmia	r7!, {r0, r1, r2, r3}
878019d4:	f10d 0c28 	add.w	ip, sp, #40	; 0x28
878019d8:	46e6      	mov	lr, ip
878019da:	9602      	str	r6, [sp, #8]
878019dc:	9501      	str	r5, [sp, #4]
878019de:	683f      	ldr	r7, [r7, #0]
878019e0:	e8ae 000f 	stmia.w	lr!, {r0, r1, r2, r3}
878019e4:	9700      	str	r7, [sp, #0]
878019e6:	f104 0778 	add.w	r7, r4, #120	; 0x78
878019ea:	f001 fd0f 	bl	8780340c <iomuxc_set>
878019ee:	cf0f      	ldmia	r7!, {r0, r1, r2, r3}
878019f0:	f10d 0c3c 	add.w	ip, sp, #60	; 0x3c
878019f4:	46e6      	mov	lr, ip
878019f6:	9602      	str	r6, [sp, #8]
878019f8:	9501      	str	r5, [sp, #4]
878019fa:	683f      	ldr	r7, [r7, #0]
878019fc:	e8ae 000f 	stmia.w	lr!, {r0, r1, r2, r3}
87801a00:	9700      	str	r7, [sp, #0]
87801a02:	f104 078c 	add.w	r7, r4, #140	; 0x8c
87801a06:	f001 fd01 	bl	8780340c <iomuxc_set>
87801a0a:	cf0f      	ldmia	r7!, {r0, r1, r2, r3}
87801a0c:	f10d 0c50 	add.w	ip, sp, #80	; 0x50
87801a10:	46e6      	mov	lr, ip
87801a12:	9602      	str	r6, [sp, #8]
87801a14:	9501      	str	r5, [sp, #4]
87801a16:	683f      	ldr	r7, [r7, #0]
87801a18:	e8ae 000f 	stmia.w	lr!, {r0, r1, r2, r3}
87801a1c:	9700      	str	r7, [sp, #0]
87801a1e:	f104 07a0 	add.w	r7, r4, #160	; 0xa0
87801a22:	f001 fcf3 	bl	8780340c <iomuxc_set>
87801a26:	cf0f      	ldmia	r7!, {r0, r1, r2, r3}
87801a28:	f10d 0c64 	add.w	ip, sp, #100	; 0x64
87801a2c:	46e6      	mov	lr, ip
87801a2e:	9602      	str	r6, [sp, #8]
87801a30:	9501      	str	r5, [sp, #4]
87801a32:	683f      	ldr	r7, [r7, #0]
87801a34:	e8ae 000f 	stmia.w	lr!, {r0, r1, r2, r3}
87801a38:	9700      	str	r7, [sp, #0]
87801a3a:	f104 07b4 	add.w	r7, r4, #180	; 0xb4
87801a3e:	f001 fce5 	bl	8780340c <iomuxc_set>
87801a42:	cf0f      	ldmia	r7!, {r0, r1, r2, r3}
87801a44:	f10d 0c78 	add.w	ip, sp, #120	; 0x78
87801a48:	46e6      	mov	lr, ip
87801a4a:	9602      	str	r6, [sp, #8]
87801a4c:	9501      	str	r5, [sp, #4]
87801a4e:	683f      	ldr	r7, [r7, #0]
87801a50:	e8ae 000f 	stmia.w	lr!, {r0, r1, r2, r3}
87801a54:	9700      	str	r7, [sp, #0]
87801a56:	f104 07c8 	add.w	r7, r4, #200	; 0xc8
87801a5a:	f001 fcd7 	bl	8780340c <iomuxc_set>
87801a5e:	cf0f      	ldmia	r7!, {r0, r1, r2, r3}
87801a60:	f10d 0c8c 	add.w	ip, sp, #140	; 0x8c
87801a64:	46e6      	mov	lr, ip
87801a66:	9602      	str	r6, [sp, #8]
87801a68:	9501      	str	r5, [sp, #4]
87801a6a:	683f      	ldr	r7, [r7, #0]
87801a6c:	e8ae 000f 	stmia.w	lr!, {r0, r1, r2, r3}
87801a70:	9700      	str	r7, [sp, #0]
87801a72:	f104 07dc 	add.w	r7, r4, #220	; 0xdc
87801a76:	f001 fcc9 	bl	8780340c <iomuxc_set>
87801a7a:	cf0f      	ldmia	r7!, {r0, r1, r2, r3}
87801a7c:	f10d 0ca0 	add.w	ip, sp, #160	; 0xa0
87801a80:	46e6      	mov	lr, ip
87801a82:	9602      	str	r6, [sp, #8]
87801a84:	9501      	str	r5, [sp, #4]
87801a86:	683f      	ldr	r7, [r7, #0]
87801a88:	e8ae 000f 	stmia.w	lr!, {r0, r1, r2, r3}
87801a8c:	9700      	str	r7, [sp, #0]
87801a8e:	f104 07f0 	add.w	r7, r4, #240	; 0xf0
87801a92:	f001 fcbb 	bl	8780340c <iomuxc_set>
87801a96:	cf0f      	ldmia	r7!, {r0, r1, r2, r3}
87801a98:	f10d 0cb4 	add.w	ip, sp, #180	; 0xb4
87801a9c:	46e6      	mov	lr, ip
87801a9e:	9602      	str	r6, [sp, #8]
87801aa0:	9501      	str	r5, [sp, #4]
87801aa2:	683f      	ldr	r7, [r7, #0]
87801aa4:	e8ae 000f 	stmia.w	lr!, {r0, r1, r2, r3}
87801aa8:	9700      	str	r7, [sp, #0]
87801aaa:	f504 7782 	add.w	r7, r4, #260	; 0x104
87801aae:	f001 fcad 	bl	8780340c <iomuxc_set>
87801ab2:	cf0f      	ldmia	r7!, {r0, r1, r2, r3}
87801ab4:	f10d 0cc8 	add.w	ip, sp, #200	; 0xc8
87801ab8:	46e6      	mov	lr, ip
87801aba:	9602      	str	r6, [sp, #8]
87801abc:	9501      	str	r5, [sp, #4]
87801abe:	683f      	ldr	r7, [r7, #0]
87801ac0:	e8ae 000f 	stmia.w	lr!, {r0, r1, r2, r3}
87801ac4:	9700      	str	r7, [sp, #0]
87801ac6:	f504 778c 	add.w	r7, r4, #280	; 0x118
87801aca:	f001 fc9f 	bl	8780340c <iomuxc_set>
87801ace:	cf0f      	ldmia	r7!, {r0, r1, r2, r3}
87801ad0:	f10d 0cdc 	add.w	ip, sp, #220	; 0xdc
87801ad4:	46e6      	mov	lr, ip
87801ad6:	9602      	str	r6, [sp, #8]
87801ad8:	9501      	str	r5, [sp, #4]
87801ada:	683f      	ldr	r7, [r7, #0]
87801adc:	e8ae 000f 	stmia.w	lr!, {r0, r1, r2, r3}
87801ae0:	9700      	str	r7, [sp, #0]
87801ae2:	f504 7796 	add.w	r7, r4, #300	; 0x12c
87801ae6:	f001 fc91 	bl	8780340c <iomuxc_set>
87801aea:	cf0f      	ldmia	r7!, {r0, r1, r2, r3}
87801aec:	f10d 0cf0 	add.w	ip, sp, #240	; 0xf0
87801af0:	46e6      	mov	lr, ip
87801af2:	9602      	str	r6, [sp, #8]
87801af4:	9501      	str	r5, [sp, #4]
87801af6:	683f      	ldr	r7, [r7, #0]
87801af8:	e8ae 000f 	stmia.w	lr!, {r0, r1, r2, r3}
87801afc:	9700      	str	r7, [sp, #0]
87801afe:	f504 77a0 	add.w	r7, r4, #320	; 0x140
87801b02:	f001 fc83 	bl	8780340c <iomuxc_set>
87801b06:	cf0f      	ldmia	r7!, {r0, r1, r2, r3}
87801b08:	f50d 7c82 	add.w	ip, sp, #260	; 0x104
87801b0c:	46e6      	mov	lr, ip
87801b0e:	9602      	str	r6, [sp, #8]
87801b10:	9501      	str	r5, [sp, #4]
87801b12:	683f      	ldr	r7, [r7, #0]
87801b14:	e8ae 000f 	stmia.w	lr!, {r0, r1, r2, r3}
87801b18:	9700      	str	r7, [sp, #0]
87801b1a:	f504 77aa 	add.w	r7, r4, #340	; 0x154
87801b1e:	f001 fc75 	bl	8780340c <iomuxc_set>
87801b22:	cf0f      	ldmia	r7!, {r0, r1, r2, r3}
87801b24:	f50d 7c8c 	add.w	ip, sp, #280	; 0x118
87801b28:	46e6      	mov	lr, ip
87801b2a:	9602      	str	r6, [sp, #8]
87801b2c:	9501      	str	r5, [sp, #4]
87801b2e:	683f      	ldr	r7, [r7, #0]
87801b30:	e8ae 000f 	stmia.w	lr!, {r0, r1, r2, r3}
87801b34:	9700      	str	r7, [sp, #0]
87801b36:	f504 77b4 	add.w	r7, r4, #360	; 0x168
87801b3a:	f001 fc67 	bl	8780340c <iomuxc_set>
87801b3e:	cf0f      	ldmia	r7!, {r0, r1, r2, r3}
87801b40:	f50d 7c96 	add.w	ip, sp, #300	; 0x12c
87801b44:	46e6      	mov	lr, ip
87801b46:	9602      	str	r6, [sp, #8]
87801b48:	9501      	str	r5, [sp, #4]
87801b4a:	683f      	ldr	r7, [r7, #0]
87801b4c:	e8ae 000f 	stmia.w	lr!, {r0, r1, r2, r3}
87801b50:	9700      	str	r7, [sp, #0]
87801b52:	f504 77be 	add.w	r7, r4, #380	; 0x17c
87801b56:	f001 fc59 	bl	8780340c <iomuxc_set>
87801b5a:	cf0f      	ldmia	r7!, {r0, r1, r2, r3}
87801b5c:	f50d 7ca0 	add.w	ip, sp, #320	; 0x140
87801b60:	46e6      	mov	lr, ip
87801b62:	9602      	str	r6, [sp, #8]
87801b64:	9501      	str	r5, [sp, #4]
87801b66:	683f      	ldr	r7, [r7, #0]
87801b68:	e8ae 000f 	stmia.w	lr!, {r0, r1, r2, r3}
87801b6c:	9700      	str	r7, [sp, #0]
87801b6e:	f504 77c8 	add.w	r7, r4, #400	; 0x190
87801b72:	f001 fc4b 	bl	8780340c <iomuxc_set>
87801b76:	cf0f      	ldmia	r7!, {r0, r1, r2, r3}
87801b78:	f50d 7caa 	add.w	ip, sp, #340	; 0x154
87801b7c:	46e6      	mov	lr, ip
87801b7e:	9602      	str	r6, [sp, #8]
87801b80:	9501      	str	r5, [sp, #4]
87801b82:	683f      	ldr	r7, [r7, #0]
87801b84:	e8ae 000f 	stmia.w	lr!, {r0, r1, r2, r3}
87801b88:	9700      	str	r7, [sp, #0]
87801b8a:	f504 77d2 	add.w	r7, r4, #420	; 0x1a4
87801b8e:	f001 fc3d 	bl	8780340c <iomuxc_set>
87801b92:	cf0f      	ldmia	r7!, {r0, r1, r2, r3}
87801b94:	f50d 7eb4 	add.w	lr, sp, #360	; 0x168
87801b98:	9602      	str	r6, [sp, #8]
87801b9a:	9501      	str	r5, [sp, #4]
87801b9c:	683f      	ldr	r7, [r7, #0]
87801b9e:	e8ae 000f 	stmia.w	lr!, {r0, r1, r2, r3}
87801ba2:	9700      	str	r7, [sp, #0]
87801ba4:	f504 77dc 	add.w	r7, r4, #440	; 0x1b8
87801ba8:	f001 fc30 	bl	8780340c <iomuxc_set>
87801bac:	cf0f      	ldmia	r7!, {r0, r1, r2, r3}
87801bae:	f50d 7ebe 	add.w	lr, sp, #380	; 0x17c
87801bb2:	9602      	str	r6, [sp, #8]
87801bb4:	9501      	str	r5, [sp, #4]
87801bb6:	683f      	ldr	r7, [r7, #0]
87801bb8:	e8ae 000f 	stmia.w	lr!, {r0, r1, r2, r3}
87801bbc:	9700      	str	r7, [sp, #0]
87801bbe:	f504 77e6 	add.w	r7, r4, #460	; 0x1cc
87801bc2:	f001 fc23 	bl	8780340c <iomuxc_set>
87801bc6:	cf0f      	ldmia	r7!, {r0, r1, r2, r3}
87801bc8:	f50d 7ec8 	add.w	lr, sp, #400	; 0x190
87801bcc:	9602      	str	r6, [sp, #8]
87801bce:	9501      	str	r5, [sp, #4]
87801bd0:	683f      	ldr	r7, [r7, #0]
87801bd2:	e8ae 000f 	stmia.w	lr!, {r0, r1, r2, r3}
87801bd6:	9700      	str	r7, [sp, #0]
87801bd8:	f504 77f0 	add.w	r7, r4, #480	; 0x1e0
87801bdc:	f001 fc16 	bl	8780340c <iomuxc_set>
87801be0:	cf0f      	ldmia	r7!, {r0, r1, r2, r3}
87801be2:	f50d 7ed2 	add.w	lr, sp, #420	; 0x1a4
87801be6:	9602      	str	r6, [sp, #8]
87801be8:	9501      	str	r5, [sp, #4]
87801bea:	683f      	ldr	r7, [r7, #0]
87801bec:	e8ae 000f 	stmia.w	lr!, {r0, r1, r2, r3}
87801bf0:	9700      	str	r7, [sp, #0]
87801bf2:	f504 77fa 	add.w	r7, r4, #500	; 0x1f4
87801bf6:	f001 fc09 	bl	8780340c <iomuxc_set>
87801bfa:	cf0f      	ldmia	r7!, {r0, r1, r2, r3}
87801bfc:	f50d 7edc 	add.w	lr, sp, #440	; 0x1b8
87801c00:	9602      	str	r6, [sp, #8]
87801c02:	9501      	str	r5, [sp, #4]
87801c04:	683f      	ldr	r7, [r7, #0]
87801c06:	e8ae 000f 	stmia.w	lr!, {r0, r1, r2, r3}
87801c0a:	9700      	str	r7, [sp, #0]
87801c0c:	f504 7702 	add.w	r7, r4, #520	; 0x208
87801c10:	f001 fbfc 	bl	8780340c <iomuxc_set>
87801c14:	cf0f      	ldmia	r7!, {r0, r1, r2, r3}
87801c16:	f50d 7ee6 	add.w	lr, sp, #460	; 0x1cc
87801c1a:	9602      	str	r6, [sp, #8]
87801c1c:	9501      	str	r5, [sp, #4]
87801c1e:	683f      	ldr	r7, [r7, #0]
87801c20:	e8ae 000f 	stmia.w	lr!, {r0, r1, r2, r3}
87801c24:	9700      	str	r7, [sp, #0]
87801c26:	f504 7707 	add.w	r7, r4, #540	; 0x21c
87801c2a:	f001 fbef 	bl	8780340c <iomuxc_set>
87801c2e:	cf0f      	ldmia	r7!, {r0, r1, r2, r3}
87801c30:	f50d 7ef0 	add.w	lr, sp, #480	; 0x1e0
87801c34:	9602      	str	r6, [sp, #8]
87801c36:	9501      	str	r5, [sp, #4]
87801c38:	683f      	ldr	r7, [r7, #0]
87801c3a:	e8ae 000f 	stmia.w	lr!, {r0, r1, r2, r3}
87801c3e:	9700      	str	r7, [sp, #0]
87801c40:	f504 770c 	add.w	r7, r4, #560	; 0x230
87801c44:	f001 fbe2 	bl	8780340c <iomuxc_set>
87801c48:	cf0f      	ldmia	r7!, {r0, r1, r2, r3}
87801c4a:	f50d 7efa 	add.w	lr, sp, #500	; 0x1f4
87801c4e:	9602      	str	r6, [sp, #8]
87801c50:	9501      	str	r5, [sp, #4]
87801c52:	683f      	ldr	r7, [r7, #0]
87801c54:	e8ae 000f 	stmia.w	lr!, {r0, r1, r2, r3}
87801c58:	9700      	str	r7, [sp, #0]
87801c5a:	f504 7711 	add.w	r7, r4, #580	; 0x244
87801c5e:	f001 fbd5 	bl	8780340c <iomuxc_set>
87801c62:	cf0f      	ldmia	r7!, {r0, r1, r2, r3}
87801c64:	f50d 7e02 	add.w	lr, sp, #520	; 0x208
87801c68:	9602      	str	r6, [sp, #8]
87801c6a:	9501      	str	r5, [sp, #4]
87801c6c:	683f      	ldr	r7, [r7, #0]
87801c6e:	e8ae 000f 	stmia.w	lr!, {r0, r1, r2, r3}
87801c72:	9700      	str	r7, [sp, #0]
87801c74:	f504 7716 	add.w	r7, r4, #600	; 0x258
87801c78:	f001 fbc8 	bl	8780340c <iomuxc_set>
87801c7c:	cf0f      	ldmia	r7!, {r0, r1, r2, r3}
87801c7e:	f50d 7e07 	add.w	lr, sp, #540	; 0x21c
87801c82:	9602      	str	r6, [sp, #8]
87801c84:	9501      	str	r5, [sp, #4]
87801c86:	683f      	ldr	r7, [r7, #0]
87801c88:	e8ae 000f 	stmia.w	lr!, {r0, r1, r2, r3}
87801c8c:	9700      	str	r7, [sp, #0]
87801c8e:	f504 771b 	add.w	r7, r4, #620	; 0x26c
87801c92:	f001 fbbb 	bl	8780340c <iomuxc_set>
87801c96:	cf0f      	ldmia	r7!, {r0, r1, r2, r3}
87801c98:	f50d 7e0c 	add.w	lr, sp, #560	; 0x230
87801c9c:	f504 7420 	add.w	r4, r4, #640	; 0x280
87801ca0:	9602      	str	r6, [sp, #8]
87801ca2:	9501      	str	r5, [sp, #4]
87801ca4:	683f      	ldr	r7, [r7, #0]
87801ca6:	e8ae 000f 	stmia.w	lr!, {r0, r1, r2, r3}
87801caa:	9700      	str	r7, [sp, #0]
87801cac:	af91      	add	r7, sp, #580	; 0x244
87801cae:	f001 fbad 	bl	8780340c <iomuxc_set>
87801cb2:	cc0f      	ldmia	r4!, {r0, r1, r2, r3}
87801cb4:	9602      	str	r6, [sp, #8]
87801cb6:	9501      	str	r5, [sp, #4]
87801cb8:	6824      	ldr	r4, [r4, #0]
87801cba:	c70f      	stmia	r7!, {r0, r1, r2, r3}
87801cbc:	9400      	str	r4, [sp, #0]
87801cbe:	f001 fba5 	bl	8780340c <iomuxc_set>
87801cc2:	2201      	movs	r2, #1
87801cc4:	2028      	movs	r0, #40	; 0x28
87801cc6:	4611      	mov	r1, r2
87801cc8:	f50d 7d17 	add.w	sp, sp, #604	; 0x25c
87801ccc:	e8bd 40f0 	ldmia.w	sp!, {r4, r5, r6, r7, lr}
87801cd0:	f001 bb56 	b.w	87803380 <gpio_init>

87801cd4 <tft_lcd_clk_init>:
87801cd4:	b430      	push	{r4, r5}
87801cd6:	f44f 4400 	mov.w	r4, #32768	; 0x8000
87801cda:	f2c0 240c 	movt	r4, #524	; 0x20c
87801cde:	2500      	movs	r5, #0
87801ce0:	f440 1081 	orr.w	r0, r0, #1056768	; 0x102000
87801ce4:	f44f 4380 	mov.w	r3, #16384	; 0x4000
87801ce8:	f8c4 50b0 	str.w	r5, [r4, #176]	; 0xb0
87801cec:	f2c0 230c 	movt	r3, #524	; 0x20c
87801cf0:	f8c4 50c0 	str.w	r5, [r4, #192]	; 0xc0
87801cf4:	3901      	subs	r1, #1
87801cf6:	f8c4 00a0 	str.w	r0, [r4, #160]	; 0xa0
87801cfa:	3a01      	subs	r2, #1
87801cfc:	f8d4 0170 	ldr.w	r0, [r4, #368]	; 0x170
87801d00:	f020 4040 	bic.w	r0, r0, #3221225472	; 0xc0000000
87801d04:	f8c4 0170 	str.w	r0, [r4, #368]	; 0x170
87801d08:	f8c4 5170 	str.w	r5, [r4, #368]	; 0x170
87801d0c:	6b98      	ldr	r0, [r3, #56]	; 0x38
87801d0e:	bc30      	pop	{r4, r5}
87801d10:	f420 3060 	bic.w	r0, r0, #229376	; 0x38000
87801d14:	6398      	str	r0, [r3, #56]	; 0x38
87801d16:	6b98      	ldr	r0, [r3, #56]	; 0x38
87801d18:	f440 3080 	orr.w	r0, r0, #65536	; 0x10000
87801d1c:	6398      	str	r0, [r3, #56]	; 0x38
87801d1e:	6b98      	ldr	r0, [r3, #56]	; 0x38
87801d20:	f420 40e0 	bic.w	r0, r0, #28672	; 0x7000
87801d24:	6398      	str	r0, [r3, #56]	; 0x38
87801d26:	6b98      	ldr	r0, [r3, #56]	; 0x38
87801d28:	ea40 3101 	orr.w	r1, r0, r1, lsl #12
87801d2c:	6399      	str	r1, [r3, #56]	; 0x38
87801d2e:	6999      	ldr	r1, [r3, #24]
87801d30:	f021 7160 	bic.w	r1, r1, #58720256	; 0x3800000
87801d34:	6199      	str	r1, [r3, #24]
87801d36:	6999      	ldr	r1, [r3, #24]
87801d38:	ea41 52c2 	orr.w	r2, r1, r2, lsl #23
87801d3c:	619a      	str	r2, [r3, #24]
87801d3e:	6b9a      	ldr	r2, [r3, #56]	; 0x38
87801d40:	f422 6260 	bic.w	r2, r2, #3584	; 0xe00
87801d44:	639a      	str	r2, [r3, #56]	; 0x38
87801d46:	6b9a      	ldr	r2, [r3, #56]	; 0x38
87801d48:	639a      	str	r2, [r3, #56]	; 0x38
87801d4a:	4770      	bx	lr

87801d4c <tft_lcd_init>:
87801d4c:	b5f8      	push	{r3, r4, r5, r6, r7, lr}
87801d4e:	f24f 249c 	movw	r4, #62108	; 0xf29c
87801d52:	f7ff fda5 	bl	878018a0 <tft_lcd_read_panelid>
87801d56:	4605      	mov	r5, r0
87801d58:	f64d 7034 	movw	r0, #57140	; 0xdf34
87801d5c:	4629      	mov	r1, r5
87801d5e:	f2c8 7480 	movt	r4, #34688	; 0x8780
87801d62:	f2c8 7080 	movt	r0, #34688	; 0x8780
87801d66:	f44f 4600 	mov.w	r6, #32768	; 0x8000
87801d6a:	f2c0 261c 	movt	r6, #540	; 0x21c
87801d6e:	6225      	str	r5, [r4, #32]
87801d70:	f004 fe34 	bl	878069dc <printf>
87801d74:	f7ff fe14 	bl	878019a0 <tft_lcd_gpio_init>
87801d78:	f04f 4300 	mov.w	r3, #2147483648	; 0x80000000
87801d7c:	210a      	movs	r1, #10
87801d7e:	6033      	str	r3, [r6, #0]
87801d80:	f44f 707a 	mov.w	r0, #1000	; 0x3e8
87801d84:	f001 f8e4 	bl	87802f50 <system_delay>
87801d88:	f244 3342 	movw	r3, #17218	; 0x4342
87801d8c:	2200      	movs	r2, #0
87801d8e:	429d      	cmp	r5, r3
87801d90:	6032      	str	r2, [r6, #0]
87801d92:	f000 809d 	beq.w	87801ed0 <tft_lcd_init+0x184>
87801d96:	f244 3384 	movw	r3, #17284	; 0x4384
87801d9a:	429d      	cmp	r5, r3
87801d9c:	f000 80af 	beq.w	87801efe <tft_lcd_init+0x1b2>
87801da0:	f247 0384 	movw	r3, #28804	; 0x7084
87801da4:	429d      	cmp	r5, r3
87801da6:	f000 80c2 	beq.w	87801f2e <tft_lcd_init+0x1e2>
87801daa:	f247 0316 	movw	r3, #28694	; 0x7016
87801dae:	429d      	cmp	r5, r3
87801db0:	f000 80d8 	beq.w	87801f64 <tft_lcd_init+0x218>
87801db4:	f241 0318 	movw	r3, #4120	; 0x1018
87801db8:	429d      	cmp	r5, r3
87801dba:	d072      	beq.n	87801ea2 <tft_lcd_init+0x156>
87801dbc:	f5b5 4f7f 	cmp.w	r5, #65280	; 0xff00
87801dc0:	f000 80e9 	beq.w	87801f96 <tft_lcd_init+0x24a>
87801dc4:	f44f 4300 	mov.w	r3, #32768	; 0x8000
87801dc8:	2204      	movs	r2, #4
87801dca:	f2c0 231c 	movt	r3, #540	; 0x21c
87801dce:	f24e 312c 	movw	r1, #58156	; 0xe32c
87801dd2:	7122      	strb	r2, [r4, #4]
87801dd4:	f2c8 7180 	movt	r1, #34688	; 0x8780
87801dd8:	681a      	ldr	r2, [r3, #0]
87801dda:	f5b5 4f7f 	cmp.w	r5, #65280	; 0xff00
87801dde:	c903      	ldmia	r1, {r0, r1}
87801de0:	8826      	ldrh	r6, [r4, #0]
87801de2:	f8b4 e002 	ldrh.w	lr, [r4, #2]
87801de6:	f442 2220 	orr.w	r2, r2, #655360	; 0xa0000
87801dea:	61a1      	str	r1, [r4, #24]
87801dec:	f442 6272 	orr.w	r2, r2, #3872	; 0xf20
87801df0:	f04f 4109 	mov.w	r1, #2298478592	; 0x89000000
87801df4:	61e0      	str	r0, [r4, #28]
87801df6:	6161      	str	r1, [r4, #20]
87801df8:	f44f 20e0 	mov.w	r0, #458752	; 0x70000
87801dfc:	601a      	str	r2, [r3, #0]
87801dfe:	f24f 229c 	movw	r2, #62108	; 0xf29c
87801e02:	f2c8 7280 	movt	r2, #34688	; 0x8780
87801e06:	6118      	str	r0, [r3, #16]
87801e08:	ea4e 4706 	orr.w	r7, lr, r6, lsl #16
87801e0c:	88d0      	ldrh	r0, [r2, #6]
87801e0e:	f04f 0100 	mov.w	r1, #0
87801e12:	f8b4 c00a 	ldrh.w	ip, [r4, #10]
87801e16:	631f      	str	r7, [r3, #48]	; 0x30
87801e18:	89a7      	ldrh	r7, [r4, #12]
87801e1a:	bf08      	it	eq
87801e1c:	f040 5291 	orreq.w	r2, r0, #304087040	; 0x12200000
87801e20:	6719      	str	r1, [r3, #112]	; 0x70
87801e22:	bf18      	it	ne
87801e24:	f040 5289 	orrne.w	r2, r0, #287309824	; 0x11200000
87801e28:	8a21      	ldrh	r1, [r4, #16]
87801e2a:	f442 1280 	orr.w	r2, r2, #1048576	; 0x100000
87801e2e:	671a      	str	r2, [r3, #112]	; 0x70
87801e30:	eb0e 0207 	add.w	r2, lr, r7
87801e34:	1835      	adds	r5, r6, r0
87801e36:	8926      	ldrh	r6, [r4, #8]
87801e38:	440a      	add	r2, r1
87801e3a:	89e1      	ldrh	r1, [r4, #14]
87801e3c:	44ac      	add	ip, r5
87801e3e:	f44f 4300 	mov.w	r3, #32768	; 0x8000
87801e42:	4430      	add	r0, r6
87801e44:	f2c0 231c 	movt	r3, #540	; 0x21c
87801e48:	440a      	add	r2, r1
87801e4a:	4439      	add	r1, r7
87801e4c:	4466      	add	r6, ip
87801e4e:	ea40 4001 	orr.w	r0, r0, r1, lsl #16
87801e52:	ea42 4287 	orr.w	r2, r2, r7, lsl #18
87801e56:	f8c3 6080 	str.w	r6, [r3, #128]	; 0x80
87801e5a:	f44e 2580 	orr.w	r5, lr, #262144	; 0x40000
87801e5e:	f04f 4609 	mov.w	r6, #2298478592	; 0x89000000
87801e62:	f8c3 2090 	str.w	r2, [r3, #144]	; 0x90
87801e66:	f8c3 00a0 	str.w	r0, [r3, #160]	; 0xa0
87801e6a:	210a      	movs	r1, #10
87801e6c:	f8c3 50b0 	str.w	r5, [r3, #176]	; 0xb0
87801e70:	f44f 707a 	mov.w	r0, #1000	; 0x3e8
87801e74:	641e      	str	r6, [r3, #64]	; 0x40
87801e76:	651e      	str	r6, [r3, #80]	; 0x50
87801e78:	681a      	ldr	r2, [r3, #0]
87801e7a:	f042 0201 	orr.w	r2, r2, #1
87801e7e:	601a      	str	r2, [r3, #0]
87801e80:	f001 f866 	bl	87802f50 <system_delay>
87801e84:	8821      	ldrh	r1, [r4, #0]
87801e86:	8862      	ldrh	r2, [r4, #2]
87801e88:	6963      	ldr	r3, [r4, #20]
87801e8a:	fb02 f201 	mul.w	r2, r2, r1
87801e8e:	b13a      	cbz	r2, 87801ea0 <tft_lcd_init+0x154>
87801e90:	eb03 0282 	add.w	r2, r3, r2, lsl #2
87801e94:	f06f 417f 	mvn.w	r1, #4278190080	; 0xff000000
87801e98:	f843 1b04 	str.w	r1, [r3], #4
87801e9c:	4293      	cmp	r3, r2
87801e9e:	d1fb      	bne.n	87801e98 <tft_lcd_init+0x14c>
87801ea0:	bdf8      	pop	{r3, r4, r5, r6, r7, pc}
87801ea2:	2203      	movs	r2, #3
87801ea4:	f44f 60a0 	mov.w	r0, #1280	; 0x500
87801ea8:	230a      	movs	r3, #10
87801eaa:	f44f 7e48 	mov.w	lr, #800	; 0x320
87801eae:	4611      	mov	r1, r2
87801eb0:	2750      	movs	r7, #80	; 0x50
87801eb2:	80e2      	strh	r2, [r4, #6]
87801eb4:	2646      	movs	r6, #70	; 0x46
87801eb6:	8060      	strh	r0, [r4, #2]
87801eb8:	2205      	movs	r2, #5
87801eba:	2023      	movs	r0, #35	; 0x23
87801ebc:	f8a4 e000 	strh.w	lr, [r4]
87801ec0:	8123      	strh	r3, [r4, #8]
87801ec2:	8163      	strh	r3, [r4, #10]
87801ec4:	81a3      	strh	r3, [r4, #12]
87801ec6:	81e7      	strh	r7, [r4, #14]
87801ec8:	8226      	strh	r6, [r4, #16]
87801eca:	f7ff ff03 	bl	87801cd4 <tft_lcd_clk_init>
87801ece:	e779      	b.n	87801dc4 <tft_lcd_init+0x78>
87801ed0:	2308      	movs	r3, #8
87801ed2:	f44f 7088 	mov.w	r0, #272	; 0x110
87801ed6:	2601      	movs	r6, #1
87801ed8:	461a      	mov	r2, r3
87801eda:	4619      	mov	r1, r3
87801edc:	f44f 7ef0 	mov.w	lr, #480	; 0x1e0
87801ee0:	8123      	strh	r3, [r4, #8]
87801ee2:	2728      	movs	r7, #40	; 0x28
87801ee4:	8163      	strh	r3, [r4, #10]
87801ee6:	2305      	movs	r3, #5
87801ee8:	8020      	strh	r0, [r4, #0]
87801eea:	201b      	movs	r0, #27
87801eec:	f8a4 e002 	strh.w	lr, [r4, #2]
87801ef0:	80e6      	strh	r6, [r4, #6]
87801ef2:	81a6      	strh	r6, [r4, #12]
87801ef4:	81e7      	strh	r7, [r4, #14]
87801ef6:	8223      	strh	r3, [r4, #16]
87801ef8:	f7ff feec 	bl	87801cd4 <tft_lcd_clk_init>
87801efc:	e762      	b.n	87801dc4 <tft_lcd_init+0x78>
87801efe:	f44f 76f0 	mov.w	r6, #480	; 0x1e0
87801f02:	f44f 7348 	mov.w	r3, #800	; 0x320
87801f06:	2203      	movs	r2, #3
87801f08:	2120      	movs	r1, #32
87801f0a:	200d      	movs	r0, #13
87801f0c:	2730      	movs	r7, #48	; 0x30
87801f0e:	8026      	strh	r6, [r4, #0]
87801f10:	2658      	movs	r6, #88	; 0x58
87801f12:	8063      	strh	r3, [r4, #2]
87801f14:	2328      	movs	r3, #40	; 0x28
87801f16:	80e2      	strh	r2, [r4, #6]
87801f18:	2208      	movs	r2, #8
87801f1a:	8121      	strh	r1, [r4, #8]
87801f1c:	2104      	movs	r1, #4
87801f1e:	8160      	strh	r0, [r4, #10]
87801f20:	202a      	movs	r0, #42	; 0x2a
87801f22:	81a7      	strh	r7, [r4, #12]
87801f24:	81e6      	strh	r6, [r4, #14]
87801f26:	8223      	strh	r3, [r4, #16]
87801f28:	f7ff fed4 	bl	87801cd4 <tft_lcd_clk_init>
87801f2c:	e74a      	b.n	87801dc4 <tft_lcd_init+0x78>
87801f2e:	f44f 71f0 	mov.w	r1, #480	; 0x1e0
87801f32:	f44f 7248 	mov.w	r2, #800	; 0x320
87801f36:	2301      	movs	r3, #1
87801f38:	f04f 0c17 	mov.w	ip, #23
87801f3c:	f04f 0e16 	mov.w	lr, #22
87801f40:	272e      	movs	r7, #46	; 0x2e
87801f42:	8021      	strh	r1, [r4, #0]
87801f44:	26d2      	movs	r6, #210	; 0xd2
87801f46:	8062      	strh	r2, [r4, #2]
87801f48:	2103      	movs	r1, #3
87801f4a:	2207      	movs	r2, #7
87801f4c:	201e      	movs	r0, #30
87801f4e:	80e3      	strh	r3, [r4, #6]
87801f50:	81a3      	strh	r3, [r4, #12]
87801f52:	f8a4 c008 	strh.w	ip, [r4, #8]
87801f56:	f8a4 e00a 	strh.w	lr, [r4, #10]
87801f5a:	81e7      	strh	r7, [r4, #14]
87801f5c:	8226      	strh	r6, [r4, #16]
87801f5e:	f7ff feb9 	bl	87801cd4 <tft_lcd_clk_init>
87801f62:	e72f      	b.n	87801dc4 <tft_lcd_init+0x78>
87801f64:	2203      	movs	r2, #3
87801f66:	f44f 7616 	mov.w	r6, #600	; 0x258
87801f6a:	f44f 6080 	mov.w	r0, #1024	; 0x400
87801f6e:	2314      	movs	r3, #20
87801f70:	4611      	mov	r1, r2
87801f72:	f04f 0e0c 	mov.w	lr, #12
87801f76:	80e2      	strh	r2, [r4, #6]
87801f78:	278c      	movs	r7, #140	; 0x8c
87801f7a:	8026      	strh	r6, [r4, #0]
87801f7c:	2205      	movs	r2, #5
87801f7e:	26a0      	movs	r6, #160	; 0xa0
87801f80:	8060      	strh	r0, [r4, #2]
87801f82:	2020      	movs	r0, #32
87801f84:	8123      	strh	r3, [r4, #8]
87801f86:	81a3      	strh	r3, [r4, #12]
87801f88:	f8a4 e00a 	strh.w	lr, [r4, #10]
87801f8c:	81e7      	strh	r7, [r4, #14]
87801f8e:	8226      	strh	r6, [r4, #16]
87801f90:	f7ff fea0 	bl	87801cd4 <tft_lcd_clk_init>
87801f94:	e716      	b.n	87801dc4 <tft_lcd_init+0x78>
87801f96:	2303      	movs	r3, #3
87801f98:	f240 5056 	movw	r0, #1366	; 0x556
87801f9c:	f44f 7c40 	mov.w	ip, #768	; 0x300
87801fa0:	461a      	mov	r2, r3
87801fa2:	4619      	mov	r1, r3
87801fa4:	f04f 0e18 	mov.w	lr, #24
87801fa8:	80e3      	strh	r3, [r4, #6]
87801faa:	278f      	movs	r7, #143	; 0x8f
87801fac:	8163      	strh	r3, [r4, #10]
87801fae:	26d5      	movs	r6, #213	; 0xd5
87801fb0:	2346      	movs	r3, #70	; 0x46
87801fb2:	8060      	strh	r0, [r4, #2]
87801fb4:	2020      	movs	r0, #32
87801fb6:	f8a4 c000 	strh.w	ip, [r4]
87801fba:	f8a4 e008 	strh.w	lr, [r4, #8]
87801fbe:	81a7      	strh	r7, [r4, #12]
87801fc0:	81e6      	strh	r6, [r4, #14]
87801fc2:	8223      	strh	r3, [r4, #16]
87801fc4:	f7ff fe86 	bl	87801cd4 <tft_lcd_clk_init>
87801fc8:	e6fc      	b.n	87801dc4 <tft_lcd_init+0x78>
87801fca:	bf00      	nop

87801fcc <tft_lcd_reset>:
87801fcc:	f44f 4300 	mov.w	r3, #32768	; 0x8000
87801fd0:	f04f 4200 	mov.w	r2, #2147483648	; 0x80000000
87801fd4:	f2c0 231c 	movt	r3, #540	; 0x21c
87801fd8:	601a      	str	r2, [r3, #0]
87801fda:	4770      	bx	lr

87801fdc <tft_lcd_no_reset>:
87801fdc:	f44f 4300 	mov.w	r3, #32768	; 0x8000
87801fe0:	2200      	movs	r2, #0
87801fe2:	f2c0 231c 	movt	r3, #540	; 0x21c
87801fe6:	601a      	str	r2, [r3, #0]
87801fe8:	4770      	bx	lr
87801fea:	bf00      	nop

87801fec <tft_lcd_enable>:
87801fec:	f44f 4300 	mov.w	r3, #32768	; 0x8000
87801ff0:	f2c0 231c 	movt	r3, #540	; 0x21c
87801ff4:	681a      	ldr	r2, [r3, #0]
87801ff6:	f042 0201 	orr.w	r2, r2, #1
87801ffa:	601a      	str	r2, [r3, #0]
87801ffc:	4770      	bx	lr
87801ffe:	bf00      	nop

87802000 <tft_lcd_readpoint>:
87802000:	f24f 229c 	movw	r2, #62108	; 0xf29c
87802004:	b410      	push	{r4}
87802006:	f2c8 7280 	movt	r2, #34688	; 0x8780
8780200a:	8853      	ldrh	r3, [r2, #2]
8780200c:	7914      	ldrb	r4, [r2, #4]
8780200e:	6952      	ldr	r2, [r2, #20]
87802010:	fb01 0103 	mla	r1, r1, r3, r0
87802014:	fb01 f104 	mul.w	r1, r1, r4
87802018:	f85d 4b04 	ldr.w	r4, [sp], #4
8780201c:	5888      	ldr	r0, [r1, r2]
8780201e:	4770      	bx	lr

87802020 <tft_lcd_clear>:
87802020:	f24f 239c 	movw	r3, #62108	; 0xf29c
87802024:	f2c8 7380 	movt	r3, #34688	; 0x8780
87802028:	8819      	ldrh	r1, [r3, #0]
8780202a:	885a      	ldrh	r2, [r3, #2]
8780202c:	695b      	ldr	r3, [r3, #20]
8780202e:	fb02 f201 	mul.w	r2, r2, r1
87802032:	b12a      	cbz	r2, 87802040 <tft_lcd_clear+0x20>
87802034:	eb03 0282 	add.w	r2, r3, r2, lsl #2
87802038:	f843 0b04 	str.w	r0, [r3], #4
8780203c:	4293      	cmp	r3, r2
8780203e:	d1fb      	bne.n	87802038 <tft_lcd_clear+0x18>
87802040:	4770      	bx	lr
87802042:	bf00      	nop

87802044 <tft_lcd_fill>:
87802044:	e92d 43f0 	stmdb	sp!, {r4, r5, r6, r7, r8, r9, lr}
87802048:	f24f 269c 	movw	r6, #62108	; 0xf29c
8780204c:	f2c8 7680 	movt	r6, #34688	; 0x8780
87802050:	4699      	mov	r9, r3
87802052:	f8b6 8002 	ldrh.w	r8, [r6, #2]
87802056:	8834      	ldrh	r4, [r6, #0]
87802058:	9b07      	ldr	r3, [sp, #28]
8780205a:	4590      	cmp	r8, r2
8780205c:	bf9c      	itt	ls
8780205e:	f108 32ff 	addls.w	r2, r8, #4294967295	; 0xffffffff
87802062:	b292      	uxthls	r2, r2
87802064:	454c      	cmp	r4, r9
87802066:	bf9c      	itt	ls
87802068:	f104 34ff 	addls.w	r4, r4, #4294967295	; 0xffffffff
8780206c:	fa1f f984 	uxthls.w	r9, r4
87802070:	4589      	cmp	r9, r1
87802072:	d316      	bcc.n	878020a2 <tft_lcd_fill+0x5e>
87802074:	4282      	cmp	r2, r0
87802076:	d30e      	bcc.n	87802096 <tft_lcd_fill+0x52>
87802078:	fb01 fc08 	mul.w	ip, r1, r8
8780207c:	4604      	mov	r4, r0
8780207e:	f896 e004 	ldrb.w	lr, [r6, #4]
87802082:	eb04 050c 	add.w	r5, r4, ip
87802086:	3401      	adds	r4, #1
87802088:	6977      	ldr	r7, [r6, #20]
8780208a:	b2a4      	uxth	r4, r4
8780208c:	fb05 f50e 	mul.w	r5, r5, lr
87802090:	42a2      	cmp	r2, r4
87802092:	51eb      	str	r3, [r5, r7]
87802094:	d2f3      	bcs.n	8780207e <tft_lcd_fill+0x3a>
87802096:	3101      	adds	r1, #1
87802098:	b289      	uxth	r1, r1
8780209a:	4589      	cmp	r9, r1
8780209c:	d2ea      	bcs.n	87802074 <tft_lcd_fill+0x30>
8780209e:	e8bd 83f0 	ldmia.w	sp!, {r4, r5, r6, r7, r8, r9, pc}
878020a2:	e8bd 83f0 	ldmia.w	sp!, {r4, r5, r6, r7, r8, r9, pc}
878020a6:	bf00      	nop

878020a8 <tft_lcd_set_font>:
878020a8:	f24e 332c 	movw	r3, #58156	; 0xe32c
878020ac:	f2c8 7380 	movt	r3, #34688	; 0x8780
878020b0:	6098      	str	r0, [r3, #8]
878020b2:	4770      	bx	lr

878020b4 <tft_lcd_set_color>:
878020b4:	f24e 332c 	movw	r3, #58156	; 0xe32c
878020b8:	f2c8 7380 	movt	r3, #34688	; 0x8780
878020bc:	6058      	str	r0, [r3, #4]
878020be:	6019      	str	r1, [r3, #0]
878020c0:	4770      	bx	lr
878020c2:	bf00      	nop

878020c4 <tft_lcd_drawpoint>:
878020c4:	b430      	push	{r4, r5}
878020c6:	f24f 249c 	movw	r4, #62108	; 0xf29c
878020ca:	f2c8 7480 	movt	r4, #34688	; 0x8780
878020ce:	8863      	ldrh	r3, [r4, #2]
878020d0:	7925      	ldrb	r5, [r4, #4]
878020d2:	6964      	ldr	r4, [r4, #20]
878020d4:	fb01 0103 	mla	r1, r1, r3, r0
878020d8:	fb01 f105 	mul.w	r1, r1, r5
878020dc:	510a      	str	r2, [r1, r4]
878020de:	bc30      	pop	{r4, r5}
878020e0:	4770      	bx	lr
878020e2:	bf00      	nop

878020e4 <tft_lcd_draw_bigpoint>:
878020e4:	f24f 239c 	movw	r3, #62108	; 0xf29c
878020e8:	b5f0      	push	{r4, r5, r6, r7, lr}
878020ea:	f2c8 7380 	movt	r3, #34688	; 0x8780
878020ee:	885d      	ldrh	r5, [r3, #2]
878020f0:	f893 c004 	ldrb.w	ip, [r3, #4]
878020f4:	695f      	ldr	r7, [r3, #20]
878020f6:	1e6e      	subs	r6, r5, #1
878020f8:	fb01 fe05 	mul.w	lr, r1, r5
878020fc:	4286      	cmp	r6, r0
878020fe:	eb0e 0400 	add.w	r4, lr, r0
87802102:	fb04 f40c 	mul.w	r4, r4, ip
87802106:	51e2      	str	r2, [r4, r7]
87802108:	dd08      	ble.n	8780211c <tft_lcd_draw_bigpoint+0x38>
8780210a:	f893 c004 	ldrb.w	ip, [r3, #4]
8780210e:	1c47      	adds	r7, r0, #1
87802110:	fa1e f487 	uxtah	r4, lr, r7
87802114:	695f      	ldr	r7, [r3, #20]
87802116:	fb04 f40c 	mul.w	r4, r4, ip
8780211a:	51e2      	str	r2, [r4, r7]
8780211c:	881c      	ldrh	r4, [r3, #0]
8780211e:	f24f 239c 	movw	r3, #62108	; 0xf29c
87802122:	f2c8 7380 	movt	r3, #34688	; 0x8780
87802126:	3c01      	subs	r4, #1
87802128:	4284      	cmp	r4, r0
8780212a:	dd14      	ble.n	87802156 <tft_lcd_draw_bigpoint+0x72>
8780212c:	3101      	adds	r1, #1
8780212e:	791f      	ldrb	r7, [r3, #4]
87802130:	b289      	uxth	r1, r1
87802132:	695c      	ldr	r4, [r3, #20]
87802134:	4286      	cmp	r6, r0
87802136:	fb01 f105 	mul.w	r1, r1, r5
8780213a:	eb00 0501 	add.w	r5, r0, r1
8780213e:	fb05 f507 	mul.w	r5, r5, r7
87802142:	512a      	str	r2, [r5, r4]
87802144:	dd07      	ble.n	87802156 <tft_lcd_draw_bigpoint+0x72>
87802146:	791c      	ldrb	r4, [r3, #4]
87802148:	3001      	adds	r0, #1
8780214a:	fa11 f080 	uxtah	r0, r1, r0
8780214e:	695b      	ldr	r3, [r3, #20]
87802150:	fb00 f004 	mul.w	r0, r0, r4
87802154:	50c2      	str	r2, [r0, r3]
87802156:	bdf0      	pop	{r4, r5, r6, r7, pc}

87802158 <tft_lcd_draw_line>:
87802158:	4290      	cmp	r0, r2
8780215a:	b5f0      	push	{r4, r5, r6, r7, lr}
8780215c:	b083      	sub	sp, #12
8780215e:	9d08      	ldr	r5, [sp, #32]
87802160:	d24d      	bcs.n	878021fe <tft_lcd_draw_line+0xa6>
87802162:	4299      	cmp	r1, r3
87802164:	bf24      	itt	cs
87802166:	f64f 7eff 	movwcs	lr, #65535	; 0xffff
8780216a:	2601      	movcs	r6, #1
8780216c:	f0c0 8095 	bcc.w	8780229a <tft_lcd_draw_line+0x142>
87802170:	1acc      	subs	r4, r1, r3
87802172:	1a87      	subs	r7, r0, r2
87802174:	ea84 7ce4 	eor.w	ip, r4, r4, asr #31
87802178:	ee06 1a90 	vmov	s13, r1
8780217c:	ee07 4a90 	vmov	s15, r4
87802180:	ebac 7ce4 	sub.w	ip, ip, r4, asr #31
87802184:	463c      	mov	r4, r7
87802186:	eef8 7ae7 	vcvt.f32.s32	s15, s15
8780218a:	ea87 77e7 	eor.w	r7, r7, r7, asr #31
8780218e:	ee07 4a10 	vmov	s14, r4
87802192:	eba7 77e4 	sub.w	r7, r7, r4, asr #31
87802196:	eef8 6a66 	vcvt.f32.u32	s13, s13
8780219a:	eeb8 7ac7 	vcvt.f32.s32	s14, s14
8780219e:	45bc      	cmp	ip, r7
878021a0:	ee87 7a87 	vdiv.f32	s14, s15, s14
878021a4:	ee07 0a90 	vmov	s15, r0
878021a8:	eef8 7a67 	vcvt.f32.u32	s15, s15
878021ac:	eee7 6ac7 	vfms.f32	s13, s15, s14
878021b0:	dd4f      	ble.n	87802252 <tft_lcd_draw_line+0xfa>
878021b2:	4299      	cmp	r1, r3
878021b4:	d021      	beq.n	878021fa <tft_lcd_draw_line+0xa2>
878021b6:	f24f 249c 	movw	r4, #62108	; 0xf29c
878021ba:	fa1f fe8e 	uxth.w	lr, lr
878021be:	f2c8 7480 	movt	r4, #34688	; 0x8780
878021c2:	f8b4 c002 	ldrh.w	ip, [r4, #2]
878021c6:	eb01 070e 	add.w	r7, r1, lr
878021ca:	7926      	ldrb	r6, [r4, #4]
878021cc:	fb0c 0001 	mla	r0, ip, r1, r0
878021d0:	6962      	ldr	r2, [r4, #20]
878021d2:	b2b9      	uxth	r1, r7
878021d4:	fb00 f006 	mul.w	r0, r0, r6
878021d8:	428b      	cmp	r3, r1
878021da:	ee07 1a90 	vmov	s15, r1
878021de:	eef8 7a67 	vcvt.f32.u32	s15, s15
878021e2:	5085      	str	r5, [r0, r2]
878021e4:	ee77 7ae6 	vsub.f32	s15, s15, s13
878021e8:	eec7 7a87 	vdiv.f32	s15, s15, s14
878021ec:	eefd 7ae7 	vcvt.s32.f32	s15, s15
878021f0:	edcd 7a01 	vstr	s15, [sp, #4]
878021f4:	f8bd 0004 	ldrh.w	r0, [sp, #4]
878021f8:	d1e5      	bne.n	878021c6 <tft_lcd_draw_line+0x6e>
878021fa:	b003      	add	sp, #12
878021fc:	bdf0      	pop	{r4, r5, r6, r7, pc}
878021fe:	4299      	cmp	r1, r3
87802200:	d207      	bcs.n	87802212 <tft_lcd_draw_line+0xba>
87802202:	4290      	cmp	r0, r2
87802204:	f04f 0e01 	mov.w	lr, #1
87802208:	bf18      	it	ne
8780220a:	f64f 76ff 	movwne	r6, #65535	; 0xffff
8780220e:	d1af      	bne.n	87802170 <tft_lcd_draw_line+0x18>
87802210:	e00a      	b.n	87802228 <tft_lcd_draw_line+0xd0>
87802212:	4290      	cmp	r0, r2
87802214:	bf1c      	itt	ne
87802216:	f64f 7eff 	movwne	lr, #65535	; 0xffff
8780221a:	4676      	movne	r6, lr
8780221c:	d1a8      	bne.n	87802170 <tft_lcd_draw_line+0x18>
8780221e:	4299      	cmp	r1, r3
87802220:	bf18      	it	ne
87802222:	f64f 7eff 	movwne	lr, #65535	; 0xffff
87802226:	d0e8      	beq.n	878021fa <tft_lcd_draw_line+0xa2>
87802228:	f24f 249c 	movw	r4, #62108	; 0xf29c
8780222c:	fa1f fe8e 	uxth.w	lr, lr
87802230:	f2c8 7480 	movt	r4, #34688	; 0x8780
87802234:	f8b4 c002 	ldrh.w	ip, [r4, #2]
87802238:	7927      	ldrb	r7, [r4, #4]
8780223a:	fb0c 0201 	mla	r2, ip, r1, r0
8780223e:	6966      	ldr	r6, [r4, #20]
87802240:	4471      	add	r1, lr
87802242:	b289      	uxth	r1, r1
87802244:	fb02 f207 	mul.w	r2, r2, r7
87802248:	428b      	cmp	r3, r1
8780224a:	5195      	str	r5, [r2, r6]
8780224c:	d1f4      	bne.n	87802238 <tft_lcd_draw_line+0xe0>
8780224e:	b003      	add	sp, #12
87802250:	bdf0      	pop	{r4, r5, r6, r7, pc}
87802252:	f24f 249c 	movw	r4, #62108	; 0xf29c
87802256:	fa1f fe86 	uxth.w	lr, r6
8780225a:	f2c8 7480 	movt	r4, #34688	; 0x8780
8780225e:	f8b4 c002 	ldrh.w	ip, [r4, #2]
87802262:	eb00 070e 	add.w	r7, r0, lr
87802266:	eeb0 6a66 	vmov.f32	s12, s13
8780226a:	fb0c 0101 	mla	r1, ip, r1, r0
8780226e:	7926      	ldrb	r6, [r4, #4]
87802270:	6963      	ldr	r3, [r4, #20]
87802272:	b2b8      	uxth	r0, r7
87802274:	fb01 f106 	mul.w	r1, r1, r6
87802278:	4282      	cmp	r2, r0
8780227a:	ee07 0a90 	vmov	s15, r0
8780227e:	eef8 7a67 	vcvt.f32.u32	s15, s15
87802282:	50cd      	str	r5, [r1, r3]
87802284:	eea7 6a87 	vfma.f32	s12, s15, s14
87802288:	eefd 7ac6 	vcvt.s32.f32	s15, s12
8780228c:	edcd 7a01 	vstr	s15, [sp, #4]
87802290:	f8bd 1004 	ldrh.w	r1, [sp, #4]
87802294:	d1e5      	bne.n	87802262 <tft_lcd_draw_line+0x10a>
87802296:	b003      	add	sp, #12
87802298:	bdf0      	pop	{r4, r5, r6, r7, pc}
8780229a:	f04f 0e01 	mov.w	lr, #1
8780229e:	4676      	mov	r6, lr
878022a0:	e766      	b.n	87802170 <tft_lcd_draw_line+0x18>
878022a2:	bf00      	nop

878022a4 <tft_lcd_draw_rectangle>:
878022a4:	e92d 41f0 	stmdb	sp!, {r4, r5, r6, r7, r8, lr}
878022a8:	b082      	sub	sp, #8
878022aa:	f8bd 4020 	ldrh.w	r4, [sp, #32]
878022ae:	4605      	mov	r5, r0
878022b0:	460e      	mov	r6, r1
878022b2:	4617      	mov	r7, r2
878022b4:	4698      	mov	r8, r3
878022b6:	9400      	str	r4, [sp, #0]
878022b8:	f7ff ff4e 	bl	87802158 <tft_lcd_draw_line>
878022bc:	4643      	mov	r3, r8
878022be:	463a      	mov	r2, r7
878022c0:	4631      	mov	r1, r6
878022c2:	4628      	mov	r0, r5
878022c4:	9400      	str	r4, [sp, #0]
878022c6:	f7ff ff47 	bl	87802158 <tft_lcd_draw_line>
878022ca:	4643      	mov	r3, r8
878022cc:	463a      	mov	r2, r7
878022ce:	4631      	mov	r1, r6
878022d0:	4628      	mov	r0, r5
878022d2:	9400      	str	r4, [sp, #0]
878022d4:	f7ff ff40 	bl	87802158 <tft_lcd_draw_line>
878022d8:	9408      	str	r4, [sp, #32]
878022da:	4643      	mov	r3, r8
878022dc:	463a      	mov	r2, r7
878022de:	4631      	mov	r1, r6
878022e0:	4628      	mov	r0, r5
878022e2:	b002      	add	sp, #8
878022e4:	e8bd 41f0 	ldmia.w	sp!, {r4, r5, r6, r7, r8, lr}
878022e8:	f7ff bf36 	b.w	87802158 <tft_lcd_draw_line>

878022ec <lcd_draw_Circle>:
878022ec:	e92d 4ff0 	stmdb	sp!, {r4, r5, r6, r7, r8, r9, sl, fp, lr}
878022f0:	4693      	mov	fp, r2
878022f2:	b089      	sub	sp, #36	; 0x24
878022f4:	f1c2 0201 	rsb	r2, r2, #1
878022f8:	9203      	str	r2, [sp, #12]
878022fa:	f1bb 0f00 	cmp.w	fp, #0
878022fe:	f000 8091 	beq.w	87802424 <lcd_draw_Circle+0x138>
87802302:	f24f 249c 	movw	r4, #62108	; 0xf29c
87802306:	468c      	mov	ip, r1
87802308:	f2c8 7480 	movt	r4, #34688	; 0x8780
8780230c:	f04f 0a00 	mov.w	sl, #0
87802310:	8862      	ldrh	r2, [r4, #2]
87802312:	9001      	str	r0, [sp, #4]
87802314:	9207      	str	r2, [sp, #28]
87802316:	fa1f f28b 	uxth.w	r2, fp
8780231a:	9f07      	ldr	r7, [sp, #28]
8780231c:	fa1f f18a 	uxth.w	r1, sl
87802320:	ebcb 0e0a 	rsb	lr, fp, sl
87802324:	eb02 060c 	add.w	r6, r2, ip
87802328:	9202      	str	r2, [sp, #8]
8780232a:	b2b6      	uxth	r6, r6
8780232c:	9a01      	ldr	r2, [sp, #4]
8780232e:	7925      	ldrb	r5, [r4, #4]
87802330:	fb07 f606 	mul.w	r6, r7, r6
87802334:	1888      	adds	r0, r1, r2
87802336:	b280      	uxth	r0, r0
87802338:	9604      	str	r6, [sp, #16]
8780233a:	9e03      	ldr	r6, [sp, #12]
8780233c:	9005      	str	r0, [sp, #20]
8780233e:	eb0c 0001 	add.w	r0, ip, r1
87802342:	b280      	uxth	r0, r0
87802344:	eb06 024e 	add.w	r2, r6, lr, lsl #1
87802348:	9e05      	ldr	r6, [sp, #20]
8780234a:	fb07 f000 	mul.w	r0, r7, r0
8780234e:	9206      	str	r2, [sp, #24]
87802350:	4632      	mov	r2, r6
87802352:	9e04      	ldr	r6, [sp, #16]
87802354:	eb06 0802 	add.w	r8, r6, r2
87802358:	9e02      	ldr	r6, [sp, #8]
8780235a:	fb08 f805 	mul.w	r8, r8, r5
8780235e:	9a01      	ldr	r2, [sp, #4]
87802360:	46b6      	mov	lr, r6
87802362:	6966      	ldr	r6, [r4, #20]
87802364:	4496      	add	lr, r2
87802366:	1a55      	subs	r5, r2, r1
87802368:	fa1f fe8e 	uxth.w	lr, lr
8780236c:	ebc1 010c 	rsb	r1, r1, ip
87802370:	f848 3006 	str.w	r3, [r8, r6]
87802374:	b289      	uxth	r1, r1
87802376:	f894 9004 	ldrb.w	r9, [r4, #4]
8780237a:	eb00 080e 	add.w	r8, r0, lr
8780237e:	6962      	ldr	r2, [r4, #20]
87802380:	fb07 f101 	mul.w	r1, r7, r1
87802384:	9e04      	ldr	r6, [sp, #16]
87802386:	b2ad      	uxth	r5, r5
87802388:	fb08 f809 	mul.w	r8, r8, r9
8780238c:	eb0e 0901 	add.w	r9, lr, r1
87802390:	442e      	add	r6, r5
87802392:	f848 3002 	str.w	r3, [r8, r2]
87802396:	9a01      	ldr	r2, [sp, #4]
87802398:	f894 8004 	ldrb.w	r8, [r4, #4]
8780239c:	4696      	mov	lr, r2
8780239e:	9a02      	ldr	r2, [sp, #8]
878023a0:	fb06 f608 	mul.w	r6, r6, r8
878023a4:	ebc2 0e0e 	rsb	lr, r2, lr
878023a8:	ebc2 020c 	rsb	r2, r2, ip
878023ac:	b292      	uxth	r2, r2
878023ae:	fa1f fe8e 	uxth.w	lr, lr
878023b2:	fb07 f202 	mul.w	r2, r7, r2
878023b6:	6967      	ldr	r7, [r4, #20]
878023b8:	4470      	add	r0, lr
878023ba:	4471      	add	r1, lr
878023bc:	51f3      	str	r3, [r6, r7]
878023be:	7926      	ldrb	r6, [r4, #4]
878023c0:	4415      	add	r5, r2
878023c2:	9f05      	ldr	r7, [sp, #20]
878023c4:	fb00 f006 	mul.w	r0, r0, r6
878023c8:	443a      	add	r2, r7
878023ca:	6967      	ldr	r7, [r4, #20]
878023cc:	51c3      	str	r3, [r0, r7]
878023ce:	7926      	ldrb	r6, [r4, #4]
878023d0:	6960      	ldr	r0, [r4, #20]
878023d2:	fb05 f506 	mul.w	r5, r5, r6
878023d6:	502b      	str	r3, [r5, r0]
878023d8:	f894 e004 	ldrb.w	lr, [r4, #4]
878023dc:	6960      	ldr	r0, [r4, #20]
878023de:	fb01 f10e 	mul.w	r1, r1, lr
878023e2:	500b      	str	r3, [r1, r0]
878023e4:	7920      	ldrb	r0, [r4, #4]
878023e6:	6961      	ldr	r1, [r4, #20]
878023e8:	9e03      	ldr	r6, [sp, #12]
878023ea:	fb02 f200 	mul.w	r2, r2, r0
878023ee:	2e00      	cmp	r6, #0
878023f0:	bfa8      	it	ge
878023f2:	f10b 3bff 	addge.w	fp, fp, #4294967295	; 0xffffffff
878023f6:	5053      	str	r3, [r2, r1]
878023f8:	f894 e004 	ldrb.w	lr, [r4, #4]
878023fc:	6962      	ldr	r2, [r4, #20]
878023fe:	fb09 fe0e 	mul.w	lr, r9, lr
87802402:	f84e 3002 	str.w	r3, [lr, r2]
87802406:	bfb6      	itet	lt
87802408:	4632      	movlt	r2, r6
8780240a:	9a06      	ldrge	r2, [sp, #24]
8780240c:	eb02 024a 	addlt.w	r2, r2, sl, lsl #1
87802410:	f10a 0a01 	add.w	sl, sl, #1
87802414:	bfb5      	itete	lt
87802416:	3203      	addlt	r2, #3
87802418:	3205      	addge	r2, #5
8780241a:	9203      	strlt	r2, [sp, #12]
8780241c:	9203      	strge	r2, [sp, #12]
8780241e:	45d3      	cmp	fp, sl
87802420:	f73f af79 	bgt.w	87802316 <lcd_draw_Circle+0x2a>
87802424:	b009      	add	sp, #36	; 0x24
87802426:	e8bd 8ff0 	ldmia.w	sp!, {r4, r5, r6, r7, r8, r9, sl, fp, pc}
8780242a:	bf00      	nop

8780242c <tft_lcd_showchar>:
8780242c:	e92d 4ff0 	stmdb	sp!, {r4, r5, r6, r7, r8, r9, sl, fp, lr}
87802430:	f24e 372c 	movw	r7, #58156	; 0xe32c
87802434:	f2c8 7780 	movt	r7, #34688	; 0x8780
87802438:	b087      	sub	sp, #28
8780243a:	68be      	ldr	r6, [r7, #8]
8780243c:	f016 0307 	ands.w	r3, r6, #7
87802440:	bf18      	it	ne
87802442:	2301      	movne	r3, #1
87802444:	0874      	lsrs	r4, r6, #1
87802446:	eb03 03d6 	add.w	r3, r3, r6, lsr #3
8780244a:	fb13 f304 	smulbb	r3, r3, r4
8780244e:	f013 03ff 	ands.w	r3, r3, #255	; 0xff
87802452:	f000 808b 	beq.w	8780256c <tft_lcd_showchar+0x140>
87802456:	687c      	ldr	r4, [r7, #4]
87802458:	f64f 6e80 	movw	lr, #65152	; 0xfe80
8780245c:	ea4f 1942 	mov.w	r9, r2, lsl #5
87802460:	f6cf 7eff 	movt	lr, #65535	; 0xffff
87802464:	3b01      	subs	r3, #1
87802466:	f8d7 8000 	ldr.w	r8, [r7]
8780246a:	9404      	str	r4, [sp, #16]
8780246c:	240c      	movs	r4, #12
8780246e:	fb14 e402 	smlabb	r4, r4, r2, lr
87802472:	eb09 0982 	add.w	r9, r9, r2, lsl #2
87802476:	b2db      	uxtb	r3, r3
87802478:	9400      	str	r4, [sp, #0]
8780247a:	f102 5b80 	add.w	fp, r2, #268435456	; 0x10000000
8780247e:	f2a9 447f 	subw	r4, r9, #1151	; 0x47f
87802482:	f24d 1c88 	movw	ip, #53640	; 0xd188
87802486:	4423      	add	r3, r4
87802488:	f2c8 7c80 	movt	ip, #34688	; 0x8780
8780248c:	f1ab 0b20 	sub.w	fp, fp, #32
87802490:	9302      	str	r3, [sp, #8]
87802492:	f102 7200 	add.w	r2, r2, #33554432	; 0x2000000
87802496:	eb0c 130b 	add.w	r3, ip, fp, lsl #4
8780249a:	f249 4eac 	movw	lr, #38060	; 0x94ac
8780249e:	f2c8 7e80 	movt	lr, #34688	; 0x8780
878024a2:	3a20      	subs	r2, #32
878024a4:	9303      	str	r3, [sp, #12]
878024a6:	eb0e 13c2 	add.w	r3, lr, r2, lsl #7
878024aa:	f24c 4a2c 	movw	sl, #50220	; 0xc42c
878024ae:	f5a9 6490 	sub.w	r4, r9, #1152	; 0x480
878024b2:	f2c8 7a80 	movt	sl, #34688	; 0x8780
878024b6:	9301      	str	r3, [sp, #4]
878024b8:	f24f 259c 	movw	r5, #62108	; 0xf29c
878024bc:	9b02      	ldr	r3, [sp, #8]
878024be:	eb04 090a 	add.w	r9, r4, sl
878024c2:	9c00      	ldr	r4, [sp, #0]
878024c4:	f2c8 7580 	movt	r5, #34688	; 0x8780
878024c8:	f24d 7778 	movw	r7, #55160	; 0xd778
878024cc:	f8b5 c000 	ldrh.w	ip, [r5]
878024d0:	4453      	add	r3, sl
878024d2:	f2c8 7780 	movt	r7, #34688	; 0x8780
878024d6:	f8b5 e002 	ldrh.w	lr, [r5, #2]
878024da:	9305      	str	r3, [sp, #20]
878024dc:	19e3      	adds	r3, r4, r7
878024de:	9302      	str	r3, [sp, #8]
878024e0:	460b      	mov	r3, r1
878024e2:	2e0c      	cmp	r6, #12
878024e4:	d045      	beq.n	87802572 <tft_lcd_showchar+0x146>
878024e6:	2e10      	cmp	r6, #16
878024e8:	d046      	beq.n	87802578 <tft_lcd_showchar+0x14c>
878024ea:	2e18      	cmp	r6, #24
878024ec:	bf08      	it	eq
878024ee:	f899 2000 	ldrbeq.w	r2, [r9]
878024f2:	d003      	beq.n	878024fc <tft_lcd_showchar+0xd0>
878024f4:	2e20      	cmp	r6, #32
878024f6:	d139      	bne.n	8780256c <tft_lcd_showchar+0x140>
878024f8:	9a01      	ldr	r2, [sp, #4]
878024fa:	7812      	ldrb	r2, [r2, #0]
878024fc:	f103 0708 	add.w	r7, r3, #8
87802500:	b2bf      	uxth	r7, r7
87802502:	9700      	str	r7, [sp, #0]
87802504:	0617      	lsls	r7, r2, #24
87802506:	ea4f 0242 	mov.w	r2, r2, lsl #1
8780250a:	bf48      	it	mi
8780250c:	f895 b004 	ldrbmi.w	fp, [r5, #4]
87802510:	fb03 040e 	mla	r4, r3, lr, r0
87802514:	bf56      	itet	pl
87802516:	f895 a004 	ldrbpl.w	sl, [r5, #4]
8780251a:	9f04      	ldrmi	r7, [sp, #16]
8780251c:	696f      	ldrpl	r7, [r5, #20]
8780251e:	f103 0301 	add.w	r3, r3, #1
87802522:	b29b      	uxth	r3, r3
87802524:	b2d2      	uxtb	r2, r2
87802526:	bf51      	iteee	pl
87802528:	fb04 f40a 	mulpl.w	r4, r4, sl
8780252c:	46a2      	movmi	sl, r4
8780252e:	696c      	ldrmi	r4, [r5, #20]
87802530:	fb0a fa0b 	mulmi.w	sl, sl, fp
87802534:	bf54      	ite	pl
87802536:	f844 8007 	strpl.w	r8, [r4, r7]
8780253a:	f84a 7004 	strmi.w	r7, [sl, r4]
8780253e:	4563      	cmp	r3, ip
87802540:	eba3 0401 	sub.w	r4, r3, r1
87802544:	d212      	bcs.n	8780256c <tft_lcd_showchar+0x140>
87802546:	42a6      	cmp	r6, r4
87802548:	d019      	beq.n	8780257e <tft_lcd_showchar+0x152>
8780254a:	9c00      	ldr	r4, [sp, #0]
8780254c:	42a3      	cmp	r3, r4
8780254e:	d1d9      	bne.n	87802504 <tft_lcd_showchar+0xd8>
87802550:	9a02      	ldr	r2, [sp, #8]
87802552:	f109 0901 	add.w	r9, r9, #1
87802556:	3201      	adds	r2, #1
87802558:	9202      	str	r2, [sp, #8]
8780255a:	9a03      	ldr	r2, [sp, #12]
8780255c:	3201      	adds	r2, #1
8780255e:	9203      	str	r2, [sp, #12]
87802560:	9a01      	ldr	r2, [sp, #4]
87802562:	3201      	adds	r2, #1
87802564:	9201      	str	r2, [sp, #4]
87802566:	9a05      	ldr	r2, [sp, #20]
87802568:	4591      	cmp	r9, r2
8780256a:	d1ba      	bne.n	878024e2 <tft_lcd_showchar+0xb6>
8780256c:	b007      	add	sp, #28
8780256e:	e8bd 8ff0 	ldmia.w	sp!, {r4, r5, r6, r7, r8, r9, sl, fp, pc}
87802572:	9a02      	ldr	r2, [sp, #8]
87802574:	7812      	ldrb	r2, [r2, #0]
87802576:	e7c1      	b.n	878024fc <tft_lcd_showchar+0xd0>
87802578:	9a03      	ldr	r2, [sp, #12]
8780257a:	7812      	ldrb	r2, [r2, #0]
8780257c:	e7be      	b.n	878024fc <tft_lcd_showchar+0xd0>
8780257e:	3001      	adds	r0, #1
87802580:	b280      	uxth	r0, r0
87802582:	4570      	cmp	r0, lr
87802584:	d2f2      	bcs.n	8780256c <tft_lcd_showchar+0x140>
87802586:	460b      	mov	r3, r1
87802588:	e7e2      	b.n	87802550 <tft_lcd_showchar+0x124>
8780258a:	bf00      	nop

8780258c <tft_lcd_show_string>:
8780258c:	e92d 4ff8 	stmdb	sp!, {r3, r4, r5, r6, r7, r8, r9, sl, fp, lr}
87802590:	f24e 3b2c 	movw	fp, #58156	; 0xe32c
87802594:	4605      	mov	r5, r0
87802596:	468a      	mov	sl, r1
87802598:	4691      	mov	r9, r2
8780259a:	4680      	mov	r8, r0
8780259c:	4607      	mov	r7, r0
8780259e:	4606      	mov	r6, r0
878025a0:	f2c8 7b80 	movt	fp, #34688	; 0x8780
878025a4:	2401      	movs	r4, #1
878025a6:	1e62      	subs	r2, r4, #1
878025a8:	f8db 3008 	ldr.w	r3, [fp, #8]
878025ac:	b292      	uxth	r2, r2
878025ae:	f819 2002 	ldrb.w	r2, [r9, r2]
878025b2:	3b0c      	subs	r3, #12
878025b4:	f1a2 0120 	sub.w	r1, r2, #32
878025b8:	b2c9      	uxtb	r1, r1
878025ba:	295e      	cmp	r1, #94	; 0x5e
878025bc:	d84e      	bhi.n	8780265c <tft_lcd_show_string+0xd0>
878025be:	2b14      	cmp	r3, #20
878025c0:	d8fb      	bhi.n	878025ba <tft_lcd_show_string+0x2e>
878025c2:	a001      	add	r0, pc, #4	; (adr r0, 878025c8 <tft_lcd_show_string+0x3c>)
878025c4:	f850 f023 	ldr.w	pc, [r0, r3, lsl #2]
878025c8:	87802653 			; <UNDEFINED> instruction: 0x87802653
878025cc:	878025bb 			; <UNDEFINED> instruction: 0x878025bb
878025d0:	878025bb 			; <UNDEFINED> instruction: 0x878025bb
878025d4:	878025bb 			; <UNDEFINED> instruction: 0x878025bb
878025d8:	87802649 	strhi	r2, [r0, r9, asr #12]
878025dc:	878025bb 			; <UNDEFINED> instruction: 0x878025bb
878025e0:	878025bb 			; <UNDEFINED> instruction: 0x878025bb
878025e4:	878025bb 			; <UNDEFINED> instruction: 0x878025bb
878025e8:	878025bb 			; <UNDEFINED> instruction: 0x878025bb
878025ec:	878025bb 			; <UNDEFINED> instruction: 0x878025bb
878025f0:	878025bb 			; <UNDEFINED> instruction: 0x878025bb
878025f4:	878025bb 			; <UNDEFINED> instruction: 0x878025bb
878025f8:	8780263f 			; <UNDEFINED> instruction: 0x8780263f
878025fc:	878025bb 			; <UNDEFINED> instruction: 0x878025bb
87802600:	878025bb 			; <UNDEFINED> instruction: 0x878025bb
87802604:	878025bb 			; <UNDEFINED> instruction: 0x878025bb
87802608:	878025bb 			; <UNDEFINED> instruction: 0x878025bb
8780260c:	878025bb 			; <UNDEFINED> instruction: 0x878025bb
87802610:	878025bb 			; <UNDEFINED> instruction: 0x878025bb
87802614:	878025bb 			; <UNDEFINED> instruction: 0x878025bb
87802618:	8780261d 	usada8hi	r0, sp, r6, r2
8780261c:	4651      	mov	r1, sl
8780261e:	4630      	mov	r0, r6
87802620:	f7ff ff04 	bl	8780242c <tft_lcd_showchar>
87802624:	3401      	adds	r4, #1
87802626:	3610      	adds	r6, #16
87802628:	3706      	adds	r7, #6
8780262a:	f108 080c 	add.w	r8, r8, #12
8780262e:	3508      	adds	r5, #8
87802630:	b2a4      	uxth	r4, r4
87802632:	b2b6      	uxth	r6, r6
87802634:	b2bf      	uxth	r7, r7
87802636:	fa1f f888 	uxth.w	r8, r8
8780263a:	b2ad      	uxth	r5, r5
8780263c:	e7b3      	b.n	878025a6 <tft_lcd_show_string+0x1a>
8780263e:	4651      	mov	r1, sl
87802640:	4640      	mov	r0, r8
87802642:	f7ff fef3 	bl	8780242c <tft_lcd_showchar>
87802646:	e7ed      	b.n	87802624 <tft_lcd_show_string+0x98>
87802648:	4651      	mov	r1, sl
8780264a:	4628      	mov	r0, r5
8780264c:	f7ff feee 	bl	8780242c <tft_lcd_showchar>
87802650:	e7e8      	b.n	87802624 <tft_lcd_show_string+0x98>
87802652:	4651      	mov	r1, sl
87802654:	4638      	mov	r0, r7
87802656:	f7ff fee9 	bl	8780242c <tft_lcd_showchar>
8780265a:	e7e3      	b.n	87802624 <tft_lcd_show_string+0x98>
8780265c:	e8bd 8ff8 	ldmia.w	sp!, {r3, r4, r5, r6, r7, r8, r9, sl, fp, pc}

87802660 <tft_lcd_show_int>:
87802660:	b5f0      	push	{r4, r5, r6, r7, lr}
87802662:	b085      	sub	sp, #20
87802664:	461c      	mov	r4, r3
87802666:	4615      	mov	r5, r2
87802668:	4606      	mov	r6, r0
8780266a:	220c      	movs	r2, #12
8780266c:	460f      	mov	r7, r1
8780266e:	a801      	add	r0, sp, #4
87802670:	2100      	movs	r1, #0
87802672:	f004 fb93 	bl	87806d9c <memset>
87802676:	2120      	movs	r1, #32
87802678:	1c62      	adds	r2, r4, #1
8780267a:	a801      	add	r0, sp, #4
8780267c:	f004 fb8e 	bl	87806d9c <memset>
87802680:	2c09      	cmp	r4, #9
87802682:	bf88      	it	hi
87802684:	4629      	movhi	r1, r5
87802686:	d80b      	bhi.n	878026a0 <tft_lcd_show_int+0x40>
87802688:	b1a4      	cbz	r4, 878026b4 <tft_lcd_show_int+0x54>
8780268a:	2101      	movs	r1, #1
8780268c:	1e63      	subs	r3, r4, #1
8780268e:	00ca      	lsls	r2, r1, #3
87802690:	f013 04ff 	ands.w	r4, r3, #255	; 0xff
87802694:	eb02 0141 	add.w	r1, r2, r1, lsl #1
87802698:	d1f8      	bne.n	8780268c <tft_lcd_show_int+0x2c>
8780269a:	4628      	mov	r0, r5
8780269c:	f006 f846 	bl	8780872c <__aeabi_idivmod>
878026a0:	a801      	add	r0, sp, #4
878026a2:	f7fe fb8f 	bl	87800dc4 <func_int_to_str>
878026a6:	aa01      	add	r2, sp, #4
878026a8:	4639      	mov	r1, r7
878026aa:	4630      	mov	r0, r6
878026ac:	f7ff ff6e 	bl	8780258c <tft_lcd_show_string>
878026b0:	b005      	add	sp, #20
878026b2:	bdf0      	pop	{r4, r5, r6, r7, pc}
878026b4:	4621      	mov	r1, r4
878026b6:	e7f3      	b.n	878026a0 <tft_lcd_show_int+0x40>

878026b8 <tft_lcd_show_uint>:
878026b8:	b5f0      	push	{r4, r5, r6, r7, lr}
878026ba:	b085      	sub	sp, #20
878026bc:	461c      	mov	r4, r3
878026be:	4615      	mov	r5, r2
878026c0:	4606      	mov	r6, r0
878026c2:	220c      	movs	r2, #12
878026c4:	460f      	mov	r7, r1
878026c6:	a801      	add	r0, sp, #4
878026c8:	2100      	movs	r1, #0
878026ca:	f004 fb67 	bl	87806d9c <memset>
878026ce:	2120      	movs	r1, #32
878026d0:	4622      	mov	r2, r4
878026d2:	a801      	add	r0, sp, #4
878026d4:	f004 fb62 	bl	87806d9c <memset>
878026d8:	2c09      	cmp	r4, #9
878026da:	bf88      	it	hi
878026dc:	4629      	movhi	r1, r5
878026de:	d80b      	bhi.n	878026f8 <tft_lcd_show_uint+0x40>
878026e0:	b1a4      	cbz	r4, 8780270c <tft_lcd_show_uint+0x54>
878026e2:	2101      	movs	r1, #1
878026e4:	1e63      	subs	r3, r4, #1
878026e6:	00ca      	lsls	r2, r1, #3
878026e8:	f013 04ff 	ands.w	r4, r3, #255	; 0xff
878026ec:	eb02 0141 	add.w	r1, r2, r1, lsl #1
878026f0:	d1f8      	bne.n	878026e4 <tft_lcd_show_uint+0x2c>
878026f2:	4628      	mov	r0, r5
878026f4:	f005 fec2 	bl	8780847c <__aeabi_uidivmod>
878026f8:	a801      	add	r0, sp, #4
878026fa:	f7fe fbb3 	bl	87800e64 <func_uint_to_str>
878026fe:	aa01      	add	r2, sp, #4
87802700:	4639      	mov	r1, r7
87802702:	4630      	mov	r0, r6
87802704:	f7ff ff42 	bl	8780258c <tft_lcd_show_string>
87802708:	b005      	add	sp, #20
8780270a:	bdf0      	pop	{r4, r5, r6, r7, pc}
8780270c:	4621      	mov	r1, r4
8780270e:	e7f3      	b.n	878026f8 <tft_lcd_show_uint+0x40>

87802710 <tft_lcd_show_float>:
87802710:	b5f0      	push	{r4, r5, r6, r7, lr}
87802712:	4614      	mov	r4, r2
87802714:	ed2d 8b02 	vpush	{d8}
87802718:	b089      	sub	sp, #36	; 0x24
8780271a:	461d      	mov	r5, r3
8780271c:	2211      	movs	r2, #17
8780271e:	4606      	mov	r6, r0
87802720:	460f      	mov	r7, r1
87802722:	a803      	add	r0, sp, #12
87802724:	2100      	movs	r1, #0
87802726:	eef0 8a40 	vmov.f32	s17, s0
8780272a:	f004 fb37 	bl	87806d9c <memset>
8780272e:	1962      	adds	r2, r4, r5
87802730:	a803      	add	r0, sp, #12
87802732:	3202      	adds	r2, #2
87802734:	2120      	movs	r1, #32
87802736:	f004 fb31 	bl	87806d9c <memset>
8780273a:	2c09      	cmp	r4, #9
8780273c:	d81b      	bhi.n	87802776 <tft_lcd_show_float+0x66>
8780273e:	b34c      	cbz	r4, 87802794 <tft_lcd_show_float+0x84>
87802740:	eeb7 8a00 	vmov.f32	s16, #112	; 0x70
87802744:	eef2 7a04 	vmov.f32	s15, #36	; 0x24
87802748:	1e62      	subs	r2, r4, #1
8780274a:	ee28 8a27 	vmul.f32	s16, s16, s15
8780274e:	f012 04ff 	ands.w	r4, r2, #255	; 0xff
87802752:	d1f9      	bne.n	87802748 <tft_lcd_show_float+0x38>
87802754:	eefd 7ac8 	vcvt.s32.f32	s15, s16
87802758:	edcd 7a01 	vstr	s15, [sp, #4]
8780275c:	eefd 7ae8 	vcvt.s32.f32	s15, s17
87802760:	9901      	ldr	r1, [sp, #4]
87802762:	ee17 0a90 	vmov	r0, s15
87802766:	f005 fe97 	bl	87808498 <__aeabi_idiv>
8780276a:	ee07 0a90 	vmov	s15, r0
8780276e:	eef8 7ae7 	vcvt.f32.s32	s15, s15
87802772:	eee7 8ac8 	vfms.f32	s17, s15, s16
87802776:	4629      	mov	r1, r5
87802778:	eeb0 0a68 	vmov.f32	s0, s17
8780277c:	a803      	add	r0, sp, #12
8780277e:	f7fe fbfb 	bl	87800f78 <func_float_to_str>
87802782:	aa03      	add	r2, sp, #12
87802784:	4639      	mov	r1, r7
87802786:	4630      	mov	r0, r6
87802788:	f7ff ff00 	bl	8780258c <tft_lcd_show_string>
8780278c:	b009      	add	sp, #36	; 0x24
8780278e:	ecbd 8b02 	vpop	{d8}
87802792:	bdf0      	pop	{r4, r5, r6, r7, pc}
87802794:	2301      	movs	r3, #1
87802796:	eeb7 8a00 	vmov.f32	s16, #112	; 0x70
8780279a:	9301      	str	r3, [sp, #4]
8780279c:	e7de      	b.n	8780275c <tft_lcd_show_float+0x4c>
8780279e:	bf00      	nop

878027a0 <ft5426_write_byte>:
878027a0:	b530      	push	{r4, r5, lr}
878027a2:	b089      	sub	sp, #36	; 0x24
878027a4:	f88d 0008 	strb.w	r0, [sp, #8]
878027a8:	f44f 4080 	mov.w	r0, #16384	; 0x4000
878027ac:	2301      	movs	r3, #1
878027ae:	2400      	movs	r4, #0
878027b0:	9104      	str	r1, [sp, #16]
878027b2:	f10d 0507 	add.w	r5, sp, #7
878027b6:	a902      	add	r1, sp, #8
878027b8:	f2c0 201a 	movt	r0, #538	; 0x21a
878027bc:	9506      	str	r5, [sp, #24]
878027be:	f88d 2007 	strb.w	r2, [sp, #7]
878027c2:	9403      	str	r4, [sp, #12]
878027c4:	f88d 3014 	strb.w	r3, [sp, #20]
878027c8:	9307      	str	r3, [sp, #28]
878027ca:	f000 ffa3 	bl	87803714 <iic_master_transfer>
878027ce:	1b00      	subs	r0, r0, r4
878027d0:	bf18      	it	ne
878027d2:	2001      	movne	r0, #1
878027d4:	b009      	add	sp, #36	; 0x24
878027d6:	bd30      	pop	{r4, r5, pc}

878027d8 <ft5426_init>:
878027d8:	e92d 47f0 	stmdb	sp!, {r4, r5, r6, r7, r8, r9, sl, lr}
878027dc:	f24f 27c0 	movw	r7, #62144	; 0xf2c0
878027e0:	2000      	movs	r0, #0
878027e2:	f2c8 7780 	movt	r7, #34688	; 0x8780
878027e6:	b0a0      	sub	sp, #128	; 0x80
878027e8:	4602      	mov	r2, r0
878027ea:	f107 010c 	add.w	r1, r7, #12
878027ee:	463b      	mov	r3, r7
878027f0:	f803 0b02 	strb.w	r0, [r3], #2
878027f4:	f823 2f02 	strh.w	r2, [r3, #2]!
878027f8:	428b      	cmp	r3, r1
878027fa:	f04f 0500 	mov.w	r5, #0
878027fe:	815a      	strh	r2, [r3, #10]
87802800:	46a8      	mov	r8, r5
87802802:	d1f7      	bne.n	878027f4 <ft5426_init+0x1c>
87802804:	f64d 7444 	movw	r4, #57156	; 0xdf44
87802808:	2601      	movs	r6, #1
8780280a:	f2c8 7480 	movt	r4, #34688	; 0x8780
8780280e:	f10d 0e18 	add.w	lr, sp, #24
87802812:	cc0f      	ldmia	r4!, {r0, r1, r2, r3}
87802814:	f247 0ab0 	movw	sl, #28848	; 0x70b0
87802818:	46f4      	mov	ip, lr
8780281a:	f8cd a008 	str.w	sl, [sp, #8]
8780281e:	9601      	str	r6, [sp, #4]
87802820:	46a1      	mov	r9, r4
87802822:	e8ae 000f 	stmia.w	lr!, {r0, r1, r2, r3}
87802826:	f859 3b04 	ldr.w	r3, [r9], #4
8780282a:	70bd      	strb	r5, [r7, #2]
8780282c:	9300      	str	r3, [sp, #0]
8780282e:	f8ce 3000 	str.w	r3, [lr]
87802832:	e89c 000f 	ldmia.w	ip, {r0, r1, r2, r3}
87802836:	f000 fde9 	bl	8780340c <iomuxc_set>
8780283a:	e8b9 000f 	ldmia.w	r9!, {r0, r1, r2, r3}
8780283e:	f10d 0e2c 	add.w	lr, sp, #44	; 0x2c
87802842:	f8cd a008 	str.w	sl, [sp, #8]
87802846:	f24f 0a80 	movw	sl, #61568	; 0xf080
8780284a:	9601      	str	r6, [sp, #4]
8780284c:	f8d9 9000 	ldr.w	r9, [r9]
87802850:	e8ae 000f 	stmia.w	lr!, {r0, r1, r2, r3}
87802854:	f8cd 9000 	str.w	r9, [sp]
87802858:	f8ce 9000 	str.w	r9, [lr]
8780285c:	f241 09b0 	movw	r9, #4272	; 0x10b0
87802860:	f000 fdd4 	bl	8780340c <iomuxc_set>
87802864:	f104 0c18 	add.w	ip, r4, #24
87802868:	f10d 0e40 	add.w	lr, sp, #64	; 0x40
8780286c:	e8bc 000f 	ldmia.w	ip!, {r0, r1, r2, r3}
87802870:	342c      	adds	r4, #44	; 0x2c
87802872:	9501      	str	r5, [sp, #4]
87802874:	f8cd a008 	str.w	sl, [sp, #8]
87802878:	f8dc c000 	ldr.w	ip, [ip]
8780287c:	e8ae 000f 	stmia.w	lr!, {r0, r1, r2, r3}
87802880:	f8cd c000 	str.w	ip, [sp]
87802884:	f8ce c000 	str.w	ip, [lr]
87802888:	f000 fdc0 	bl	8780340c <iomuxc_set>
8780288c:	cc0f      	ldmia	r4!, {r0, r1, r2, r3}
8780288e:	f10d 0e54 	add.w	lr, sp, #84	; 0x54
87802892:	9501      	str	r5, [sp, #4]
87802894:	f8cd 9008 	str.w	r9, [sp, #8]
87802898:	6824      	ldr	r4, [r4, #0]
8780289a:	e8ae 000f 	stmia.w	lr!, {r0, r1, r2, r3}
8780289e:	9400      	str	r4, [sp, #0]
878028a0:	f8ce 4000 	str.w	r4, [lr]
878028a4:	2438      	movs	r4, #56	; 0x38
878028a6:	f000 fdb1 	bl	8780340c <iomuxc_set>
878028aa:	2105      	movs	r1, #5
878028ac:	2029      	movs	r0, #41	; 0x29
878028ae:	f000 fb85 	bl	87802fbc <exti_init>
878028b2:	4632      	mov	r2, r6
878028b4:	4631      	mov	r1, r6
878028b6:	20a9      	movs	r0, #169	; 0xa9
878028b8:	f000 fd62 	bl	87803380 <gpio_init>
878028bc:	0431      	lsls	r1, r6, #16
878028be:	f44f 4080 	mov.w	r0, #16384	; 0x4000
878028c2:	f2c0 201a 	movt	r0, #538	; 0x21a
878028c6:	f441 4106 	orr.w	r1, r1, #34304	; 0x8600
878028ca:	f041 01a0 	orr.w	r1, r1, #160	; 0xa0
878028ce:	f000 fdf7 	bl	878034c0 <iic_init>
878028d2:	20a9      	movs	r0, #169	; 0xa9
878028d4:	f000 fc50 	bl	87803178 <get_port>
878028d8:	4602      	mov	r2, r0
878028da:	2114      	movs	r1, #20
878028dc:	6813      	ldr	r3, [r2, #0]
878028de:	f44f 707a 	mov.w	r0, #1000	; 0x3e8
878028e2:	f423 7300 	bic.w	r3, r3, #512	; 0x200
878028e6:	6013      	str	r3, [r2, #0]
878028e8:	f000 fb32 	bl	87802f50 <system_delay>
878028ec:	20a9      	movs	r0, #169	; 0xa9
878028ee:	f000 fc43 	bl	87803178 <get_port>
878028f2:	4602      	mov	r2, r0
878028f4:	2114      	movs	r1, #20
878028f6:	6813      	ldr	r3, [r2, #0]
878028f8:	f44f 707a 	mov.w	r0, #1000	; 0x3e8
878028fc:	f443 7300 	orr.w	r3, r3, #512	; 0x200
87802900:	6013      	str	r3, [r2, #0]
87802902:	f000 fb25 	bl	87802f50 <system_delay>
87802906:	462a      	mov	r2, r5
87802908:	4629      	mov	r1, r5
8780290a:	2038      	movs	r0, #56	; 0x38
8780290c:	ad05      	add	r5, sp, #20
8780290e:	f7ff ff47 	bl	878027a0 <ft5426_write_byte>
87802912:	4632      	mov	r2, r6
87802914:	21a4      	movs	r1, #164	; 0xa4
87802916:	2038      	movs	r0, #56	; 0x38
87802918:	f7ff ff42 	bl	878027a0 <ft5426_write_byte>
8780291c:	f44f 4080 	mov.w	r0, #16384	; 0x4000
87802920:	22a1      	movs	r2, #161	; 0xa1
87802922:	2302      	movs	r3, #2
87802924:	a91a      	add	r1, sp, #104	; 0x68
87802926:	f2c0 201a 	movt	r0, #538	; 0x21a
8780292a:	951e      	str	r5, [sp, #120]	; 0x78
8780292c:	921c      	str	r2, [sp, #112]	; 0x70
8780292e:	931f      	str	r3, [sp, #124]	; 0x7c
87802930:	961b      	str	r6, [sp, #108]	; 0x6c
87802932:	f88d 6074 	strb.w	r6, [sp, #116]	; 0x74
87802936:	f88d 4068 	strb.w	r4, [sp, #104]	; 0x68
8780293a:	f000 feeb 	bl	87803714 <iic_master_transfer>
8780293e:	f89d 1014 	ldrb.w	r1, [sp, #20]
87802942:	f64d 7094 	movw	r0, #57236	; 0xdf94
87802946:	f89d 3015 	ldrb.w	r3, [sp, #21]
8780294a:	f2c8 7080 	movt	r0, #34688	; 0x8780
8780294e:	eb03 2101 	add.w	r1, r3, r1, lsl #8
87802952:	f004 f843 	bl	878069dc <printf>
87802956:	703e      	strb	r6, [r7, #0]
87802958:	f887 8001 	strb.w	r8, [r7, #1]
8780295c:	b020      	add	sp, #128	; 0x80
8780295e:	e8bd 87f0 	ldmia.w	sp!, {r4, r5, r6, r7, r8, r9, sl, pc}
87802962:	bf00      	nop

87802964 <ft5426_read_byte>:
87802964:	b510      	push	{r4, lr}
87802966:	b088      	sub	sp, #32
87802968:	f88d 0008 	strb.w	r0, [sp, #8]
8780296c:	f44f 4080 	mov.w	r0, #16384	; 0x4000
87802970:	2301      	movs	r3, #1
87802972:	2200      	movs	r2, #0
87802974:	9104      	str	r1, [sp, #16]
87802976:	f10d 0407 	add.w	r4, sp, #7
8780297a:	a902      	add	r1, sp, #8
8780297c:	f2c0 201a 	movt	r0, #538	; 0x21a
87802980:	9406      	str	r4, [sp, #24]
87802982:	f88d 2007 	strb.w	r2, [sp, #7]
87802986:	9303      	str	r3, [sp, #12]
87802988:	f88d 3014 	strb.w	r3, [sp, #20]
8780298c:	9307      	str	r3, [sp, #28]
8780298e:	f000 fec1 	bl	87803714 <iic_master_transfer>
87802992:	f89d 0007 	ldrb.w	r0, [sp, #7]
87802996:	b008      	add	sp, #32
87802998:	bd10      	pop	{r4, pc}
8780299a:	bf00      	nop

8780299c <ft5426_read_len>:
8780299c:	b510      	push	{r4, lr}
8780299e:	b086      	sub	sp, #24
878029a0:	f88d 0000 	strb.w	r0, [sp]
878029a4:	f44f 4080 	mov.w	r0, #16384	; 0x4000
878029a8:	2401      	movs	r4, #1
878029aa:	f2c0 201a 	movt	r0, #538	; 0x21a
878029ae:	9102      	str	r1, [sp, #8]
878029b0:	4669      	mov	r1, sp
878029b2:	9304      	str	r3, [sp, #16]
878029b4:	9401      	str	r4, [sp, #4]
878029b6:	9205      	str	r2, [sp, #20]
878029b8:	f88d 400c 	strb.w	r4, [sp, #12]
878029bc:	f000 feaa 	bl	87803714 <iic_master_transfer>
878029c0:	b006      	add	sp, #24
878029c2:	bd10      	pop	{r4, pc}

878029c4 <ft5426_read_tpnum>:
878029c4:	b508      	push	{r3, lr}
878029c6:	2102      	movs	r1, #2
878029c8:	2038      	movs	r0, #56	; 0x38
878029ca:	f7ff ffcb 	bl	87802964 <ft5426_read_byte>
878029ce:	f24f 23c0 	movw	r3, #62144	; 0xf2c0
878029d2:	f2c8 7380 	movt	r3, #34688	; 0x8780
878029d6:	7098      	strb	r0, [r3, #2]
878029d8:	bd08      	pop	{r3, pc}
878029da:	bf00      	nop

878029dc <ft5426_read_tpcoord>:
878029dc:	b5f0      	push	{r4, r5, r6, r7, lr}
878029de:	f24f 24c0 	movw	r4, #62144	; 0xf2c0
878029e2:	b08f      	sub	sp, #60	; 0x3c
878029e4:	2102      	movs	r1, #2
878029e6:	f2c8 7480 	movt	r4, #34688	; 0x8780
878029ea:	2038      	movs	r0, #56	; 0x38
878029ec:	f7ff ffba 	bl	87802964 <ft5426_read_byte>
878029f0:	70a0      	strb	r0, [r4, #2]
878029f2:	f44f 4080 	mov.w	r0, #16384	; 0x4000
878029f6:	2201      	movs	r2, #1
878029f8:	231e      	movs	r3, #30
878029fa:	ad06      	add	r5, sp, #24
878029fc:	f2c0 201a 	movt	r0, #538	; 0x21a
87802a00:	2738      	movs	r7, #56	; 0x38
87802a02:	2603      	movs	r6, #3
87802a04:	4669      	mov	r1, sp
87802a06:	9504      	str	r5, [sp, #16]
87802a08:	9201      	str	r2, [sp, #4]
87802a0a:	f88d 200c 	strb.w	r2, [sp, #12]
87802a0e:	f88d 7000 	strb.w	r7, [sp]
87802a12:	9602      	str	r6, [sp, #8]
87802a14:	9305      	str	r3, [sp, #20]
87802a16:	f000 fe7d 	bl	87803714 <iic_master_transfer>
87802a1a:	78a2      	ldrb	r2, [r4, #2]
87802a1c:	b1ea      	cbz	r2, 87802a5a <ft5426_read_tpcoord+0x7e>
87802a1e:	1e56      	subs	r6, r2, #1
87802a20:	462b      	mov	r3, r5
87802a22:	b2f6      	uxtb	r6, r6
87802a24:	1ca0      	adds	r0, r4, #2
87802a26:	3601      	adds	r6, #1
87802a28:	00f2      	lsls	r2, r6, #3
87802a2a:	eba2 0646 	sub.w	r6, r2, r6, lsl #1
87802a2e:	442e      	add	r6, r5
87802a30:	789d      	ldrb	r5, [r3, #2]
87802a32:	3306      	adds	r3, #6
87802a34:	f813 1c03 	ldrb.w	r1, [r3, #-3]
87802a38:	f813 4c06 	ldrb.w	r4, [r3, #-6]
87802a3c:	f813 2c05 	ldrb.w	r2, [r3, #-5]
87802a40:	42b3      	cmp	r3, r6
87802a42:	ea41 2105 	orr.w	r1, r1, r5, lsl #8
87802a46:	ea42 2204 	orr.w	r2, r2, r4, lsl #8
87802a4a:	f3c1 010b 	ubfx	r1, r1, #0, #12
87802a4e:	f820 1f02 	strh.w	r1, [r0, #2]!
87802a52:	f3c2 020b 	ubfx	r2, r2, #0, #12
87802a56:	8142      	strh	r2, [r0, #10]
87802a58:	d1ea      	bne.n	87802a30 <ft5426_read_tpcoord+0x54>
87802a5a:	b00f      	add	sp, #60	; 0x3c
87802a5c:	bdf0      	pop	{r4, r5, r6, r7, pc}
87802a5e:	bf00      	nop

87802a60 <gt9147_write_byte>:
87802a60:	b570      	push	{r4, r5, r6, lr}
87802a62:	b088      	sub	sp, #32
87802a64:	f88d 0008 	strb.w	r0, [sp, #8]
87802a68:	f44f 4080 	mov.w	r0, #16384	; 0x4000
87802a6c:	2500      	movs	r5, #0
87802a6e:	2301      	movs	r3, #1
87802a70:	9104      	str	r1, [sp, #16]
87802a72:	f10d 0607 	add.w	r6, sp, #7
87802a76:	2402      	movs	r4, #2
87802a78:	a902      	add	r1, sp, #8
87802a7a:	f2c0 201a 	movt	r0, #538	; 0x21a
87802a7e:	9606      	str	r6, [sp, #24]
87802a80:	f88d 2007 	strb.w	r2, [sp, #7]
87802a84:	9503      	str	r5, [sp, #12]
87802a86:	f88d 4014 	strb.w	r4, [sp, #20]
87802a8a:	9307      	str	r3, [sp, #28]
87802a8c:	f000 fe42 	bl	87803714 <iic_master_transfer>
87802a90:	1b40      	subs	r0, r0, r5
87802a92:	bf18      	it	ne
87802a94:	2001      	movne	r0, #1
87802a96:	b008      	add	sp, #32
87802a98:	bd70      	pop	{r4, r5, r6, pc}
87802a9a:	bf00      	nop

87802a9c <gt9147_read_byte>:
87802a9c:	b530      	push	{r4, r5, lr}
87802a9e:	b089      	sub	sp, #36	; 0x24
87802aa0:	f88d 0008 	strb.w	r0, [sp, #8]
87802aa4:	f44f 4080 	mov.w	r0, #16384	; 0x4000
87802aa8:	2301      	movs	r3, #1
87802aaa:	2202      	movs	r2, #2
87802aac:	9104      	str	r1, [sp, #16]
87802aae:	f10d 0507 	add.w	r5, sp, #7
87802ab2:	2400      	movs	r4, #0
87802ab4:	a902      	add	r1, sp, #8
87802ab6:	f2c0 201a 	movt	r0, #538	; 0x21a
87802aba:	9506      	str	r5, [sp, #24]
87802abc:	f88d 4007 	strb.w	r4, [sp, #7]
87802ac0:	9303      	str	r3, [sp, #12]
87802ac2:	9307      	str	r3, [sp, #28]
87802ac4:	f88d 2014 	strb.w	r2, [sp, #20]
87802ac8:	f000 fe24 	bl	87803714 <iic_master_transfer>
87802acc:	f89d 0007 	ldrb.w	r0, [sp, #7]
87802ad0:	b009      	add	sp, #36	; 0x24
87802ad2:	bd30      	pop	{r4, r5, pc}

87802ad4 <gt9147_init>:
87802ad4:	e92d 4ff0 	stmdb	sp!, {r4, r5, r6, r7, r8, r9, sl, fp, lr}
87802ad8:	f24f 28d8 	movw	r8, #62168	; 0xf2d8
87802adc:	2000      	movs	r0, #0
87802ade:	f2c8 7880 	movt	r8, #34688	; 0x8780
87802ae2:	b0a1      	sub	sp, #132	; 0x84
87802ae4:	4602      	mov	r2, r0
87802ae6:	f108 010c 	add.w	r1, r8, #12
87802aea:	4643      	mov	r3, r8
87802aec:	f803 0b02 	strb.w	r0, [r3], #2
87802af0:	f823 2f02 	strh.w	r2, [r3, #2]!
87802af4:	428b      	cmp	r3, r1
87802af6:	f04f 0500 	mov.w	r5, #0
87802afa:	815a      	strh	r2, [r3, #10]
87802afc:	d1f8      	bne.n	87802af0 <gt9147_init+0x1c>
87802afe:	f64d 74b4 	movw	r4, #57268	; 0xdfb4
87802b02:	2601      	movs	r6, #1
87802b04:	f2c8 7480 	movt	r4, #34688	; 0x8780
87802b08:	f247 0ab0 	movw	sl, #28848	; 0x70b0
87802b0c:	cc0f      	ldmia	r4!, {r0, r1, r2, r3}
87802b0e:	f10d 0e18 	add.w	lr, sp, #24
87802b12:	46f4      	mov	ip, lr
87802b14:	f241 0bb0 	movw	fp, #4272	; 0x10b0
87802b18:	f8cd a008 	str.w	sl, [sp, #8]
87802b1c:	9601      	str	r6, [sp, #4]
87802b1e:	4627      	mov	r7, r4
87802b20:	e8ae 000f 	stmia.w	lr!, {r0, r1, r2, r3}
87802b24:	f857 3b04 	ldr.w	r3, [r7], #4
87802b28:	f888 5002 	strb.w	r5, [r8, #2]
87802b2c:	9300      	str	r3, [sp, #0]
87802b2e:	f8ce 3000 	str.w	r3, [lr]
87802b32:	e89c 000f 	ldmia.w	ip, {r0, r1, r2, r3}
87802b36:	f000 fc69 	bl	8780340c <iomuxc_set>
87802b3a:	cf0f      	ldmia	r7!, {r0, r1, r2, r3}
87802b3c:	f10d 0e2c 	add.w	lr, sp, #44	; 0x2c
87802b40:	f8cd a008 	str.w	sl, [sp, #8]
87802b44:	9601      	str	r6, [sp, #4]
87802b46:	f8d7 c000 	ldr.w	ip, [r7]
87802b4a:	af10      	add	r7, sp, #64	; 0x40
87802b4c:	e8ae 000f 	stmia.w	lr!, {r0, r1, r2, r3}
87802b50:	f8cd c000 	str.w	ip, [sp]
87802b54:	f8ce c000 	str.w	ip, [lr]
87802b58:	f000 fc58 	bl	8780340c <iomuxc_set>
87802b5c:	f104 0c18 	add.w	ip, r4, #24
87802b60:	f8cd b008 	str.w	fp, [sp, #8]
87802b64:	e8bc 000f 	ldmia.w	ip!, {r0, r1, r2, r3}
87802b68:	9501      	str	r5, [sp, #4]
87802b6a:	f8dc a000 	ldr.w	sl, [ip]
87802b6e:	c70f      	stmia	r7!, {r0, r1, r2, r3}
87802b70:	f8cd a000 	str.w	sl, [sp]
87802b74:	f8c7 a000 	str.w	sl, [r7]
87802b78:	af15      	add	r7, sp, #84	; 0x54
87802b7a:	f000 fc47 	bl	8780340c <iomuxc_set>
87802b7e:	f104 0e2c 	add.w	lr, r4, #44	; 0x2c
87802b82:	f8cd b008 	str.w	fp, [sp, #8]
87802b86:	e8be 000f 	ldmia.w	lr!, {r0, r1, r2, r3}
87802b8a:	f04f 0b14 	mov.w	fp, #20
87802b8e:	3418      	adds	r4, #24
87802b90:	9501      	str	r5, [sp, #4]
87802b92:	f8de c000 	ldr.w	ip, [lr]
87802b96:	c70f      	stmia	r7!, {r0, r1, r2, r3}
87802b98:	f8cd c000 	str.w	ip, [sp]
87802b9c:	f8c7 c000 	str.w	ip, [r7]
87802ba0:	f248 1740 	movw	r7, #33088	; 0x8140
87802ba4:	f000 fc32 	bl	8780340c <iomuxc_set>
87802ba8:	4632      	mov	r2, r6
87802baa:	4631      	mov	r1, r6
87802bac:	2029      	movs	r0, #41	; 0x29
87802bae:	f000 fbe7 	bl	87803380 <gpio_init>
87802bb2:	4632      	mov	r2, r6
87802bb4:	4631      	mov	r1, r6
87802bb6:	20a9      	movs	r0, #169	; 0xa9
87802bb8:	f000 fbe2 	bl	87803380 <gpio_init>
87802bbc:	0431      	lsls	r1, r6, #16
87802bbe:	f44f 4080 	mov.w	r0, #16384	; 0x4000
87802bc2:	f2c0 201a 	movt	r0, #538	; 0x21a
87802bc6:	f441 4106 	orr.w	r1, r1, #34304	; 0x8600
87802bca:	f041 01a0 	orr.w	r1, r1, #160	; 0xa0
87802bce:	f000 fc77 	bl	878034c0 <iic_init>
87802bd2:	20a9      	movs	r0, #169	; 0xa9
87802bd4:	f000 fad0 	bl	87803178 <get_port>
87802bd8:	4602      	mov	r2, r0
87802bda:	210a      	movs	r1, #10
87802bdc:	6813      	ldr	r3, [r2, #0]
87802bde:	f44f 707a 	mov.w	r0, #1000	; 0x3e8
87802be2:	f423 7300 	bic.w	r3, r3, #512	; 0x200
87802be6:	6013      	str	r3, [r2, #0]
87802be8:	f000 f9b2 	bl	87802f50 <system_delay>
87802bec:	20a9      	movs	r0, #169	; 0xa9
87802bee:	f000 fac3 	bl	87803178 <get_port>
87802bf2:	4602      	mov	r2, r0
87802bf4:	210a      	movs	r1, #10
87802bf6:	6813      	ldr	r3, [r2, #0]
87802bf8:	f44f 707a 	mov.w	r0, #1000	; 0x3e8
87802bfc:	f443 7300 	orr.w	r3, r3, #512	; 0x200
87802c00:	6013      	str	r3, [r2, #0]
87802c02:	f000 f9a5 	bl	87802f50 <system_delay>
87802c06:	2029      	movs	r0, #41	; 0x29
87802c08:	f000 fab6 	bl	87803178 <get_port>
87802c0c:	4602      	mov	r2, r0
87802c0e:	2164      	movs	r1, #100	; 0x64
87802c10:	6813      	ldr	r3, [r2, #0]
87802c12:	f44f 707a 	mov.w	r0, #1000	; 0x3e8
87802c16:	f423 7300 	bic.w	r3, r3, #512	; 0x200
87802c1a:	6013      	str	r3, [r2, #0]
87802c1c:	f000 f998 	bl	87802f50 <system_delay>
87802c20:	f44f 4080 	mov.w	r0, #16384	; 0x4000
87802c24:	2202      	movs	r2, #2
87802c26:	2306      	movs	r3, #6
87802c28:	a91a      	add	r1, sp, #104	; 0x68
87802c2a:	961b      	str	r6, [sp, #108]	; 0x6c
87802c2c:	f2c0 201a 	movt	r0, #538	; 0x21a
87802c30:	ae04      	add	r6, sp, #16
87802c32:	f88d 2074 	strb.w	r2, [sp, #116]	; 0x74
87802c36:	961e      	str	r6, [sp, #120]	; 0x78
87802c38:	ae1a      	add	r6, sp, #104	; 0x68
87802c3a:	931f      	str	r3, [sp, #124]	; 0x7c
87802c3c:	f88d b068 	strb.w	fp, [sp, #104]	; 0x68
87802c40:	971c      	str	r7, [sp, #112]	; 0x70
87802c42:	f000 fd67 	bl	87803714 <iic_master_transfer>
87802c46:	f89d 3014 	ldrb.w	r3, [sp, #20]
87802c4a:	f24e 0010 	movw	r0, #57360	; 0xe010
87802c4e:	a904      	add	r1, sp, #16
87802c50:	f2c8 7080 	movt	r0, #34688	; 0x8780
87802c54:	f88d 5014 	strb.w	r5, [sp, #20]
87802c58:	f88d 3016 	strb.w	r3, [sp, #22]
87802c5c:	f003 febe 	bl	878069dc <printf>
87802c60:	f89d 3016 	ldrb.w	r3, [sp, #22]
87802c64:	f24e 001c 	movw	r0, #57372	; 0xe01c
87802c68:	f89d 1015 	ldrb.w	r1, [sp, #21]
87802c6c:	f2c8 7080 	movt	r0, #34688	; 0x8780
87802c70:	ea43 2101 	orr.w	r1, r3, r1, lsl #8
87802c74:	f003 feb2 	bl	878069dc <printf>
87802c78:	cc0f      	ldmia	r4!, {r0, r1, r2, r3}
87802c7a:	2480      	movs	r4, #128	; 0x80
87802c7c:	f8cd a000 	str.w	sl, [sp]
87802c80:	9501      	str	r5, [sp, #4]
87802c82:	c60f      	stmia	r6!, {r0, r1, r2, r3}
87802c84:	ab1a      	add	r3, sp, #104	; 0x68
87802c86:	9402      	str	r4, [sp, #8]
87802c88:	f8c6 a000 	str.w	sl, [r6]
87802c8c:	cb0f      	ldmia	r3, {r0, r1, r2, r3}
87802c8e:	f000 fbbd 	bl	8780340c <iomuxc_set>
87802c92:	f89d 3010 	ldrb.w	r3, [sp, #16]
87802c96:	4658      	mov	r0, fp
87802c98:	2b31      	cmp	r3, #49	; 0x31
87802c9a:	d06a      	beq.n	87802d72 <gt9147_init+0x29e>
87802c9c:	f248 014d 	movw	r1, #32845	; 0x804d
87802ca0:	f7ff fefc 	bl	87802a9c <gt9147_read_byte>
87802ca4:	f000 0303 	and.w	r3, r0, #3
87802ca8:	f24e 0030 	movw	r0, #57392	; 0xe030
87802cac:	f2c8 7080 	movt	r0, #34688	; 0x8780
87802cb0:	f88d 3010 	strb.w	r3, [sp, #16]
87802cb4:	f003 fe92 	bl	878069dc <printf>
87802cb8:	f89d 0010 	ldrb.w	r0, [sp, #16]
87802cbc:	2803      	cmp	r0, #3
87802cbe:	d861      	bhi.n	87802d84 <gt9147_init+0x2b0>
87802cc0:	e8df f000 	tbb	[pc, r0]
87802cc4:	02323a42 	eorseq	r3, r2, #270336	; 0x42000
87802cc8:	f24e 0094 	movw	r0, #57492	; 0xe094
87802ccc:	2502      	movs	r5, #2
87802cce:	f2c8 7080 	movt	r0, #34688	; 0x8780
87802cd2:	f003 fe83 	bl	878069dc <printf>
87802cd6:	2202      	movs	r2, #2
87802cd8:	f248 0140 	movw	r1, #32832	; 0x8040
87802cdc:	2014      	movs	r0, #20
87802cde:	f7ff febf 	bl	87802a60 <gt9147_write_byte>
87802ce2:	4604      	mov	r4, r0
87802ce4:	bbc0      	cbnz	r0, 87802d58 <gt9147_init+0x284>
87802ce6:	210a      	movs	r1, #10
87802ce8:	f44f 707a 	mov.w	r0, #1000	; 0x3e8
87802cec:	f000 f930 	bl	87802f50 <system_delay>
87802cf0:	4622      	mov	r2, r4
87802cf2:	f248 0140 	movw	r1, #32832	; 0x8040
87802cf6:	2014      	movs	r0, #20
87802cf8:	f7ff feb2 	bl	87802a60 <gt9147_write_byte>
87802cfc:	4629      	mov	r1, r5
87802cfe:	2029      	movs	r0, #41	; 0x29
87802d00:	f000 f95c 	bl	87802fbc <exti_init>
87802d04:	210a      	movs	r1, #10
87802d06:	f44f 707a 	mov.w	r0, #1000	; 0x3e8
87802d0a:	f000 f921 	bl	87802f50 <system_delay>
87802d0e:	2301      	movs	r3, #1
87802d10:	f888 4001 	strb.w	r4, [r8, #1]
87802d14:	f888 3000 	strb.w	r3, [r8]
87802d18:	210a      	movs	r1, #10
87802d1a:	f44f 707a 	mov.w	r0, #1000	; 0x3e8
87802d1e:	f000 f917 	bl	87802f50 <system_delay>
87802d22:	b021      	add	sp, #132	; 0x84
87802d24:	e8bd 8ff0 	ldmia.w	sp!, {r4, r5, r6, r7, r8, r9, sl, fp, pc}
87802d28:	f24e 0078 	movw	r0, #57464	; 0xe078
87802d2c:	2501      	movs	r5, #1
87802d2e:	f2c8 7080 	movt	r0, #34688	; 0x8780
87802d32:	f003 fe53 	bl	878069dc <printf>
87802d36:	e7ce      	b.n	87802cd6 <gt9147_init+0x202>
87802d38:	f24e 0058 	movw	r0, #57432	; 0xe058
87802d3c:	2504      	movs	r5, #4
87802d3e:	f2c8 7080 	movt	r0, #34688	; 0x8780
87802d42:	f003 fe4b 	bl	878069dc <printf>
87802d46:	e7c6      	b.n	87802cd6 <gt9147_init+0x202>
87802d48:	f24e 0038 	movw	r0, #57400	; 0xe038
87802d4c:	2503      	movs	r5, #3
87802d4e:	f2c8 7080 	movt	r0, #34688	; 0x8780
87802d52:	f003 fe43 	bl	878069dc <printf>
87802d56:	e7be      	b.n	87802cd6 <gt9147_init+0x202>
87802d58:	f24e 5334 	movw	r3, #58676	; 0xe534
87802d5c:	f24e 00cc 	movw	r0, #57548	; 0xe0cc
87802d60:	f2c8 7380 	movt	r3, #34688	; 0x8780
87802d64:	2201      	movs	r2, #1
87802d66:	f2c8 7080 	movt	r0, #34688	; 0x8780
87802d6a:	601a      	str	r2, [r3, #0]
87802d6c:	f003 fe36 	bl	878069dc <printf>
87802d70:	e7d2      	b.n	87802d18 <gt9147_init+0x244>
87802d72:	f248 0156 	movw	r1, #32854	; 0x8056
87802d76:	f7ff fe91 	bl	87802a9c <gt9147_read_byte>
87802d7a:	f000 0003 	and.w	r0, r0, #3
87802d7e:	f88d 0010 	strb.w	r0, [sp, #16]
87802d82:	e79b      	b.n	87802cbc <gt9147_init+0x1e8>
87802d84:	f24e 00b4 	movw	r0, #57524	; 0xe0b4
87802d88:	2505      	movs	r5, #5
87802d8a:	f2c8 7080 	movt	r0, #34688	; 0x8780
87802d8e:	f003 fe25 	bl	878069dc <printf>
87802d92:	e7a0      	b.n	87802cd6 <gt9147_init+0x202>

87802d94 <gt9147_read_len>:
87802d94:	b530      	push	{r4, r5, lr}
87802d96:	b087      	sub	sp, #28
87802d98:	f88d 0000 	strb.w	r0, [sp]
87802d9c:	f44f 4080 	mov.w	r0, #16384	; 0x4000
87802da0:	2501      	movs	r5, #1
87802da2:	2402      	movs	r4, #2
87802da4:	9102      	str	r1, [sp, #8]
87802da6:	f2c0 201a 	movt	r0, #538	; 0x21a
87802daa:	4669      	mov	r1, sp
87802dac:	9304      	str	r3, [sp, #16]
87802dae:	9501      	str	r5, [sp, #4]
87802db0:	9205      	str	r2, [sp, #20]
87802db2:	f88d 400c 	strb.w	r4, [sp, #12]
87802db6:	f000 fcad 	bl	87803714 <iic_master_transfer>
87802dba:	b007      	add	sp, #28
87802dbc:	bd30      	pop	{r4, r5, pc}
87802dbe:	bf00      	nop

87802dc0 <gt9147_write_len>:
87802dc0:	b530      	push	{r4, r5, lr}
87802dc2:	b087      	sub	sp, #28
87802dc4:	f88d 0000 	strb.w	r0, [sp]
87802dc8:	f44f 4080 	mov.w	r0, #16384	; 0x4000
87802dcc:	2500      	movs	r5, #0
87802dce:	2402      	movs	r4, #2
87802dd0:	9102      	str	r1, [sp, #8]
87802dd2:	f2c0 201a 	movt	r0, #538	; 0x21a
87802dd6:	4669      	mov	r1, sp
87802dd8:	9304      	str	r3, [sp, #16]
87802dda:	9501      	str	r5, [sp, #4]
87802ddc:	9205      	str	r2, [sp, #20]
87802dde:	f88d 400c 	strb.w	r4, [sp, #12]
87802de2:	f000 fc97 	bl	87803714 <iic_master_transfer>
87802de6:	b007      	add	sp, #28
87802de8:	bd30      	pop	{r4, r5, pc}
87802dea:	bf00      	nop

87802dec <gt9147_send_cfg>:
87802dec:	4a1e      	ldr	r2, [pc, #120]	; (87802e68 <gt9147_send_cfg+0x7c>)
87802dee:	2300      	movs	r3, #0
87802df0:	b5f0      	push	{r4, r5, r6, r7, lr}
87802df2:	b089      	sub	sp, #36	; 0x24
87802df4:	f88d 0005 	strb.w	r0, [sp, #5]
87802df8:	f102 00b8 	add.w	r0, r2, #184	; 0xb8
87802dfc:	f812 1f01 	ldrb.w	r1, [r2, #1]!
87802e00:	4282      	cmp	r2, r0
87802e02:	440b      	add	r3, r1
87802e04:	b2db      	uxtb	r3, r3
87802e06:	d1f9      	bne.n	87802dfc <gt9147_send_cfg+0x10>
87802e08:	425b      	negs	r3, r3
87802e0a:	f24e 3238 	movw	r2, #58168	; 0xe338
87802e0e:	f44f 4080 	mov.w	r0, #16384	; 0x4000
87802e12:	2402      	movs	r4, #2
87802e14:	f2c8 7280 	movt	r2, #34688	; 0x8780
87802e18:	a902      	add	r1, sp, #8
87802e1a:	2614      	movs	r6, #20
87802e1c:	2500      	movs	r5, #0
87802e1e:	f88d 3004 	strb.w	r3, [sp, #4]
87802e22:	f248 0747 	movw	r7, #32839	; 0x8047
87802e26:	23b8      	movs	r3, #184	; 0xb8
87802e28:	f2c0 201a 	movt	r0, #538	; 0x21a
87802e2c:	9206      	str	r2, [sp, #24]
87802e2e:	f88d 6008 	strb.w	r6, [sp, #8]
87802e32:	9307      	str	r3, [sp, #28]
87802e34:	9503      	str	r5, [sp, #12]
87802e36:	9704      	str	r7, [sp, #16]
87802e38:	f88d 4014 	strb.w	r4, [sp, #20]
87802e3c:	f000 fc6a 	bl	87803714 <iic_master_transfer>
87802e40:	f44f 4080 	mov.w	r0, #16384	; 0x4000
87802e44:	aa01      	add	r2, sp, #4
87802e46:	f248 03ff 	movw	r3, #33023	; 0x80ff
87802e4a:	a902      	add	r1, sp, #8
87802e4c:	f2c0 201a 	movt	r0, #538	; 0x21a
87802e50:	9206      	str	r2, [sp, #24]
87802e52:	f88d 6008 	strb.w	r6, [sp, #8]
87802e56:	9503      	str	r5, [sp, #12]
87802e58:	f88d 4014 	strb.w	r4, [sp, #20]
87802e5c:	9304      	str	r3, [sp, #16]
87802e5e:	9407      	str	r4, [sp, #28]
87802e60:	f000 fc58 	bl	87803714 <iic_master_transfer>
87802e64:	b009      	add	sp, #36	; 0x24
87802e66:	bdf0      	pop	{r4, r5, r6, r7, pc}
87802e68:	8780e337 			; <UNDEFINED> instruction: 0x8780e337

87802e6c <gt9147_read_tpcoord>:
87802e6c:	e92d 47f0 	stmdb	sp!, {r4, r5, r6, r7, r8, r9, sl, lr}
87802e70:	f248 114e 	movw	r1, #33102	; 0x814e
87802e74:	b088      	sub	sp, #32
87802e76:	2014      	movs	r0, #20
87802e78:	f24f 2ad8 	movw	sl, #62168	; 0xf2d8
87802e7c:	f7ff fe0e 	bl	87802a9c <gt9147_read_byte>
87802e80:	2200      	movs	r2, #0
87802e82:	4604      	mov	r4, r0
87802e84:	f248 114e 	movw	r1, #33102	; 0x814e
87802e88:	2014      	movs	r0, #20
87802e8a:	f7ff fde9 	bl	87802a60 <gt9147_write_byte>
87802e8e:	f004 000f 	and.w	r0, r4, #15
87802e92:	f2c8 7a80 	movt	sl, #34688	; 0x8780
87802e96:	f88a 0002 	strb.w	r0, [sl, #2]
87802e9a:	b3b8      	cbz	r0, 87802f0c <gt9147_read_tpcoord+0xa0>
87802e9c:	f64d 76b4 	movw	r6, #57268	; 0xdfb4
87802ea0:	2400      	movs	r4, #0
87802ea2:	f2c8 7680 	movt	r6, #34688	; 0x8780
87802ea6:	f10d 0904 	add.w	r9, sp, #4
87802eaa:	f04f 0814 	mov.w	r8, #20
87802eae:	2701      	movs	r7, #1
87802eb0:	0065      	lsls	r5, r4, #1
87802eb2:	f44f 4080 	mov.w	r0, #16384	; 0x4000
87802eb6:	2202      	movs	r2, #2
87802eb8:	f8cd 9018 	str.w	r9, [sp, #24]
87802ebc:	1973      	adds	r3, r6, r5
87802ebe:	a902      	add	r1, sp, #8
87802ec0:	f8b3 e050 	ldrh.w	lr, [r3, #80]	; 0x50
87802ec4:	f2c0 201a 	movt	r0, #538	; 0x21a
87802ec8:	2304      	movs	r3, #4
87802eca:	f88d 2014 	strb.w	r2, [sp, #20]
87802ece:	9307      	str	r3, [sp, #28]
87802ed0:	4455      	add	r5, sl
87802ed2:	f8cd e010 	str.w	lr, [sp, #16]
87802ed6:	f88d 8008 	strb.w	r8, [sp, #8]
87802eda:	9703      	str	r7, [sp, #12]
87802edc:	f000 fc1a 	bl	87803714 <iic_master_transfer>
87802ee0:	1c63      	adds	r3, r4, #1
87802ee2:	eb0a 0044 	add.w	r0, sl, r4, lsl #1
87802ee6:	f89d c005 	ldrb.w	ip, [sp, #5]
87802eea:	b2dc      	uxtb	r4, r3
87802eec:	f89d 2004 	ldrb.w	r2, [sp, #4]
87802ef0:	f89d e007 	ldrb.w	lr, [sp, #7]
87802ef4:	f89d 3006 	ldrb.w	r3, [sp, #6]
87802ef8:	f89a 1002 	ldrb.w	r1, [sl, #2]
87802efc:	eb02 220c 	add.w	r2, r2, ip, lsl #8
87802f00:	eb03 230e 	add.w	r3, r3, lr, lsl #8
87802f04:	42a1      	cmp	r1, r4
87802f06:	80aa      	strh	r2, [r5, #4]
87802f08:	81c3      	strh	r3, [r0, #14]
87802f0a:	d8d1      	bhi.n	87802eb0 <gt9147_read_tpcoord+0x44>
87802f0c:	b008      	add	sp, #32
87802f0e:	e8bd 87f0 	ldmia.w	sp!, {r4, r5, r6, r7, r8, r9, sl, pc}
87802f12:	bf00      	nop

87802f14 <gpt_clock_delay_init>:
87802f14:	f44f 4300 	mov.w	r3, #32768	; 0x8000
87802f18:	2000      	movs	r0, #0
87802f1a:	f2c0 2309 	movt	r3, #521	; 0x209
87802f1e:	f44f 4200 	mov.w	r2, #32768	; 0x8000
87802f22:	4619      	mov	r1, r3
87802f24:	6018      	str	r0, [r3, #0]
87802f26:	601a      	str	r2, [r3, #0]
87802f28:	680a      	ldr	r2, [r1, #0]
87802f2a:	f44f 4300 	mov.w	r3, #32768	; 0x8000
87802f2e:	f2c0 2309 	movt	r3, #521	; 0x209
87802f32:	0412      	lsls	r2, r2, #16
87802f34:	d4f8      	bmi.n	87802f28 <gpt_clock_delay_init+0x14>
87802f36:	f04f 32ff 	mov.w	r2, #4294967295	; 0xffffffff
87802f3a:	2040      	movs	r0, #64	; 0x40
87802f3c:	2141      	movs	r1, #65	; 0x41
87802f3e:	6018      	str	r0, [r3, #0]
87802f40:	6059      	str	r1, [r3, #4]
87802f42:	611a      	str	r2, [r3, #16]
87802f44:	681a      	ldr	r2, [r3, #0]
87802f46:	f042 0201 	orr.w	r2, r2, #1
87802f4a:	601a      	str	r2, [r3, #0]
87802f4c:	4770      	bx	lr
87802f4e:	bf00      	nop

87802f50 <system_delay>:
87802f50:	f111 31ff 	adds.w	r1, r1, #4294967295	; 0xffffffff
87802f54:	b470      	push	{r4, r5, r6}
87802f56:	f44f 4400 	mov.w	r4, #32768	; 0x8000
87802f5a:	f2c0 2409 	movt	r4, #521	; 0x209
87802f5e:	d313      	bcc.n	87802f88 <system_delay+0x38>
87802f60:	6a62      	ldr	r2, [r4, #36]	; 0x24
87802f62:	2500      	movs	r5, #0
87802f64:	6a63      	ldr	r3, [r4, #36]	; 0x24
87802f66:	429a      	cmp	r2, r3
87802f68:	d0fc      	beq.n	87802f64 <system_delay+0x14>
87802f6a:	f105 36ff 	add.w	r6, r5, #4294967295	; 0xffffffff
87802f6e:	eba5 0502 	sub.w	r5, r5, r2
87802f72:	eba6 0202 	sub.w	r2, r6, r2
87802f76:	bf34      	ite	cc
87802f78:	18ed      	addcc	r5, r5, r3
87802f7a:	18d5      	addcs	r5, r2, r3
87802f7c:	461a      	mov	r2, r3
87802f7e:	4285      	cmp	r5, r0
87802f80:	d3f0      	bcc.n	87802f64 <system_delay+0x14>
87802f82:	f111 31ff 	adds.w	r1, r1, #4294967295	; 0xffffffff
87802f86:	d2eb      	bcs.n	87802f60 <system_delay+0x10>
87802f88:	bc70      	pop	{r4, r5, r6}
87802f8a:	4770      	bx	lr

87802f8c <exti_flag_get>:
87802f8c:	b510      	push	{r4, lr}
87802f8e:	4604      	mov	r4, r0
87802f90:	f000 f8f2 	bl	87803178 <get_port>
87802f94:	f004 041f 	and.w	r4, r4, #31
87802f98:	6980      	ldr	r0, [r0, #24]
87802f9a:	40e0      	lsrs	r0, r4
87802f9c:	f000 0001 	and.w	r0, r0, #1
87802fa0:	bd10      	pop	{r4, pc}
87802fa2:	bf00      	nop

87802fa4 <exti_flag_clear>:
87802fa4:	b510      	push	{r4, lr}
87802fa6:	4604      	mov	r4, r0
87802fa8:	f004 041f 	and.w	r4, r4, #31
87802fac:	f000 f8e4 	bl	87803178 <get_port>
87802fb0:	2301      	movs	r3, #1
87802fb2:	6982      	ldr	r2, [r0, #24]
87802fb4:	40a3      	lsls	r3, r4
87802fb6:	4313      	orrs	r3, r2
87802fb8:	6183      	str	r3, [r0, #24]
87802fba:	bd10      	pop	{r4, pc}

87802fbc <exti_init>:
87802fbc:	b5f0      	push	{r4, r5, r6, r7, lr}
87802fbe:	2301      	movs	r3, #1
87802fc0:	b085      	sub	sp, #20
87802fc2:	f000 051f 	and.w	r5, r0, #31
87802fc6:	2600      	movs	r6, #0
87802fc8:	4604      	mov	r4, r0
87802fca:	f88d 3008 	strb.w	r3, [sp, #8]
87802fce:	9103      	str	r1, [sp, #12]
87802fd0:	9601      	str	r6, [sp, #4]
87802fd2:	f000 f8d1 	bl	87803178 <get_port>
87802fd6:	4629      	mov	r1, r5
87802fd8:	aa01      	add	r2, sp, #4
87802fda:	f002 f971 	bl	878052c0 <GPIO_PinInit>
87802fde:	f1a4 0320 	sub.w	r3, r4, #32
87802fe2:	2b1f      	cmp	r3, #31
87802fe4:	d81b      	bhi.n	8780301e <exti_init+0x62>
87802fe6:	2d0f      	cmp	r5, #15
87802fe8:	d943      	bls.n	87803072 <exti_init+0xb6>
87802fea:	ee9f 3f10 	mrc	15, 4, r3, cr15, cr0, {0}
87802fee:	0c1b      	lsrs	r3, r3, #16
87802ff0:	f241 100c 	movw	r0, #4364	; 0x110c
87802ff4:	2708      	movs	r7, #8
87802ff6:	041b      	lsls	r3, r3, #16
87802ff8:	f640 312d 	movw	r1, #2861	; 0xb2d
87802ffc:	4632      	mov	r2, r6
87802ffe:	501f      	str	r7, [r3, r0]
87803000:	f2c8 7180 	movt	r1, #34688	; 0x8780
87803004:	2063      	movs	r0, #99	; 0x63
87803006:	f003 fb2d 	bl	87806664 <SystemInstallIrqHandler>
8780300a:	4620      	mov	r0, r4
8780300c:	f000 f8b4 	bl	87803178 <get_port>
87803010:	2301      	movs	r3, #1
87803012:	6942      	ldr	r2, [r0, #20]
87803014:	40ab      	lsls	r3, r5
87803016:	4313      	orrs	r3, r2
87803018:	6143      	str	r3, [r0, #20]
8780301a:	b005      	add	sp, #20
8780301c:	bdf0      	pop	{r4, r5, r6, r7, pc}
8780301e:	2c5f      	cmp	r4, #95	; 0x5f
87803020:	d812      	bhi.n	87803048 <exti_init+0x8c>
87803022:	2d0f      	cmp	r5, #15
87803024:	d836      	bhi.n	87803094 <exti_init+0xd8>
87803026:	ee9f 3f10 	mrc	15, 4, r3, cr15, cr0, {0}
8780302a:	0c1b      	lsrs	r3, r3, #16
8780302c:	2710      	movs	r7, #16
8780302e:	f241 100c 	movw	r0, #4364	; 0x110c
87803032:	40bb      	lsls	r3, r7
87803034:	f640 314d 	movw	r1, #2893	; 0xb4d
87803038:	4632      	mov	r2, r6
8780303a:	501f      	str	r7, [r3, r0]
8780303c:	f2c8 7180 	movt	r1, #34688	; 0x8780
87803040:	2064      	movs	r0, #100	; 0x64
87803042:	f003 fb0f 	bl	87806664 <SystemInstallIrqHandler>
87803046:	e7e0      	b.n	8780300a <exti_init+0x4e>
87803048:	2c7f      	cmp	r4, #127	; 0x7f
8780304a:	d834      	bhi.n	878030b6 <exti_init+0xfa>
8780304c:	2d0f      	cmp	r5, #15
8780304e:	d85e      	bhi.n	8780310e <exti_init+0x152>
87803050:	ee9f 3f10 	mrc	15, 4, r3, cr15, cr0, {0}
87803054:	0c1b      	lsrs	r3, r3, #16
87803056:	f241 100c 	movw	r0, #4364	; 0x110c
8780305a:	2740      	movs	r7, #64	; 0x40
8780305c:	041b      	lsls	r3, r3, #16
8780305e:	f640 315d 	movw	r1, #2909	; 0xb5d
87803062:	4632      	mov	r2, r6
87803064:	501f      	str	r7, [r3, r0]
87803066:	f2c8 7180 	movt	r1, #34688	; 0x8780
8780306a:	2066      	movs	r0, #102	; 0x66
8780306c:	f003 fafa 	bl	87806664 <SystemInstallIrqHandler>
87803070:	e7cb      	b.n	8780300a <exti_init+0x4e>
87803072:	ee9f 3f10 	mrc	15, 4, r3, cr15, cr0, {0}
87803076:	0c1b      	lsrs	r3, r3, #16
87803078:	f241 100c 	movw	r0, #4364	; 0x110c
8780307c:	2704      	movs	r7, #4
8780307e:	041b      	lsls	r3, r3, #16
87803080:	f640 21e9 	movw	r1, #2793	; 0xae9
87803084:	4632      	mov	r2, r6
87803086:	501f      	str	r7, [r3, r0]
87803088:	f2c8 7180 	movt	r1, #34688	; 0x8780
8780308c:	2062      	movs	r0, #98	; 0x62
8780308e:	f003 fae9 	bl	87806664 <SystemInstallIrqHandler>
87803092:	e7ba      	b.n	8780300a <exti_init+0x4e>
87803094:	ee9f 3f10 	mrc	15, 4, r3, cr15, cr0, {0}
87803098:	0c1b      	lsrs	r3, r3, #16
8780309a:	f241 100c 	movw	r0, #4364	; 0x110c
8780309e:	2720      	movs	r7, #32
878030a0:	041b      	lsls	r3, r3, #16
878030a2:	f640 3155 	movw	r1, #2901	; 0xb55
878030a6:	4632      	mov	r2, r6
878030a8:	501f      	str	r7, [r3, r0]
878030aa:	f2c8 7180 	movt	r1, #34688	; 0x8780
878030ae:	2065      	movs	r0, #101	; 0x65
878030b0:	f003 fad8 	bl	87806664 <SystemInstallIrqHandler>
878030b4:	e7a9      	b.n	8780300a <exti_init+0x4e>
878030b6:	2c9f      	cmp	r4, #159	; 0x9f
878030b8:	d813      	bhi.n	878030e2 <exti_init+0x126>
878030ba:	2d0f      	cmp	r5, #15
878030bc:	d838      	bhi.n	87803130 <exti_init+0x174>
878030be:	ee9f 3f10 	mrc	15, 4, r3, cr15, cr0, {0}
878030c2:	0c1b      	lsrs	r3, r3, #16
878030c4:	f241 100c 	movw	r0, #4364	; 0x110c
878030c8:	f44f 7780 	mov.w	r7, #256	; 0x100
878030cc:	041b      	lsls	r3, r3, #16
878030ce:	f640 316d 	movw	r1, #2925	; 0xb6d
878030d2:	4632      	mov	r2, r6
878030d4:	501f      	str	r7, [r3, r0]
878030d6:	f2c8 7180 	movt	r1, #34688	; 0x8780
878030da:	2068      	movs	r0, #104	; 0x68
878030dc:	f003 fac2 	bl	87806664 <SystemInstallIrqHandler>
878030e0:	e793      	b.n	8780300a <exti_init+0x4e>
878030e2:	2cbf      	cmp	r4, #191	; 0xbf
878030e4:	d891      	bhi.n	8780300a <exti_init+0x4e>
878030e6:	2d0f      	cmp	r5, #15
878030e8:	d934      	bls.n	87803154 <exti_init+0x198>
878030ea:	ee9f 3f10 	mrc	15, 4, r3, cr15, cr0, {0}
878030ee:	0c1b      	lsrs	r3, r3, #16
878030f0:	f241 100c 	movw	r0, #4364	; 0x110c
878030f4:	f44f 6700 	mov.w	r7, #2048	; 0x800
878030f8:	041b      	lsls	r3, r3, #16
878030fa:	f640 3185 	movw	r1, #2949	; 0xb85
878030fe:	4632      	mov	r2, r6
87803100:	501f      	str	r7, [r3, r0]
87803102:	f2c8 7180 	movt	r1, #34688	; 0x8780
87803106:	206b      	movs	r0, #107	; 0x6b
87803108:	f003 faac 	bl	87806664 <SystemInstallIrqHandler>
8780310c:	e77d      	b.n	8780300a <exti_init+0x4e>
8780310e:	ee9f 3f10 	mrc	15, 4, r3, cr15, cr0, {0}
87803112:	0c1b      	lsrs	r3, r3, #16
87803114:	f241 100c 	movw	r0, #4364	; 0x110c
87803118:	2780      	movs	r7, #128	; 0x80
8780311a:	041b      	lsls	r3, r3, #16
8780311c:	f640 3165 	movw	r1, #2917	; 0xb65
87803120:	4632      	mov	r2, r6
87803122:	501f      	str	r7, [r3, r0]
87803124:	f2c8 7180 	movt	r1, #34688	; 0x8780
87803128:	2067      	movs	r0, #103	; 0x67
8780312a:	f003 fa9b 	bl	87806664 <SystemInstallIrqHandler>
8780312e:	e76c      	b.n	8780300a <exti_init+0x4e>
87803130:	ee9f 3f10 	mrc	15, 4, r3, cr15, cr0, {0}
87803134:	0c1b      	lsrs	r3, r3, #16
87803136:	f241 100c 	movw	r0, #4364	; 0x110c
8780313a:	f44f 7700 	mov.w	r7, #512	; 0x200
8780313e:	041b      	lsls	r3, r3, #16
87803140:	f640 3175 	movw	r1, #2933	; 0xb75
87803144:	4632      	mov	r2, r6
87803146:	501f      	str	r7, [r3, r0]
87803148:	f2c8 7180 	movt	r1, #34688	; 0x8780
8780314c:	2069      	movs	r0, #105	; 0x69
8780314e:	f003 fa89 	bl	87806664 <SystemInstallIrqHandler>
87803152:	e75a      	b.n	8780300a <exti_init+0x4e>
87803154:	ee9f 3f10 	mrc	15, 4, r3, cr15, cr0, {0}
87803158:	0c1b      	lsrs	r3, r3, #16
8780315a:	f241 100c 	movw	r0, #4364	; 0x110c
8780315e:	f44f 6780 	mov.w	r7, #1024	; 0x400
87803162:	041b      	lsls	r3, r3, #16
87803164:	f640 317d 	movw	r1, #2941	; 0xb7d
87803168:	4632      	mov	r2, r6
8780316a:	501f      	str	r7, [r3, r0]
8780316c:	f2c8 7180 	movt	r1, #34688	; 0x8780
87803170:	206a      	movs	r0, #106	; 0x6a
87803172:	f003 fa77 	bl	87806664 <SystemInstallIrqHandler>
87803176:	e748      	b.n	8780300a <exti_init+0x4e>

87803178 <get_port>:
87803178:	f64f 73e0 	movw	r3, #65504	; 0xffe0
8780317c:	4003      	ands	r3, r0
8780317e:	2b60      	cmp	r3, #96	; 0x60
87803180:	d01d      	beq.n	878031be <get_port+0x46>
87803182:	d807      	bhi.n	87803194 <get_port+0x1c>
87803184:	2b20      	cmp	r3, #32
87803186:	d015      	beq.n	878031b4 <get_port+0x3c>
87803188:	2b40      	cmp	r3, #64	; 0x40
8780318a:	d10c      	bne.n	878031a6 <get_port+0x2e>
8780318c:	2000      	movs	r0, #0
8780318e:	f2c0 200a 	movt	r0, #522	; 0x20a
87803192:	4770      	bx	lr
87803194:	2b80      	cmp	r3, #128	; 0x80
87803196:	d008      	beq.n	878031aa <get_port+0x32>
87803198:	2ba0      	cmp	r3, #160	; 0xa0
8780319a:	d104      	bne.n	878031a6 <get_port+0x2e>
8780319c:	f44f 4040 	mov.w	r0, #49152	; 0xc000
878031a0:	f2c0 200a 	movt	r0, #522	; 0x20a
878031a4:	4770      	bx	lr
878031a6:	2000      	movs	r0, #0
878031a8:	4770      	bx	lr
878031aa:	f44f 4000 	mov.w	r0, #32768	; 0x8000
878031ae:	f2c0 200a 	movt	r0, #522	; 0x20a
878031b2:	4770      	bx	lr
878031b4:	f44f 4040 	mov.w	r0, #49152	; 0xc000
878031b8:	f2c0 2009 	movt	r0, #521	; 0x209
878031bc:	4770      	bx	lr
878031be:	f44f 4080 	mov.w	r0, #16384	; 0x4000
878031c2:	f2c0 200a 	movt	r0, #522	; 0x20a
878031c6:	4770      	bx	lr

878031c8 <gpio_set_level>:
878031c8:	f64f 73e0 	movw	r3, #65504	; 0xffe0
878031cc:	4003      	ands	r3, r0
878031ce:	f000 001f 	and.w	r0, r0, #31
878031d2:	2b60      	cmp	r3, #96	; 0x60
878031d4:	d02c      	beq.n	87803230 <gpio_set_level+0x68>
878031d6:	d813      	bhi.n	87803200 <gpio_set_level+0x38>
878031d8:	2b20      	cmp	r3, #32
878031da:	bf04      	itt	eq
878031dc:	f44f 4340 	moveq.w	r3, #49152	; 0xc000
878031e0:	f2c0 2309 	movteq	r3, #521	; 0x209
878031e4:	d005      	beq.n	878031f2 <gpio_set_level+0x2a>
878031e6:	2b40      	cmp	r3, #64	; 0x40
878031e8:	bf04      	itt	eq
878031ea:	2300      	moveq	r3, #0
878031ec:	f2c0 230a 	movteq	r3, #522	; 0x20a
878031f0:	d114      	bne.n	8780321c <gpio_set_level+0x54>
878031f2:	2201      	movs	r2, #1
878031f4:	b1b1      	cbz	r1, 87803224 <gpio_set_level+0x5c>
878031f6:	6819      	ldr	r1, [r3, #0]
878031f8:	4082      	lsls	r2, r0
878031fa:	430a      	orrs	r2, r1
878031fc:	601a      	str	r2, [r3, #0]
878031fe:	4770      	bx	lr
87803200:	2b80      	cmp	r3, #128	; 0x80
87803202:	bf04      	itt	eq
87803204:	f44f 4300 	moveq.w	r3, #32768	; 0x8000
87803208:	f2c0 230a 	movteq	r3, #522	; 0x20a
8780320c:	d0f1      	beq.n	878031f2 <gpio_set_level+0x2a>
8780320e:	2ba0      	cmp	r3, #160	; 0xa0
87803210:	bf04      	itt	eq
87803212:	f44f 4340 	moveq.w	r3, #49152	; 0xc000
87803216:	f2c0 230a 	movteq	r3, #522	; 0x20a
8780321a:	d0ea      	beq.n	878031f2 <gpio_set_level+0x2a>
8780321c:	2300      	movs	r3, #0
8780321e:	2201      	movs	r2, #1
87803220:	2900      	cmp	r1, #0
87803222:	d1e8      	bne.n	878031f6 <gpio_set_level+0x2e>
87803224:	6819      	ldr	r1, [r3, #0]
87803226:	4082      	lsls	r2, r0
87803228:	ea21 0202 	bic.w	r2, r1, r2
8780322c:	601a      	str	r2, [r3, #0]
8780322e:	4770      	bx	lr
87803230:	f44f 4380 	mov.w	r3, #16384	; 0x4000
87803234:	f2c0 230a 	movt	r3, #522	; 0x20a
87803238:	e7db      	b.n	878031f2 <gpio_set_level+0x2a>
8780323a:	bf00      	nop

8780323c <gpio_get_level>:
8780323c:	f64f 73e0 	movw	r3, #65504	; 0xffe0
87803240:	f000 021f 	and.w	r2, r0, #31
87803244:	4003      	ands	r3, r0
87803246:	2b60      	cmp	r3, #96	; 0x60
87803248:	d022      	beq.n	87803290 <gpio_get_level+0x54>
8780324a:	d80c      	bhi.n	87803266 <gpio_get_level+0x2a>
8780324c:	2b20      	cmp	r3, #32
8780324e:	d016      	beq.n	8780327e <gpio_get_level+0x42>
87803250:	2b40      	cmp	r3, #64	; 0x40
87803252:	bf04      	itt	eq
87803254:	2300      	moveq	r3, #0
87803256:	f2c0 230a 	movteq	r3, #522	; 0x20a
8780325a:	d10d      	bne.n	87803278 <gpio_get_level+0x3c>
8780325c:	6818      	ldr	r0, [r3, #0]
8780325e:	40d0      	lsrs	r0, r2
87803260:	f000 0001 	and.w	r0, r0, #1
87803264:	4770      	bx	lr
87803266:	2b80      	cmp	r3, #128	; 0x80
87803268:	d01b      	beq.n	878032a2 <gpio_get_level+0x66>
8780326a:	2ba0      	cmp	r3, #160	; 0xa0
8780326c:	bf04      	itt	eq
8780326e:	f44f 4340 	moveq.w	r3, #49152	; 0xc000
87803272:	f2c0 230a 	movteq	r3, #522	; 0x20a
87803276:	d0f1      	beq.n	8780325c <gpio_get_level+0x20>
87803278:	2300      	movs	r3, #0
8780327a:	681b      	ldr	r3, [r3, #0]
8780327c:	deff      	udf	#255	; 0xff
8780327e:	f44f 4340 	mov.w	r3, #49152	; 0xc000
87803282:	f2c0 2309 	movt	r3, #521	; 0x209
87803286:	6818      	ldr	r0, [r3, #0]
87803288:	40d0      	lsrs	r0, r2
8780328a:	f000 0001 	and.w	r0, r0, #1
8780328e:	4770      	bx	lr
87803290:	f44f 4380 	mov.w	r3, #16384	; 0x4000
87803294:	f2c0 230a 	movt	r3, #522	; 0x20a
87803298:	6818      	ldr	r0, [r3, #0]
8780329a:	40d0      	lsrs	r0, r2
8780329c:	f000 0001 	and.w	r0, r0, #1
878032a0:	4770      	bx	lr
878032a2:	f44f 4300 	mov.w	r3, #32768	; 0x8000
878032a6:	f2c0 230a 	movt	r3, #522	; 0x20a
878032aa:	6818      	ldr	r0, [r3, #0]
878032ac:	40d0      	lsrs	r0, r2
878032ae:	f000 0001 	and.w	r0, r0, #1
878032b2:	4770      	bx	lr

878032b4 <gpio_toggle_level>:
878032b4:	f64f 73e0 	movw	r3, #65504	; 0xffe0
878032b8:	4003      	ands	r3, r0
878032ba:	f000 001f 	and.w	r0, r0, #31
878032be:	2b60      	cmp	r3, #96	; 0x60
878032c0:	d03f      	beq.n	87803342 <gpio_toggle_level+0x8e>
878032c2:	d817      	bhi.n	878032f4 <gpio_toggle_level+0x40>
878032c4:	2b20      	cmp	r3, #32
878032c6:	d036      	beq.n	87803336 <gpio_toggle_level+0x82>
878032c8:	2b40      	cmp	r3, #64	; 0x40
878032ca:	bf02      	ittt	eq
878032cc:	2200      	moveq	r2, #0
878032ce:	f2c0 220a 	movteq	r2, #522	; 0x20a
878032d2:	4613      	moveq	r3, r2
878032d4:	d11c      	bne.n	87803310 <gpio_toggle_level+0x5c>
878032d6:	681b      	ldr	r3, [r3, #0]
878032d8:	6811      	ldr	r1, [r2, #0]
878032da:	40c3      	lsrs	r3, r0
878032dc:	f013 0f01 	tst.w	r3, #1
878032e0:	f04f 0301 	mov.w	r3, #1
878032e4:	fa03 f300 	lsl.w	r3, r3, r0
878032e8:	bf0c      	ite	eq
878032ea:	430b      	orreq	r3, r1
878032ec:	ea21 0303 	bicne.w	r3, r1, r3
878032f0:	6013      	str	r3, [r2, #0]
878032f2:	4770      	bx	lr
878032f4:	2b80      	cmp	r3, #128	; 0x80
878032f6:	d015      	beq.n	87803324 <gpio_toggle_level+0x70>
878032f8:	2ba0      	cmp	r3, #160	; 0xa0
878032fa:	bf04      	itt	eq
878032fc:	f44f 4240 	moveq.w	r2, #49152	; 0xc000
87803300:	f2c0 220a 	movteq	r2, #522	; 0x20a
87803304:	d104      	bne.n	87803310 <gpio_toggle_level+0x5c>
87803306:	f44f 4340 	mov.w	r3, #49152	; 0xc000
8780330a:	f2c0 230a 	movt	r3, #522	; 0x20a
8780330e:	e7e2      	b.n	878032d6 <gpio_toggle_level+0x22>
87803310:	2b60      	cmp	r3, #96	; 0x60
87803312:	d025      	beq.n	87803360 <gpio_toggle_level+0xac>
87803314:	d81e      	bhi.n	87803354 <gpio_toggle_level+0xa0>
87803316:	2b20      	cmp	r3, #32
87803318:	d02b      	beq.n	87803372 <gpio_toggle_level+0xbe>
8780331a:	2b40      	cmp	r3, #64	; 0x40
8780331c:	d024      	beq.n	87803368 <gpio_toggle_level+0xb4>
8780331e:	2300      	movs	r3, #0
87803320:	681b      	ldr	r3, [r3, #0]
87803322:	deff      	udf	#255	; 0xff
87803324:	f44f 4200 	mov.w	r2, #32768	; 0x8000
87803328:	f2c0 220a 	movt	r2, #522	; 0x20a
8780332c:	f44f 4300 	mov.w	r3, #32768	; 0x8000
87803330:	f2c0 230a 	movt	r3, #522	; 0x20a
87803334:	e7cf      	b.n	878032d6 <gpio_toggle_level+0x22>
87803336:	f44f 4240 	mov.w	r2, #49152	; 0xc000
8780333a:	f2c0 2209 	movt	r2, #521	; 0x209
8780333e:	4613      	mov	r3, r2
87803340:	e7c9      	b.n	878032d6 <gpio_toggle_level+0x22>
87803342:	f44f 4280 	mov.w	r2, #16384	; 0x4000
87803346:	f2c0 220a 	movt	r2, #522	; 0x20a
8780334a:	f44f 4380 	mov.w	r3, #16384	; 0x4000
8780334e:	f2c0 230a 	movt	r3, #522	; 0x20a
87803352:	e7c0      	b.n	878032d6 <gpio_toggle_level+0x22>
87803354:	2b80      	cmp	r3, #128	; 0x80
87803356:	d005      	beq.n	87803364 <gpio_toggle_level+0xb0>
87803358:	2ba0      	cmp	r3, #160	; 0xa0
8780335a:	d1e0      	bne.n	8780331e <gpio_toggle_level+0x6a>
8780335c:	2200      	movs	r2, #0
8780335e:	e7d2      	b.n	87803306 <gpio_toggle_level+0x52>
87803360:	2200      	movs	r2, #0
87803362:	e7f2      	b.n	8780334a <gpio_toggle_level+0x96>
87803364:	2200      	movs	r2, #0
87803366:	e7e1      	b.n	8780332c <gpio_toggle_level+0x78>
87803368:	2300      	movs	r3, #0
8780336a:	461a      	mov	r2, r3
8780336c:	f2c0 230a 	movt	r3, #522	; 0x20a
87803370:	e7b1      	b.n	878032d6 <gpio_toggle_level+0x22>
87803372:	f44f 4340 	mov.w	r3, #49152	; 0xc000
87803376:	2200      	movs	r2, #0
87803378:	f2c0 2309 	movt	r3, #521	; 0x209
8780337c:	e7ab      	b.n	878032d6 <gpio_toggle_level+0x22>
8780337e:	bf00      	nop

87803380 <gpio_init>:
87803380:	b510      	push	{r4, lr}
87803382:	b084      	sub	sp, #16
87803384:	9101      	str	r1, [sp, #4]
87803386:	f000 041f 	and.w	r4, r0, #31
8780338a:	b9c1      	cbnz	r1, 878033be <gpio_init+0x3e>
8780338c:	f64f 73e0 	movw	r3, #65504	; 0xffe0
87803390:	4003      	ands	r3, r0
87803392:	2b60      	cmp	r3, #96	; 0x60
87803394:	d01c      	beq.n	878033d0 <gpio_init+0x50>
87803396:	d824      	bhi.n	878033e2 <gpio_init+0x62>
87803398:	2b20      	cmp	r3, #32
8780339a:	bf04      	itt	eq
8780339c:	f44f 4040 	moveq.w	r0, #49152	; 0xc000
878033a0:	f2c0 2009 	movteq	r0, #521	; 0x209
878033a4:	d005      	beq.n	878033b2 <gpio_init+0x32>
878033a6:	2b40      	cmp	r3, #64	; 0x40
878033a8:	bf04      	itt	eq
878033aa:	2000      	moveq	r0, #0
878033ac:	f2c0 200a 	movteq	r0, #522	; 0x20a
878033b0:	d125      	bne.n	878033fe <gpio_init+0x7e>
878033b2:	4621      	mov	r1, r4
878033b4:	aa01      	add	r2, sp, #4
878033b6:	f001 ff83 	bl	878052c0 <GPIO_PinInit>
878033ba:	b004      	add	sp, #16
878033bc:	bd10      	pop	{r4, pc}
878033be:	2901      	cmp	r1, #1
878033c0:	d1fb      	bne.n	878033ba <gpio_init+0x3a>
878033c2:	f64f 73e0 	movw	r3, #65504	; 0xffe0
878033c6:	f88d 2008 	strb.w	r2, [sp, #8]
878033ca:	4003      	ands	r3, r0
878033cc:	2b60      	cmp	r3, #96	; 0x60
878033ce:	d1e2      	bne.n	87803396 <gpio_init+0x16>
878033d0:	f44f 4080 	mov.w	r0, #16384	; 0x4000
878033d4:	4621      	mov	r1, r4
878033d6:	f2c0 200a 	movt	r0, #522	; 0x20a
878033da:	aa01      	add	r2, sp, #4
878033dc:	f001 ff70 	bl	878052c0 <GPIO_PinInit>
878033e0:	e7eb      	b.n	878033ba <gpio_init+0x3a>
878033e2:	2b80      	cmp	r3, #128	; 0x80
878033e4:	bf04      	itt	eq
878033e6:	f44f 4000 	moveq.w	r0, #32768	; 0x8000
878033ea:	f2c0 200a 	movteq	r0, #522	; 0x20a
878033ee:	d0e0      	beq.n	878033b2 <gpio_init+0x32>
878033f0:	2ba0      	cmp	r3, #160	; 0xa0
878033f2:	bf04      	itt	eq
878033f4:	f44f 4040 	moveq.w	r0, #49152	; 0xc000
878033f8:	f2c0 200a 	movteq	r0, #522	; 0x20a
878033fc:	d0d9      	beq.n	878033b2 <gpio_init+0x32>
878033fe:	2000      	movs	r0, #0
87803400:	4621      	mov	r1, r4
87803402:	aa01      	add	r2, sp, #4
87803404:	f001 ff5c 	bl	878052c0 <GPIO_PinInit>
87803408:	e7d7      	b.n	878033ba <gpio_init+0x3a>
8780340a:	bf00      	nop

8780340c <iomuxc_set>:
8780340c:	b084      	sub	sp, #16
8780340e:	b530      	push	{r4, r5, lr}
87803410:	f10d 0e0c 	add.w	lr, sp, #12
87803414:	9c08      	ldr	r4, [sp, #32]
87803416:	e88e 000f 	stmia.w	lr, {r0, r1, r2, r3}
8780341a:	9b04      	ldr	r3, [sp, #16]
8780341c:	0124      	lsls	r4, r4, #4
8780341e:	9a05      	ldr	r2, [sp, #20]
87803420:	f003 030f 	and.w	r3, r3, #15
87803424:	f004 0410 	and.w	r4, r4, #16
87803428:	4323      	orrs	r3, r4
8780342a:	9906      	ldr	r1, [sp, #24]
8780342c:	6003      	str	r3, [r0, #0]
8780342e:	b112      	cbz	r2, 87803436 <iomuxc_set+0x2a>
87803430:	f001 0107 	and.w	r1, r1, #7
87803434:	6011      	str	r1, [r2, #0]
87803436:	9b07      	ldr	r3, [sp, #28]
87803438:	b10b      	cbz	r3, 8780343e <iomuxc_set+0x32>
8780343a:	9a09      	ldr	r2, [sp, #36]	; 0x24
8780343c:	601a      	str	r2, [r3, #0]
8780343e:	e8bd 4030 	ldmia.w	sp!, {r4, r5, lr}
87803442:	b004      	add	sp, #16
87803444:	4770      	bx	lr
87803446:	bf00      	nop

87803448 <iic_check_and_clear_error.part.1>:
87803448:	4602      	mov	r2, r0
8780344a:	2004      	movs	r0, #4
8780344c:	8993      	ldrh	r3, [r2, #12]
8780344e:	f023 0310 	bic.w	r3, r3, #16
87803452:	041b      	lsls	r3, r3, #16
87803454:	0c1b      	lsrs	r3, r3, #16
87803456:	8193      	strh	r3, [r2, #12]
87803458:	8913      	ldrh	r3, [r2, #8]
8780345a:	f023 0380 	bic.w	r3, r3, #128	; 0x80
8780345e:	041b      	lsls	r3, r3, #16
87803460:	0c1b      	lsrs	r3, r3, #16
87803462:	8113      	strh	r3, [r2, #8]
87803464:	8913      	ldrh	r3, [r2, #8]
87803466:	b29b      	uxth	r3, r3
87803468:	f043 0380 	orr.w	r3, r3, #128	; 0x80
8780346c:	8113      	strh	r3, [r2, #8]
8780346e:	4770      	bx	lr

87803470 <iic_master_set_baudRate>:
87803470:	e92d 47f0 	stmdb	sp!, {r4, r5, r6, r7, r8, r9, sl, lr}
87803474:	2400      	movs	r4, #0
87803476:	f8df a044 	ldr.w	sl, [pc, #68]	; 878034bc <iic_master_set_baudRate+0x4c>
8780347a:	4681      	mov	r9, r0
8780347c:	460d      	mov	r5, r1
8780347e:	4617      	mov	r7, r2
87803480:	46a0      	mov	r8, r4
87803482:	f04f 36ff 	mov.w	r6, #4294967295	; 0xffffffff
87803486:	e002      	b.n	8780348e <iic_master_set_baudRate+0x1e>
87803488:	3401      	adds	r4, #1
8780348a:	2c40      	cmp	r4, #64	; 0x40
8780348c:	d00f      	beq.n	878034ae <iic_master_set_baudRate+0x3e>
8780348e:	f83a 1f02 	ldrh.w	r1, [sl, #2]!
87803492:	4638      	mov	r0, r7
87803494:	f004 fec4 	bl	87808220 <__aeabi_uidiv>
87803498:	42a8      	cmp	r0, r5
8780349a:	eba0 0305 	sub.w	r3, r0, r5
8780349e:	bf38      	it	cc
878034a0:	1a2b      	subcc	r3, r5, r0
878034a2:	42b3      	cmp	r3, r6
878034a4:	d2f0      	bcs.n	87803488 <iic_master_set_baudRate+0x18>
878034a6:	461e      	mov	r6, r3
878034a8:	46a0      	mov	r8, r4
878034aa:	2b00      	cmp	r3, #0
878034ac:	d1ec      	bne.n	87803488 <iic_master_set_baudRate+0x18>
878034ae:	f008 083f 	and.w	r8, r8, #63	; 0x3f
878034b2:	f8a9 8004 	strh.w	r8, [r9, #4]
878034b6:	e8bd 87f0 	ldmia.w	sp!, {r4, r5, r6, r7, r8, r9, sl, pc}
878034ba:	bf00      	nop
878034bc:	8780e0d2 			; <UNDEFINED> instruction: 0x8780e0d2

878034c0 <iic_init>:
878034c0:	e92d 43f8 	stmdb	sp!, {r3, r4, r5, r6, r7, r8, r9, lr}
878034c4:	2212      	movs	r2, #18
878034c6:	8903      	ldrh	r3, [r0, #8]
878034c8:	2400      	movs	r4, #0
878034ca:	4681      	mov	r9, r0
878034cc:	460d      	mov	r5, r1
878034ce:	4e15      	ldr	r6, [pc, #84]	; (87803524 <iic_init+0x64>)
878034d0:	46a0      	mov	r8, r4
878034d2:	f023 0380 	bic.w	r3, r3, #128	; 0x80
878034d6:	f04f 37ff 	mov.w	r7, #4294967295	; 0xffffffff
878034da:	041b      	lsls	r3, r3, #16
878034dc:	0c1b      	lsrs	r3, r3, #16
878034de:	8103      	strh	r3, [r0, #8]
878034e0:	8182      	strh	r2, [r0, #12]
878034e2:	e002      	b.n	878034ea <iic_init+0x2a>
878034e4:	3401      	adds	r4, #1
878034e6:	2c40      	cmp	r4, #64	; 0x40
878034e8:	d012      	beq.n	87803510 <iic_init+0x50>
878034ea:	f44f 50a4 	mov.w	r0, #5248	; 0x1480
878034ee:	f836 1f02 	ldrh.w	r1, [r6, #2]!
878034f2:	f2c0 30ef 	movt	r0, #1007	; 0x3ef
878034f6:	f004 fe93 	bl	87808220 <__aeabi_uidiv>
878034fa:	4285      	cmp	r5, r0
878034fc:	eba0 0305 	sub.w	r3, r0, r5
87803500:	bf88      	it	hi
87803502:	1a2b      	subhi	r3, r5, r0
87803504:	42bb      	cmp	r3, r7
87803506:	d2ed      	bcs.n	878034e4 <iic_init+0x24>
87803508:	461f      	mov	r7, r3
8780350a:	46a0      	mov	r8, r4
8780350c:	2b00      	cmp	r3, #0
8780350e:	d1e9      	bne.n	878034e4 <iic_init+0x24>
87803510:	f008 083f 	and.w	r8, r8, #63	; 0x3f
87803514:	2380      	movs	r3, #128	; 0x80
87803516:	f8a9 8004 	strh.w	r8, [r9, #4]
8780351a:	f8a9 3008 	strh.w	r3, [r9, #8]
8780351e:	e8bd 83f8 	ldmia.w	sp!, {r3, r4, r5, r6, r7, r8, r9, pc}
87803522:	bf00      	nop
87803524:	8780e0d2 			; <UNDEFINED> instruction: 0x8780e0d2

87803528 <iic_master_repeated_start>:
87803528:	4603      	mov	r3, r0
8780352a:	8980      	ldrh	r0, [r0, #12]
8780352c:	b410      	push	{r4}
8780352e:	0684      	lsls	r4, r0, #26
87803530:	d504      	bpl.n	8780353c <iic_master_repeated_start+0x14>
87803532:	8918      	ldrh	r0, [r3, #8]
87803534:	0680      	lsls	r0, r0, #26
87803536:	bf58      	it	pl
87803538:	2001      	movpl	r0, #1
8780353a:	d50d      	bpl.n	87803558 <iic_master_repeated_start+0x30>
8780353c:	891c      	ldrh	r4, [r3, #8]
8780353e:	f1a2 0201 	sub.w	r2, r2, #1
87803542:	fab2 f282 	clz	r2, r2
87803546:	2000      	movs	r0, #0
87803548:	0952      	lsrs	r2, r2, #5
8780354a:	ea42 0141 	orr.w	r1, r2, r1, lsl #1
8780354e:	b2a2      	uxth	r2, r4
87803550:	f042 0214 	orr.w	r2, r2, #20
87803554:	811a      	strh	r2, [r3, #8]
87803556:	8219      	strh	r1, [r3, #16]
87803558:	f85d 4b04 	ldr.w	r4, [sp], #4
8780355c:	4770      	bx	lr
8780355e:	bf00      	nop

87803560 <iic_master_start>:
87803560:	8983      	ldrh	r3, [r0, #12]
87803562:	f003 0320 	and.w	r3, r3, #32
87803566:	b29b      	uxth	r3, r3
87803568:	b98b      	cbnz	r3, 8780358e <iic_master_start+0x2e>
8780356a:	b410      	push	{r4}
8780356c:	f1a2 0201 	sub.w	r2, r2, #1
87803570:	8904      	ldrh	r4, [r0, #8]
87803572:	fab2 f282 	clz	r2, r2
87803576:	0952      	lsrs	r2, r2, #5
87803578:	ea42 0141 	orr.w	r1, r2, r1, lsl #1
8780357c:	b2a2      	uxth	r2, r4
8780357e:	f85d 4b04 	ldr.w	r4, [sp], #4
87803582:	f042 0230 	orr.w	r2, r2, #48	; 0x30
87803586:	8102      	strh	r2, [r0, #8]
87803588:	8201      	strh	r1, [r0, #16]
8780358a:	4618      	mov	r0, r3
8780358c:	4770      	bx	lr
8780358e:	2301      	movs	r3, #1
87803590:	4618      	mov	r0, r3
87803592:	4770      	bx	lr

87803594 <iic_check_and_clear_error>:
87803594:	06cb      	lsls	r3, r1, #27
87803596:	d500      	bpl.n	8780359a <iic_check_and_clear_error+0x6>
87803598:	e756      	b.n	87803448 <iic_check_and_clear_error.part.1>
8780359a:	f011 0f01 	tst.w	r1, #1
8780359e:	bf14      	ite	ne
878035a0:	2003      	movne	r0, #3
878035a2:	2000      	moveq	r0, #0
878035a4:	4770      	bx	lr
878035a6:	bf00      	nop

878035a8 <iic_master_stop>:
878035a8:	8903      	ldrh	r3, [r0, #8]
878035aa:	f64f 72ff 	movw	r2, #65535	; 0xffff
878035ae:	f023 0338 	bic.w	r3, r3, #56	; 0x38
878035b2:	041b      	lsls	r3, r3, #16
878035b4:	0c1b      	lsrs	r3, r3, #16
878035b6:	8103      	strh	r3, [r0, #8]
878035b8:	e001      	b.n	878035be <iic_master_stop+0x16>
878035ba:	3a01      	subs	r2, #1
878035bc:	d007      	beq.n	878035ce <iic_master_stop+0x26>
878035be:	8983      	ldrh	r3, [r0, #12]
878035c0:	f003 0320 	and.w	r3, r3, #32
878035c4:	b29b      	uxth	r3, r3
878035c6:	2b00      	cmp	r3, #0
878035c8:	d1f7      	bne.n	878035ba <iic_master_stop+0x12>
878035ca:	4618      	mov	r0, r3
878035cc:	4770      	bx	lr
878035ce:	2005      	movs	r0, #5
878035d0:	4770      	bx	lr
878035d2:	bf00      	nop

878035d4 <iic_master_write_data>:
878035d4:	b570      	push	{r4, r5, r6, lr}
878035d6:	4604      	mov	r4, r0
878035d8:	460d      	mov	r5, r1
878035da:	89a3      	ldrh	r3, [r4, #12]
878035dc:	0619      	lsls	r1, r3, #24
878035de:	d5fc      	bpl.n	878035da <iic_master_write_data+0x6>
878035e0:	89a3      	ldrh	r3, [r4, #12]
878035e2:	18ae      	adds	r6, r5, r2
878035e4:	f023 0302 	bic.w	r3, r3, #2
878035e8:	041b      	lsls	r3, r3, #16
878035ea:	0c1b      	lsrs	r3, r3, #16
878035ec:	81a3      	strh	r3, [r4, #12]
878035ee:	8923      	ldrh	r3, [r4, #8]
878035f0:	b29b      	uxth	r3, r3
878035f2:	f043 0310 	orr.w	r3, r3, #16
878035f6:	8123      	strh	r3, [r4, #8]
878035f8:	42b5      	cmp	r5, r6
878035fa:	d011      	beq.n	87803620 <iic_master_write_data+0x4c>
878035fc:	f815 3b01 	ldrb.w	r3, [r5], #1
87803600:	8223      	strh	r3, [r4, #16]
87803602:	89a3      	ldrh	r3, [r4, #12]
87803604:	079b      	lsls	r3, r3, #30
87803606:	d5fc      	bpl.n	87803602 <iic_master_write_data+0x2e>
87803608:	89a3      	ldrh	r3, [r4, #12]
8780360a:	f023 0302 	bic.w	r3, r3, #2
8780360e:	041b      	lsls	r3, r3, #16
87803610:	0c1b      	lsrs	r3, r3, #16
87803612:	81a3      	strh	r3, [r4, #12]
87803614:	89a3      	ldrh	r3, [r4, #12]
87803616:	b29b      	uxth	r3, r3
87803618:	06d8      	lsls	r0, r3, #27
8780361a:	d416      	bmi.n	8780364a <iic_master_write_data+0x76>
8780361c:	07d9      	lsls	r1, r3, #31
8780361e:	d5eb      	bpl.n	878035f8 <iic_master_write_data+0x24>
87803620:	89a2      	ldrh	r2, [r4, #12]
87803622:	f64f 73ff 	movw	r3, #65535	; 0xffff
87803626:	f022 0202 	bic.w	r2, r2, #2
8780362a:	0412      	lsls	r2, r2, #16
8780362c:	0c12      	lsrs	r2, r2, #16
8780362e:	81a2      	strh	r2, [r4, #12]
87803630:	8922      	ldrh	r2, [r4, #8]
87803632:	f022 0238 	bic.w	r2, r2, #56	; 0x38
87803636:	0412      	lsls	r2, r2, #16
87803638:	0c12      	lsrs	r2, r2, #16
8780363a:	8122      	strh	r2, [r4, #8]
8780363c:	e001      	b.n	87803642 <iic_master_write_data+0x6e>
8780363e:	3b01      	subs	r3, #1
87803640:	d002      	beq.n	87803648 <iic_master_write_data+0x74>
87803642:	89a2      	ldrh	r2, [r4, #12]
87803644:	0692      	lsls	r2, r2, #26
87803646:	d4fa      	bmi.n	8780363e <iic_master_write_data+0x6a>
87803648:	bd70      	pop	{r4, r5, r6, pc}
8780364a:	4620      	mov	r0, r4
8780364c:	f7ff fefc 	bl	87803448 <iic_check_and_clear_error.part.1>
87803650:	2800      	cmp	r0, #0
87803652:	d0d1      	beq.n	878035f8 <iic_master_write_data+0x24>
87803654:	e7e4      	b.n	87803620 <iic_master_write_data+0x4c>
87803656:	bf00      	nop

87803658 <iic_master_read_data>:
87803658:	b430      	push	{r4, r5}
8780365a:	2300      	movs	r3, #0
8780365c:	b082      	sub	sp, #8
8780365e:	f88d 3007 	strb.w	r3, [sp, #7]
87803662:	f89d 3007 	ldrb.w	r3, [sp, #7]
87803666:	3301      	adds	r3, #1
87803668:	b2db      	uxtb	r3, r3
8780366a:	f88d 3007 	strb.w	r3, [sp, #7]
8780366e:	8983      	ldrh	r3, [r0, #12]
87803670:	061c      	lsls	r4, r3, #24
87803672:	d5fc      	bpl.n	8780366e <iic_master_read_data+0x16>
87803674:	8983      	ldrh	r3, [r0, #12]
87803676:	2a01      	cmp	r2, #1
87803678:	f023 0302 	bic.w	r3, r3, #2
8780367c:	ea4f 4303 	mov.w	r3, r3, lsl #16
87803680:	ea4f 4313 	mov.w	r3, r3, lsr #16
87803684:	8183      	strh	r3, [r0, #12]
87803686:	8903      	ldrh	r3, [r0, #8]
87803688:	f023 0318 	bic.w	r3, r3, #24
8780368c:	ea4f 4303 	mov.w	r3, r3, lsl #16
87803690:	ea4f 4313 	mov.w	r3, r3, lsr #16
87803694:	8103      	strh	r3, [r0, #8]
87803696:	d02c      	beq.n	878036f2 <iic_master_read_data+0x9a>
87803698:	8a03      	ldrh	r3, [r0, #16]
8780369a:	1e55      	subs	r5, r2, #1
8780369c:	b2db      	uxtb	r3, r3
8780369e:	f88d 3007 	strb.w	r3, [sp, #7]
878036a2:	b31a      	cbz	r2, 878036ec <iic_master_read_data+0x94>
878036a4:	462a      	mov	r2, r5
878036a6:	460c      	mov	r4, r1
878036a8:	8983      	ldrh	r3, [r0, #12]
878036aa:	079b      	lsls	r3, r3, #30
878036ac:	d5fc      	bpl.n	878036a8 <iic_master_read_data+0x50>
878036ae:	8983      	ldrh	r3, [r0, #12]
878036b0:	f023 0302 	bic.w	r3, r3, #2
878036b4:	041b      	lsls	r3, r3, #16
878036b6:	0c1b      	lsrs	r3, r3, #16
878036b8:	8183      	strh	r3, [r0, #12]
878036ba:	b132      	cbz	r2, 878036ca <iic_master_read_data+0x72>
878036bc:	2a01      	cmp	r2, #1
878036be:	d023      	beq.n	87803708 <iic_master_read_data+0xb0>
878036c0:	8a03      	ldrh	r3, [r0, #16]
878036c2:	3a01      	subs	r2, #1
878036c4:	f804 3b01 	strb.w	r3, [r4], #1
878036c8:	e7ee      	b.n	878036a8 <iic_master_read_data+0x50>
878036ca:	8903      	ldrh	r3, [r0, #8]
878036cc:	4429      	add	r1, r5
878036ce:	f64f 72ff 	movw	r2, #65535	; 0xffff
878036d2:	f023 0338 	bic.w	r3, r3, #56	; 0x38
878036d6:	041b      	lsls	r3, r3, #16
878036d8:	0c1b      	lsrs	r3, r3, #16
878036da:	8103      	strh	r3, [r0, #8]
878036dc:	e001      	b.n	878036e2 <iic_master_read_data+0x8a>
878036de:	3a01      	subs	r2, #1
878036e0:	d002      	beq.n	878036e8 <iic_master_read_data+0x90>
878036e2:	8983      	ldrh	r3, [r0, #12]
878036e4:	069b      	lsls	r3, r3, #26
878036e6:	d4fa      	bmi.n	878036de <iic_master_read_data+0x86>
878036e8:	8a03      	ldrh	r3, [r0, #16]
878036ea:	700b      	strb	r3, [r1, #0]
878036ec:	b002      	add	sp, #8
878036ee:	bc30      	pop	{r4, r5}
878036f0:	4770      	bx	lr
878036f2:	8903      	ldrh	r3, [r0, #8]
878036f4:	2500      	movs	r5, #0
878036f6:	b29b      	uxth	r3, r3
878036f8:	f043 0308 	orr.w	r3, r3, #8
878036fc:	8103      	strh	r3, [r0, #8]
878036fe:	8a03      	ldrh	r3, [r0, #16]
87803700:	b2db      	uxtb	r3, r3
87803702:	f88d 3007 	strb.w	r3, [sp, #7]
87803706:	e7cd      	b.n	878036a4 <iic_master_read_data+0x4c>
87803708:	8903      	ldrh	r3, [r0, #8]
8780370a:	b29b      	uxth	r3, r3
8780370c:	f043 0308 	orr.w	r3, r3, #8
87803710:	8103      	strh	r3, [r0, #8]
87803712:	e7d5      	b.n	878036c0 <iic_master_read_data+0x68>

87803714 <iic_master_transfer>:
87803714:	b538      	push	{r3, r4, r5, lr}
87803716:	8983      	ldrh	r3, [r0, #12]
87803718:	684a      	ldr	r2, [r1, #4]
8780371a:	f023 0312 	bic.w	r3, r3, #18
8780371e:	041b      	lsls	r3, r3, #16
87803720:	0c1b      	lsrs	r3, r3, #16
87803722:	8183      	strh	r3, [r0, #12]
87803724:	8983      	ldrh	r3, [r0, #12]
87803726:	061b      	lsls	r3, r3, #24
87803728:	d5fc      	bpl.n	87803724 <iic_master_transfer+0x10>
8780372a:	7b0b      	ldrb	r3, [r1, #12]
8780372c:	b14b      	cbz	r3, 87803742 <iic_master_transfer+0x2e>
8780372e:	8983      	ldrh	r3, [r0, #12]
87803730:	780c      	ldrb	r4, [r1, #0]
87803732:	f003 0320 	and.w	r3, r3, #32
87803736:	b29b      	uxth	r3, r3
87803738:	2b00      	cmp	r3, #0
8780373a:	f000 8084 	beq.w	87803846 <iic_master_transfer+0x132>
8780373e:	2001      	movs	r0, #1
87803740:	bd38      	pop	{r3, r4, r5, pc}
87803742:	8984      	ldrh	r4, [r0, #12]
87803744:	780b      	ldrb	r3, [r1, #0]
87803746:	06a5      	lsls	r5, r4, #26
87803748:	d4f9      	bmi.n	8780373e <iic_master_transfer+0x2a>
8780374a:	8905      	ldrh	r5, [r0, #8]
8780374c:	005c      	lsls	r4, r3, #1
8780374e:	f1a2 0301 	sub.w	r3, r2, #1
87803752:	fab3 f383 	clz	r3, r3
87803756:	095b      	lsrs	r3, r3, #5
87803758:	b2aa      	uxth	r2, r5
8780375a:	f042 0230 	orr.w	r2, r2, #48	; 0x30
8780375e:	8102      	strh	r2, [r0, #8]
87803760:	4323      	orrs	r3, r4
87803762:	b29b      	uxth	r3, r3
87803764:	8203      	strh	r3, [r0, #16]
87803766:	8983      	ldrh	r3, [r0, #12]
87803768:	079c      	lsls	r4, r3, #30
8780376a:	d5fc      	bpl.n	87803766 <iic_master_transfer+0x52>
8780376c:	8983      	ldrh	r3, [r0, #12]
8780376e:	460d      	mov	r5, r1
87803770:	4604      	mov	r4, r0
87803772:	b29b      	uxth	r3, r3
87803774:	06da      	lsls	r2, r3, #27
87803776:	d412      	bmi.n	8780379e <iic_master_transfer+0x8a>
87803778:	07db      	lsls	r3, r3, #31
8780377a:	d514      	bpl.n	878037a6 <iic_master_transfer+0x92>
8780377c:	2003      	movs	r0, #3
8780377e:	8922      	ldrh	r2, [r4, #8]
87803780:	f64f 73ff 	movw	r3, #65535	; 0xffff
87803784:	f022 0238 	bic.w	r2, r2, #56	; 0x38
87803788:	0412      	lsls	r2, r2, #16
8780378a:	0c12      	lsrs	r2, r2, #16
8780378c:	8122      	strh	r2, [r4, #8]
8780378e:	e001      	b.n	87803794 <iic_master_transfer+0x80>
87803790:	3b01      	subs	r3, #1
87803792:	d003      	beq.n	8780379c <iic_master_transfer+0x88>
87803794:	89a2      	ldrh	r2, [r4, #12]
87803796:	0695      	lsls	r5, r2, #26
87803798:	d4fa      	bmi.n	87803790 <iic_master_transfer+0x7c>
8780379a:	bd38      	pop	{r3, r4, r5, pc}
8780379c:	bd38      	pop	{r3, r4, r5, pc}
8780379e:	f7ff fe53 	bl	87803448 <iic_check_and_clear_error.part.1>
878037a2:	2800      	cmp	r0, #0
878037a4:	d1eb      	bne.n	8780377e <iic_master_transfer+0x6a>
878037a6:	7b2b      	ldrb	r3, [r5, #12]
878037a8:	b96b      	cbnz	r3, 878037c6 <iic_master_transfer+0xb2>
878037aa:	686b      	ldr	r3, [r5, #4]
878037ac:	2b00      	cmp	r3, #0
878037ae:	d13f      	bne.n	87803830 <iic_master_transfer+0x11c>
878037b0:	696b      	ldr	r3, [r5, #20]
878037b2:	2b00      	cmp	r3, #0
878037b4:	d136      	bne.n	87803824 <iic_master_transfer+0x110>
878037b6:	2000      	movs	r0, #0
878037b8:	bd38      	pop	{r3, r4, r5, pc}
878037ba:	4620      	mov	r0, r4
878037bc:	f7ff fe44 	bl	87803448 <iic_check_and_clear_error.part.1>
878037c0:	b9d8      	cbnz	r0, 878037fa <iic_master_transfer+0xe6>
878037c2:	7b2b      	ldrb	r3, [r5, #12]
878037c4:	b343      	cbz	r3, 87803818 <iic_master_transfer+0x104>
878037c6:	89a3      	ldrh	r3, [r4, #12]
878037c8:	68aa      	ldr	r2, [r5, #8]
878037ca:	f023 0302 	bic.w	r3, r3, #2
878037ce:	041b      	lsls	r3, r3, #16
878037d0:	0c1b      	lsrs	r3, r3, #16
878037d2:	81a3      	strh	r3, [r4, #12]
878037d4:	7b2b      	ldrb	r3, [r5, #12]
878037d6:	3b01      	subs	r3, #1
878037d8:	b2db      	uxtb	r3, r3
878037da:	00d9      	lsls	r1, r3, #3
878037dc:	732b      	strb	r3, [r5, #12]
878037de:	fa22 f301 	lsr.w	r3, r2, r1
878037e2:	b29b      	uxth	r3, r3
878037e4:	8223      	strh	r3, [r4, #16]
878037e6:	89a3      	ldrh	r3, [r4, #12]
878037e8:	0799      	lsls	r1, r3, #30
878037ea:	d5fc      	bpl.n	878037e6 <iic_master_transfer+0xd2>
878037ec:	89a3      	ldrh	r3, [r4, #12]
878037ee:	b29b      	uxth	r3, r3
878037f0:	06da      	lsls	r2, r3, #27
878037f2:	d4e2      	bmi.n	878037ba <iic_master_transfer+0xa6>
878037f4:	07db      	lsls	r3, r3, #31
878037f6:	d5e4      	bpl.n	878037c2 <iic_master_transfer+0xae>
878037f8:	2003      	movs	r0, #3
878037fa:	8922      	ldrh	r2, [r4, #8]
878037fc:	f64f 73ff 	movw	r3, #65535	; 0xffff
87803800:	f022 0238 	bic.w	r2, r2, #56	; 0x38
87803804:	0412      	lsls	r2, r2, #16
87803806:	0c12      	lsrs	r2, r2, #16
87803808:	8122      	strh	r2, [r4, #8]
8780380a:	e001      	b.n	87803810 <iic_master_transfer+0xfc>
8780380c:	3b01      	subs	r3, #1
8780380e:	d0c5      	beq.n	8780379c <iic_master_transfer+0x88>
87803810:	89a2      	ldrh	r2, [r4, #12]
87803812:	0695      	lsls	r5, r2, #26
87803814:	d4fa      	bmi.n	8780380c <iic_master_transfer+0xf8>
87803816:	bd38      	pop	{r3, r4, r5, pc}
87803818:	686b      	ldr	r3, [r5, #4]
8780381a:	2b01      	cmp	r3, #1
8780381c:	d01a      	beq.n	87803854 <iic_master_transfer+0x140>
8780381e:	2b00      	cmp	r3, #0
87803820:	d0c6      	beq.n	878037b0 <iic_master_transfer+0x9c>
87803822:	e7c8      	b.n	878037b6 <iic_master_transfer+0xa2>
87803824:	6929      	ldr	r1, [r5, #16]
87803826:	4620      	mov	r0, r4
87803828:	696a      	ldr	r2, [r5, #20]
8780382a:	f7ff fed3 	bl	878035d4 <iic_master_write_data>
8780382e:	686b      	ldr	r3, [r5, #4]
87803830:	2b01      	cmp	r3, #1
87803832:	d1c0      	bne.n	878037b6 <iic_master_transfer+0xa2>
87803834:	696b      	ldr	r3, [r5, #20]
87803836:	2b00      	cmp	r3, #0
87803838:	d0bd      	beq.n	878037b6 <iic_master_transfer+0xa2>
8780383a:	6929      	ldr	r1, [r5, #16]
8780383c:	4620      	mov	r0, r4
8780383e:	696a      	ldr	r2, [r5, #20]
87803840:	f7ff ff0a 	bl	87803658 <iic_master_read_data>
87803844:	e7b7      	b.n	878037b6 <iic_master_transfer+0xa2>
87803846:	8902      	ldrh	r2, [r0, #8]
87803848:	0064      	lsls	r4, r4, #1
8780384a:	b292      	uxth	r2, r2
8780384c:	f042 0230 	orr.w	r2, r2, #48	; 0x30
87803850:	8102      	strh	r2, [r0, #8]
87803852:	e785      	b.n	87803760 <iic_master_transfer+0x4c>
87803854:	89a3      	ldrh	r3, [r4, #12]
87803856:	f023 0302 	bic.w	r3, r3, #2
8780385a:	041b      	lsls	r3, r3, #16
8780385c:	0c1b      	lsrs	r3, r3, #16
8780385e:	81a3      	strh	r3, [r4, #12]
87803860:	89a2      	ldrh	r2, [r4, #12]
87803862:	782b      	ldrb	r3, [r5, #0]
87803864:	0691      	lsls	r1, r2, #26
87803866:	d502      	bpl.n	8780386e <iic_master_transfer+0x15a>
87803868:	8922      	ldrh	r2, [r4, #8]
8780386a:	0692      	lsls	r2, r2, #26
8780386c:	d508      	bpl.n	87803880 <iic_master_transfer+0x16c>
8780386e:	8922      	ldrh	r2, [r4, #8]
87803870:	005b      	lsls	r3, r3, #1
87803872:	f043 0301 	orr.w	r3, r3, #1
87803876:	b292      	uxth	r2, r2
87803878:	f042 0214 	orr.w	r2, r2, #20
8780387c:	8122      	strh	r2, [r4, #8]
8780387e:	8223      	strh	r3, [r4, #16]
87803880:	89a3      	ldrh	r3, [r4, #12]
87803882:	079b      	lsls	r3, r3, #30
87803884:	d5fc      	bpl.n	87803880 <iic_master_transfer+0x16c>
87803886:	89a3      	ldrh	r3, [r4, #12]
87803888:	b29b      	uxth	r3, r3
8780388a:	06d8      	lsls	r0, r3, #27
8780388c:	d411      	bmi.n	878038b2 <iic_master_transfer+0x19e>
8780388e:	07d9      	lsls	r1, r3, #31
87803890:	d5d0      	bpl.n	87803834 <iic_master_transfer+0x120>
87803892:	8922      	ldrh	r2, [r4, #8]
87803894:	f64f 73ff 	movw	r3, #65535	; 0xffff
87803898:	f022 0238 	bic.w	r2, r2, #56	; 0x38
8780389c:	0412      	lsls	r2, r2, #16
8780389e:	0c12      	lsrs	r2, r2, #16
878038a0:	8122      	strh	r2, [r4, #8]
878038a2:	e001      	b.n	878038a8 <iic_master_transfer+0x194>
878038a4:	3b01      	subs	r3, #1
878038a6:	d002      	beq.n	878038ae <iic_master_transfer+0x19a>
878038a8:	89a2      	ldrh	r2, [r4, #12]
878038aa:	0692      	lsls	r2, r2, #26
878038ac:	d4fa      	bmi.n	878038a4 <iic_master_transfer+0x190>
878038ae:	2006      	movs	r0, #6
878038b0:	bd38      	pop	{r3, r4, r5, pc}
878038b2:	4620      	mov	r0, r4
878038b4:	f7ff fdc8 	bl	87803448 <iic_check_and_clear_error.part.1>
878038b8:	2800      	cmp	r0, #0
878038ba:	d1ea      	bne.n	87803892 <iic_master_transfer+0x17e>
878038bc:	e775      	b.n	878037aa <iic_master_transfer+0x96>
878038be:	bf00      	nop

878038c0 <pit_flag_get>:
878038c0:	6840      	ldr	r0, [r0, #4]
878038c2:	f000 0001 	and.w	r0, r0, #1
878038c6:	4770      	bx	lr

878038c8 <pit_flag_clear>:
878038c8:	6843      	ldr	r3, [r0, #4]
878038ca:	f043 0301 	orr.w	r3, r3, #1
878038ce:	6043      	str	r3, [r0, #4]
878038d0:	4770      	bx	lr
878038d2:	bf00      	nop

878038d4 <pit_close>:
878038d4:	6803      	ldr	r3, [r0, #0]
878038d6:	f023 0301 	bic.w	r3, r3, #1
878038da:	6003      	str	r3, [r0, #0]
878038dc:	4770      	bx	lr
878038de:	bf00      	nop

878038e0 <pit_restart>:
878038e0:	6803      	ldr	r3, [r0, #0]
878038e2:	f023 0301 	bic.w	r3, r3, #1
878038e6:	6003      	str	r3, [r0, #0]
878038e8:	6903      	ldr	r3, [r0, #16]
878038ea:	6083      	str	r3, [r0, #8]
878038ec:	6803      	ldr	r3, [r0, #0]
878038ee:	f043 0301 	orr.w	r3, r3, #1
878038f2:	6003      	str	r3, [r0, #0]
878038f4:	4770      	bx	lr
878038f6:	bf00      	nop

878038f8 <pit_init>:
878038f8:	b570      	push	{r4, r5, r6, lr}
878038fa:	018b      	lsls	r3, r1, #6
878038fc:	2500      	movs	r5, #0
878038fe:	462a      	mov	r2, r5
87803900:	f2c0 250d 	movt	r5, #525	; 0x20d
87803904:	260e      	movs	r6, #14
87803906:	eb03 0141 	add.w	r1, r3, r1, lsl #1
8780390a:	42a8      	cmp	r0, r5
8780390c:	6002      	str	r2, [r0, #0]
8780390e:	f2c0 1600 	movt	r6, #256	; 0x100
87803912:	4604      	mov	r4, r0
87803914:	6006      	str	r6, [r0, #0]
87803916:	6081      	str	r1, [r0, #8]
87803918:	60c2      	str	r2, [r0, #12]
8780391a:	d01b      	beq.n	87803954 <pit_init+0x5c>
8780391c:	f44f 4380 	mov.w	r3, #16384	; 0x4000
87803920:	f2c0 230d 	movt	r3, #525	; 0x20d
87803924:	4298      	cmp	r0, r3
87803926:	d004      	beq.n	87803932 <pit_init+0x3a>
87803928:	6823      	ldr	r3, [r4, #0]
8780392a:	f043 0301 	orr.w	r3, r3, #1
8780392e:	6023      	str	r3, [r4, #0]
87803930:	bd70      	pop	{r4, r5, r6, pc}
87803932:	ee9f 3f10 	mrc	15, 4, r3, cr15, cr0, {0}
87803936:	0c1b      	lsrs	r3, r3, #16
87803938:	f241 1008 	movw	r0, #4360	; 0x1108
8780393c:	f04f 7500 	mov.w	r5, #33554432	; 0x2000000
87803940:	041b      	lsls	r3, r3, #16
87803942:	f640 21c1 	movw	r1, #2753	; 0xac1
87803946:	f2c8 7180 	movt	r1, #34688	; 0x8780
8780394a:	501d      	str	r5, [r3, r0]
8780394c:	2059      	movs	r0, #89	; 0x59
8780394e:	f002 fe89 	bl	87806664 <SystemInstallIrqHandler>
87803952:	e7e9      	b.n	87803928 <pit_init+0x30>
87803954:	ee9f 3f10 	mrc	15, 4, r3, cr15, cr0, {0}
87803958:	0c1b      	lsrs	r3, r3, #16
8780395a:	f241 1008 	movw	r0, #4360	; 0x1108
8780395e:	f04f 7580 	mov.w	r5, #16777216	; 0x1000000
87803962:	041b      	lsls	r3, r3, #16
87803964:	f640 2189 	movw	r1, #2697	; 0xa89
87803968:	f2c8 7180 	movt	r1, #34688	; 0x8780
8780396c:	501d      	str	r5, [r3, r0]
8780396e:	2058      	movs	r0, #88	; 0x58
87803970:	f002 fe78 	bl	87806664 <SystemInstallIrqHandler>
87803974:	e7d8      	b.n	87803928 <pit_init+0x30>
87803976:	bf00      	nop

87803978 <pwm_enable>:
87803978:	6803      	ldr	r3, [r0, #0]
8780397a:	f043 0301 	orr.w	r3, r3, #1
8780397e:	6003      	str	r3, [r0, #0]
87803980:	4770      	bx	lr
87803982:	bf00      	nop

87803984 <pwm_disable>:
87803984:	6803      	ldr	r3, [r0, #0]
87803986:	f023 0301 	bic.w	r3, r3, #1
8780398a:	6003      	str	r3, [r0, #0]
8780398c:	4770      	bx	lr
8780398e:	bf00      	nop

87803990 <PWM_SetSampleValue>:
87803990:	b289      	uxth	r1, r1
87803992:	60c1      	str	r1, [r0, #12]
87803994:	4770      	bx	lr
87803996:	bf00      	nop

87803998 <PWM_SetPeriodValue>:
87803998:	2901      	cmp	r1, #1
8780399a:	bf8a      	itet	hi
8780399c:	3902      	subhi	r1, #2
8780399e:	2102      	movls	r1, #2
878039a0:	b289      	uxthhi	r1, r1
878039a2:	6101      	str	r1, [r0, #16]
878039a4:	4770      	bx	lr
878039a6:	bf00      	nop

878039a8 <save_pwm_duty>:
878039a8:	f1b0 7f02 	cmp.w	r0, #34078720	; 0x2080000
878039ac:	d04d      	beq.n	87803a4a <save_pwm_duty+0xa2>
878039ae:	f44f 4380 	mov.w	r3, #16384	; 0x4000
878039b2:	f2c0 2308 	movt	r3, #520	; 0x208
878039b6:	4298      	cmp	r0, r3
878039b8:	d02b      	beq.n	87803a12 <save_pwm_duty+0x6a>
878039ba:	f44f 4300 	mov.w	r3, #32768	; 0x8000
878039be:	f2c0 2308 	movt	r3, #520	; 0x208
878039c2:	4298      	cmp	r0, r3
878039c4:	d02c      	beq.n	87803a20 <save_pwm_duty+0x78>
878039c6:	f44f 4340 	mov.w	r3, #49152	; 0xc000
878039ca:	f2c0 2308 	movt	r3, #520	; 0x208
878039ce:	4298      	cmp	r0, r3
878039d0:	d034      	beq.n	87803a3c <save_pwm_duty+0x94>
878039d2:	2300      	movs	r3, #0
878039d4:	f2c0 230f 	movt	r3, #527	; 0x20f
878039d8:	4298      	cmp	r0, r3
878039da:	d03d      	beq.n	87803a58 <save_pwm_duty+0xb0>
878039dc:	f44f 4380 	mov.w	r3, #16384	; 0x4000
878039e0:	f2c0 230f 	movt	r3, #527	; 0x20f
878039e4:	4298      	cmp	r0, r3
878039e6:	d022      	beq.n	87803a2e <save_pwm_duty+0x86>
878039e8:	f44f 4300 	mov.w	r3, #32768	; 0x8000
878039ec:	f2c0 230f 	movt	r3, #527	; 0x20f
878039f0:	4298      	cmp	r0, r3
878039f2:	d038      	beq.n	87803a66 <save_pwm_duty+0xbe>
878039f4:	f44f 4340 	mov.w	r3, #49152	; 0xc000
878039f8:	f2c0 230f 	movt	r3, #527	; 0x20f
878039fc:	4298      	cmp	r0, r3
878039fe:	bf03      	ittte	eq
87803a00:	f24f 23f0 	movweq	r3, #62192	; 0xf2f0
87803a04:	2008      	moveq	r0, #8
87803a06:	f2c8 7380 	movteq	r3, #34688	; 0x8780
87803a0a:	2000      	movne	r0, #0
87803a0c:	bf08      	it	eq
87803a0e:	6219      	streq	r1, [r3, #32]
87803a10:	4770      	bx	lr
87803a12:	f24f 23f0 	movw	r3, #62192	; 0xf2f0
87803a16:	2002      	movs	r0, #2
87803a18:	f2c8 7380 	movt	r3, #34688	; 0x8780
87803a1c:	6099      	str	r1, [r3, #8]
87803a1e:	4770      	bx	lr
87803a20:	f24f 23f0 	movw	r3, #62192	; 0xf2f0
87803a24:	2003      	movs	r0, #3
87803a26:	f2c8 7380 	movt	r3, #34688	; 0x8780
87803a2a:	60d9      	str	r1, [r3, #12]
87803a2c:	4770      	bx	lr
87803a2e:	f24f 23f0 	movw	r3, #62192	; 0xf2f0
87803a32:	2006      	movs	r0, #6
87803a34:	f2c8 7380 	movt	r3, #34688	; 0x8780
87803a38:	6199      	str	r1, [r3, #24]
87803a3a:	4770      	bx	lr
87803a3c:	f24f 23f0 	movw	r3, #62192	; 0xf2f0
87803a40:	2004      	movs	r0, #4
87803a42:	f2c8 7380 	movt	r3, #34688	; 0x8780
87803a46:	6119      	str	r1, [r3, #16]
87803a48:	4770      	bx	lr
87803a4a:	f24f 23f0 	movw	r3, #62192	; 0xf2f0
87803a4e:	2001      	movs	r0, #1
87803a50:	f2c8 7380 	movt	r3, #34688	; 0x8780
87803a54:	6059      	str	r1, [r3, #4]
87803a56:	4770      	bx	lr
87803a58:	f24f 23f0 	movw	r3, #62192	; 0xf2f0
87803a5c:	2005      	movs	r0, #5
87803a5e:	f2c8 7380 	movt	r3, #34688	; 0x8780
87803a62:	6159      	str	r1, [r3, #20]
87803a64:	4770      	bx	lr
87803a66:	f24f 23f0 	movw	r3, #62192	; 0xf2f0
87803a6a:	2007      	movs	r0, #7
87803a6c:	f2c8 7380 	movt	r3, #34688	; 0x8780
87803a70:	61d9      	str	r1, [r3, #28]
87803a72:	4770      	bx	lr

87803a74 <pwm_set_duty>:
87803a74:	b538      	push	{r3, r4, r5, lr}
87803a76:	4605      	mov	r5, r0
87803a78:	6904      	ldr	r4, [r0, #16]
87803a7a:	f7ff ff95 	bl	878039a8 <save_pwm_duty>
87803a7e:	f24f 23f0 	movw	r3, #62192	; 0xf2f0
87803a82:	3402      	adds	r4, #2
87803a84:	f2c8 7380 	movt	r3, #34688	; 0x8780
87803a88:	f241 7259 	movw	r2, #5977	; 0x1759
87803a8c:	f853 3020 	ldr.w	r3, [r3, r0, lsl #2]
87803a90:	f2cd 12b7 	movt	r2, #53687	; 0xd1b7
87803a94:	fb03 f304 	mul.w	r3, r3, r4
87803a98:	fba3 2302 	umull	r2, r3, r3, r2
87803a9c:	f3c3 334f 	ubfx	r3, r3, #13, #16
87803aa0:	60eb      	str	r3, [r5, #12]
87803aa2:	bd38      	pop	{r3, r4, r5, pc}

87803aa4 <PWM1_Irq_Handler>:
87803aa4:	b510      	push	{r4, lr}
87803aa6:	f04f 7402 	mov.w	r4, #34078720	; 0x2080000
87803aaa:	6863      	ldr	r3, [r4, #4]
87803aac:	071b      	lsls	r3, r3, #28
87803aae:	d50b      	bpl.n	87803ac8 <PWM1_Irq_Handler+0x24>
87803ab0:	f24f 23f0 	movw	r3, #62192	; 0xf2f0
87803ab4:	4620      	mov	r0, r4
87803ab6:	f2c8 7380 	movt	r3, #34688	; 0x8780
87803aba:	6859      	ldr	r1, [r3, #4]
87803abc:	f7ff ffda 	bl	87803a74 <pwm_set_duty>
87803ac0:	6863      	ldr	r3, [r4, #4]
87803ac2:	f043 0308 	orr.w	r3, r3, #8
87803ac6:	6063      	str	r3, [r4, #4]
87803ac8:	bd10      	pop	{r4, pc}
87803aca:	bf00      	nop

87803acc <PWM2_Irq_Handler>:
87803acc:	b510      	push	{r4, lr}
87803ace:	f44f 4480 	mov.w	r4, #16384	; 0x4000
87803ad2:	f2c0 2408 	movt	r4, #520	; 0x208
87803ad6:	6863      	ldr	r3, [r4, #4]
87803ad8:	071b      	lsls	r3, r3, #28
87803ada:	d50b      	bpl.n	87803af4 <PWM2_Irq_Handler+0x28>
87803adc:	f24f 23f0 	movw	r3, #62192	; 0xf2f0
87803ae0:	4620      	mov	r0, r4
87803ae2:	f2c8 7380 	movt	r3, #34688	; 0x8780
87803ae6:	6899      	ldr	r1, [r3, #8]
87803ae8:	f7ff ffc4 	bl	87803a74 <pwm_set_duty>
87803aec:	6863      	ldr	r3, [r4, #4]
87803aee:	f043 0308 	orr.w	r3, r3, #8
87803af2:	6063      	str	r3, [r4, #4]
87803af4:	bd10      	pop	{r4, pc}
87803af6:	bf00      	nop

87803af8 <PWM3_Irq_Handler>:
87803af8:	b510      	push	{r4, lr}
87803afa:	f44f 4400 	mov.w	r4, #32768	; 0x8000
87803afe:	f2c0 2408 	movt	r4, #520	; 0x208
87803b02:	6863      	ldr	r3, [r4, #4]
87803b04:	071b      	lsls	r3, r3, #28
87803b06:	d50b      	bpl.n	87803b20 <PWM3_Irq_Handler+0x28>
87803b08:	f24f 23f0 	movw	r3, #62192	; 0xf2f0
87803b0c:	4620      	mov	r0, r4
87803b0e:	f2c8 7380 	movt	r3, #34688	; 0x8780
87803b12:	68d9      	ldr	r1, [r3, #12]
87803b14:	f7ff ffae 	bl	87803a74 <pwm_set_duty>
87803b18:	6863      	ldr	r3, [r4, #4]
87803b1a:	f043 0308 	orr.w	r3, r3, #8
87803b1e:	6063      	str	r3, [r4, #4]
87803b20:	bd10      	pop	{r4, pc}
87803b22:	bf00      	nop

87803b24 <PWM4_Irq_Handler>:
87803b24:	b510      	push	{r4, lr}
87803b26:	f44f 4440 	mov.w	r4, #49152	; 0xc000
87803b2a:	f2c0 2408 	movt	r4, #520	; 0x208
87803b2e:	6863      	ldr	r3, [r4, #4]
87803b30:	071b      	lsls	r3, r3, #28
87803b32:	d50b      	bpl.n	87803b4c <PWM4_Irq_Handler+0x28>
87803b34:	f24f 23f0 	movw	r3, #62192	; 0xf2f0
87803b38:	4620      	mov	r0, r4
87803b3a:	f2c8 7380 	movt	r3, #34688	; 0x8780
87803b3e:	6919      	ldr	r1, [r3, #16]
87803b40:	f7ff ff98 	bl	87803a74 <pwm_set_duty>
87803b44:	6863      	ldr	r3, [r4, #4]
87803b46:	f043 0308 	orr.w	r3, r3, #8
87803b4a:	6063      	str	r3, [r4, #4]
87803b4c:	bd10      	pop	{r4, pc}
87803b4e:	bf00      	nop

87803b50 <PWM5_Irq_Handler>:
87803b50:	b510      	push	{r4, lr}
87803b52:	2400      	movs	r4, #0
87803b54:	f2c0 240f 	movt	r4, #527	; 0x20f
87803b58:	6863      	ldr	r3, [r4, #4]
87803b5a:	071b      	lsls	r3, r3, #28
87803b5c:	d50b      	bpl.n	87803b76 <PWM5_Irq_Handler+0x26>
87803b5e:	f24f 23f0 	movw	r3, #62192	; 0xf2f0
87803b62:	4620      	mov	r0, r4
87803b64:	f2c8 7380 	movt	r3, #34688	; 0x8780
87803b68:	6959      	ldr	r1, [r3, #20]
87803b6a:	f7ff ff83 	bl	87803a74 <pwm_set_duty>
87803b6e:	6863      	ldr	r3, [r4, #4]
87803b70:	f043 0308 	orr.w	r3, r3, #8
87803b74:	6063      	str	r3, [r4, #4]
87803b76:	bd10      	pop	{r4, pc}

87803b78 <PWM6_Irq_Handler>:
87803b78:	b510      	push	{r4, lr}
87803b7a:	f44f 4480 	mov.w	r4, #16384	; 0x4000
87803b7e:	f2c0 240f 	movt	r4, #527	; 0x20f
87803b82:	6863      	ldr	r3, [r4, #4]
87803b84:	071b      	lsls	r3, r3, #28
87803b86:	d50b      	bpl.n	87803ba0 <PWM6_Irq_Handler+0x28>
87803b88:	f24f 23f0 	movw	r3, #62192	; 0xf2f0
87803b8c:	4620      	mov	r0, r4
87803b8e:	f2c8 7380 	movt	r3, #34688	; 0x8780
87803b92:	6999      	ldr	r1, [r3, #24]
87803b94:	f7ff ff6e 	bl	87803a74 <pwm_set_duty>
87803b98:	6863      	ldr	r3, [r4, #4]
87803b9a:	f043 0308 	orr.w	r3, r3, #8
87803b9e:	6063      	str	r3, [r4, #4]
87803ba0:	bd10      	pop	{r4, pc}
87803ba2:	bf00      	nop

87803ba4 <PWM7_Irq_Handler>:
87803ba4:	b510      	push	{r4, lr}
87803ba6:	f44f 4400 	mov.w	r4, #32768	; 0x8000
87803baa:	f2c0 240f 	movt	r4, #527	; 0x20f
87803bae:	6863      	ldr	r3, [r4, #4]
87803bb0:	071b      	lsls	r3, r3, #28
87803bb2:	d50b      	bpl.n	87803bcc <PWM7_Irq_Handler+0x28>
87803bb4:	f24f 23f0 	movw	r3, #62192	; 0xf2f0
87803bb8:	4620      	mov	r0, r4
87803bba:	f2c8 7380 	movt	r3, #34688	; 0x8780
87803bbe:	69d9      	ldr	r1, [r3, #28]
87803bc0:	f7ff ff58 	bl	87803a74 <pwm_set_duty>
87803bc4:	6863      	ldr	r3, [r4, #4]
87803bc6:	f043 0308 	orr.w	r3, r3, #8
87803bca:	6063      	str	r3, [r4, #4]
87803bcc:	bd10      	pop	{r4, pc}
87803bce:	bf00      	nop

87803bd0 <PWM8_Irq_Handler>:
87803bd0:	b510      	push	{r4, lr}
87803bd2:	f44f 4440 	mov.w	r4, #49152	; 0xc000
87803bd6:	f2c0 240f 	movt	r4, #527	; 0x20f
87803bda:	6863      	ldr	r3, [r4, #4]
87803bdc:	071b      	lsls	r3, r3, #28
87803bde:	d50b      	bpl.n	87803bf8 <PWM8_Irq_Handler+0x28>
87803be0:	f24f 23f0 	movw	r3, #62192	; 0xf2f0
87803be4:	4620      	mov	r0, r4
87803be6:	f2c8 7380 	movt	r3, #34688	; 0x8780
87803bea:	6a19      	ldr	r1, [r3, #32]
87803bec:	f7ff ff42 	bl	87803a74 <pwm_set_duty>
87803bf0:	6863      	ldr	r3, [r4, #4]
87803bf2:	f043 0308 	orr.w	r3, r3, #8
87803bf6:	6063      	str	r3, [r4, #4]
87803bf8:	bd10      	pop	{r4, pc}
87803bfa:	bf00      	nop

87803bfc <Pwm_Install_IrqHandler>:
87803bfc:	f1b0 7f02 	cmp.w	r0, #34078720	; 0x2080000
87803c00:	b508      	push	{r3, lr}
87803c02:	d03c      	beq.n	87803c7e <Pwm_Install_IrqHandler+0x82>
87803c04:	f44f 4380 	mov.w	r3, #16384	; 0x4000
87803c08:	f2c0 2308 	movt	r3, #520	; 0x208
87803c0c:	4298      	cmp	r0, r3
87803c0e:	d048      	beq.n	87803ca2 <Pwm_Install_IrqHandler+0xa6>
87803c10:	f44f 4300 	mov.w	r3, #32768	; 0x8000
87803c14:	f2c0 2308 	movt	r3, #520	; 0x208
87803c18:	4298      	cmp	r0, r3
87803c1a:	d054      	beq.n	87803cc6 <Pwm_Install_IrqHandler+0xca>
87803c1c:	f44f 4340 	mov.w	r3, #49152	; 0xc000
87803c20:	f2c0 2308 	movt	r3, #520	; 0x208
87803c24:	4298      	cmp	r0, r3
87803c26:	d060      	beq.n	87803cea <Pwm_Install_IrqHandler+0xee>
87803c28:	2300      	movs	r3, #0
87803c2a:	f2c0 230f 	movt	r3, #527	; 0x20f
87803c2e:	4298      	cmp	r0, r3
87803c30:	d06d      	beq.n	87803d0e <Pwm_Install_IrqHandler+0x112>
87803c32:	f44f 4380 	mov.w	r3, #16384	; 0x4000
87803c36:	f2c0 230f 	movt	r3, #527	; 0x20f
87803c3a:	4298      	cmp	r0, r3
87803c3c:	d079      	beq.n	87803d32 <Pwm_Install_IrqHandler+0x136>
87803c3e:	f44f 4300 	mov.w	r3, #32768	; 0x8000
87803c42:	f2c0 230f 	movt	r3, #527	; 0x20f
87803c46:	4298      	cmp	r0, r3
87803c48:	f000 8085 	beq.w	87803d56 <Pwm_Install_IrqHandler+0x15a>
87803c4c:	f44f 4340 	mov.w	r3, #49152	; 0xc000
87803c50:	f2c0 230f 	movt	r3, #527	; 0x20f
87803c54:	4298      	cmp	r0, r3
87803c56:	d000      	beq.n	87803c5a <Pwm_Install_IrqHandler+0x5e>
87803c58:	bd08      	pop	{r3, pc}
87803c5a:	f643 31d1 	movw	r1, #15313	; 0x3bd1
87803c5e:	2200      	movs	r2, #0
87803c60:	f2c8 7180 	movt	r1, #34688	; 0x8780
87803c64:	2095      	movs	r0, #149	; 0x95
87803c66:	f002 fcfd 	bl	87806664 <SystemInstallIrqHandler>
87803c6a:	ee9f 3f10 	mrc	15, 4, r3, cr15, cr0, {0}
87803c6e:	0c1b      	lsrs	r3, r3, #16
87803c70:	f241 1210 	movw	r2, #4368	; 0x1110
87803c74:	f44f 1100 	mov.w	r1, #2097152	; 0x200000
87803c78:	041b      	lsls	r3, r3, #16
87803c7a:	5099      	str	r1, [r3, r2]
87803c7c:	e7ec      	b.n	87803c58 <Pwm_Install_IrqHandler+0x5c>
87803c7e:	f643 21a5 	movw	r1, #15013	; 0x3aa5
87803c82:	2200      	movs	r2, #0
87803c84:	f2c8 7180 	movt	r1, #34688	; 0x8780
87803c88:	2073      	movs	r0, #115	; 0x73
87803c8a:	f002 fceb 	bl	87806664 <SystemInstallIrqHandler>
87803c8e:	ee9f 3f10 	mrc	15, 4, r3, cr15, cr0, {0}
87803c92:	0c1b      	lsrs	r3, r3, #16
87803c94:	f241 120c 	movw	r2, #4364	; 0x110c
87803c98:	f44f 2100 	mov.w	r1, #524288	; 0x80000
87803c9c:	041b      	lsls	r3, r3, #16
87803c9e:	5099      	str	r1, [r3, r2]
87803ca0:	bd08      	pop	{r3, pc}
87803ca2:	f643 21cd 	movw	r1, #15053	; 0x3acd
87803ca6:	2200      	movs	r2, #0
87803ca8:	f2c8 7180 	movt	r1, #34688	; 0x8780
87803cac:	2074      	movs	r0, #116	; 0x74
87803cae:	f002 fcd9 	bl	87806664 <SystemInstallIrqHandler>
87803cb2:	ee9f 3f10 	mrc	15, 4, r3, cr15, cr0, {0}
87803cb6:	0c1b      	lsrs	r3, r3, #16
87803cb8:	f241 120c 	movw	r2, #4364	; 0x110c
87803cbc:	f44f 1180 	mov.w	r1, #1048576	; 0x100000
87803cc0:	041b      	lsls	r3, r3, #16
87803cc2:	5099      	str	r1, [r3, r2]
87803cc4:	bd08      	pop	{r3, pc}
87803cc6:	f643 21f9 	movw	r1, #15097	; 0x3af9
87803cca:	2200      	movs	r2, #0
87803ccc:	f2c8 7180 	movt	r1, #34688	; 0x8780
87803cd0:	2075      	movs	r0, #117	; 0x75
87803cd2:	f002 fcc7 	bl	87806664 <SystemInstallIrqHandler>
87803cd6:	ee9f 3f10 	mrc	15, 4, r3, cr15, cr0, {0}
87803cda:	0c1b      	lsrs	r3, r3, #16
87803cdc:	f241 120c 	movw	r2, #4364	; 0x110c
87803ce0:	f44f 1100 	mov.w	r1, #2097152	; 0x200000
87803ce4:	041b      	lsls	r3, r3, #16
87803ce6:	5099      	str	r1, [r3, r2]
87803ce8:	bd08      	pop	{r3, pc}
87803cea:	f643 3125 	movw	r1, #15141	; 0x3b25
87803cee:	2200      	movs	r2, #0
87803cf0:	f2c8 7180 	movt	r1, #34688	; 0x8780
87803cf4:	2076      	movs	r0, #118	; 0x76
87803cf6:	f002 fcb5 	bl	87806664 <SystemInstallIrqHandler>
87803cfa:	ee9f 3f10 	mrc	15, 4, r3, cr15, cr0, {0}
87803cfe:	0c1b      	lsrs	r3, r3, #16
87803d00:	f241 120c 	movw	r2, #4364	; 0x110c
87803d04:	f44f 0180 	mov.w	r1, #4194304	; 0x400000
87803d08:	041b      	lsls	r3, r3, #16
87803d0a:	5099      	str	r1, [r3, r2]
87803d0c:	bd08      	pop	{r3, pc}
87803d0e:	f643 3151 	movw	r1, #15185	; 0x3b51
87803d12:	2200      	movs	r2, #0
87803d14:	f2c8 7180 	movt	r1, #34688	; 0x8780
87803d18:	2092      	movs	r0, #146	; 0x92
87803d1a:	f002 fca3 	bl	87806664 <SystemInstallIrqHandler>
87803d1e:	ee9f 3f10 	mrc	15, 4, r3, cr15, cr0, {0}
87803d22:	0c1b      	lsrs	r3, r3, #16
87803d24:	f241 1210 	movw	r2, #4368	; 0x1110
87803d28:	f44f 2180 	mov.w	r1, #262144	; 0x40000
87803d2c:	041b      	lsls	r3, r3, #16
87803d2e:	5099      	str	r1, [r3, r2]
87803d30:	bd08      	pop	{r3, pc}
87803d32:	f643 3179 	movw	r1, #15225	; 0x3b79
87803d36:	2200      	movs	r2, #0
87803d38:	f2c8 7180 	movt	r1, #34688	; 0x8780
87803d3c:	2093      	movs	r0, #147	; 0x93
87803d3e:	f002 fc91 	bl	87806664 <SystemInstallIrqHandler>
87803d42:	ee9f 3f10 	mrc	15, 4, r3, cr15, cr0, {0}
87803d46:	0c1b      	lsrs	r3, r3, #16
87803d48:	f241 1210 	movw	r2, #4368	; 0x1110
87803d4c:	f44f 2100 	mov.w	r1, #524288	; 0x80000
87803d50:	041b      	lsls	r3, r3, #16
87803d52:	5099      	str	r1, [r3, r2]
87803d54:	bd08      	pop	{r3, pc}
87803d56:	f643 31a5 	movw	r1, #15269	; 0x3ba5
87803d5a:	2200      	movs	r2, #0
87803d5c:	f2c8 7180 	movt	r1, #34688	; 0x8780
87803d60:	2094      	movs	r0, #148	; 0x94
87803d62:	f002 fc7f 	bl	87806664 <SystemInstallIrqHandler>
87803d66:	ee9f 3f10 	mrc	15, 4, r3, cr15, cr0, {0}
87803d6a:	0c1b      	lsrs	r3, r3, #16
87803d6c:	f241 1210 	movw	r2, #4368	; 0x1110
87803d70:	f44f 1180 	mov.w	r1, #1048576	; 0x100000
87803d74:	041b      	lsls	r3, r3, #16
87803d76:	5099      	str	r1, [r3, r2]
87803d78:	bd08      	pop	{r3, pc}
87803d7a:	bf00      	nop

87803d7c <pwm_init>:
87803d7c:	b084      	sub	sp, #16
87803d7e:	b5f0      	push	{r4, r5, r6, r7, lr}
87803d80:	b085      	sub	sp, #20
87803d82:	ac0b      	add	r4, sp, #44	; 0x2c
87803d84:	2600      	movs	r6, #0
87803d86:	f24b 0790 	movw	r7, #45200	; 0xb090
87803d8a:	4605      	mov	r5, r0
87803d8c:	e884 000e 	stmia.w	r4, {r1, r2, r3}
87803d90:	9b0f      	ldr	r3, [sp, #60]	; 0x3c
87803d92:	9300      	str	r3, [sp, #0]
87803d94:	e894 000f 	ldmia.w	r4, {r0, r1, r2, r3}
87803d98:	2404      	movs	r4, #4
87803d9a:	9702      	str	r7, [sp, #8]
87803d9c:	9601      	str	r6, [sp, #4]
87803d9e:	f7ff fb35 	bl	8780340c <iomuxc_set>
87803da2:	eddd 7a10 	vldr	s15, [sp, #64]	; 0x40
87803da6:	f44f 6382 	mov.w	r3, #1040	; 0x410
87803daa:	602e      	str	r6, [r5, #0]
87803dac:	f2c0 4301 	movt	r3, #1025	; 0x401
87803db0:	682a      	ldr	r2, [r5, #0]
87803db2:	eeb8 7a67 	vcvt.f32.u32	s14, s15
87803db6:	eddf 7a14 	vldr	s15, [pc, #80]	; 87803e08 <pwm_init+0x8c>
87803dba:	4313      	orrs	r3, r2
87803dbc:	602b      	str	r3, [r5, #0]
87803dbe:	eec7 7a87 	vdiv.f32	s15, s15, s14
87803dc2:	eefc 7ae7 	vcvt.u32.f32	s15, s15
87803dc6:	ee17 3a90 	vmov	r3, s15
87803dca:	2b01      	cmp	r3, #1
87803dcc:	bf8a      	itet	hi
87803dce:	3b02      	subhi	r3, #2
87803dd0:	2302      	movls	r3, #2
87803dd2:	b29b      	uxthhi	r3, r3
87803dd4:	612b      	str	r3, [r5, #16]
87803dd6:	9911      	ldr	r1, [sp, #68]	; 0x44
87803dd8:	4628      	mov	r0, r5
87803dda:	f7ff fe4b 	bl	87803a74 <pwm_set_duty>
87803dde:	1e63      	subs	r3, r4, #1
87803de0:	f013 04ff 	ands.w	r4, r3, #255	; 0xff
87803de4:	d1f7      	bne.n	87803dd6 <pwm_init+0x5a>
87803de6:	68ab      	ldr	r3, [r5, #8]
87803de8:	4628      	mov	r0, r5
87803dea:	f043 0301 	orr.w	r3, r3, #1
87803dee:	60ab      	str	r3, [r5, #8]
87803df0:	f7ff ff04 	bl	87803bfc <Pwm_Install_IrqHandler>
87803df4:	606c      	str	r4, [r5, #4]
87803df6:	682b      	ldr	r3, [r5, #0]
87803df8:	f043 0301 	orr.w	r3, r3, #1
87803dfc:	602b      	str	r3, [r5, #0]
87803dfe:	b005      	add	sp, #20
87803e00:	e8bd 40f0 	ldmia.w	sp!, {r4, r5, r6, r7, lr}
87803e04:	b004      	add	sp, #16
87803e06:	4770      	bx	lr
87803e08:	49742400 	ldmdbmi	r4!, {sl, sp}^

87803e0c <rtc_isleapyear.part.0>:
87803e0c:	0783      	lsls	r3, r0, #30
87803e0e:	d111      	bne.n	87803e34 <rtc_isleapyear.part.0+0x28>
87803e10:	f248 521f 	movw	r2, #34079	; 0x851f
87803e14:	f2c5 12eb 	movt	r2, #20971	; 0x51eb
87803e18:	fba0 2302 	umull	r2, r3, r0, r2
87803e1c:	095a      	lsrs	r2, r3, #5
87803e1e:	0113      	lsls	r3, r2, #4
87803e20:	eb03 0382 	add.w	r3, r3, r2, lsl #2
87803e24:	eb03 0383 	add.w	r3, r3, r3, lsl #2
87803e28:	1ac0      	subs	r0, r0, r3
87803e2a:	b280      	uxth	r0, r0
87803e2c:	3000      	adds	r0, #0
87803e2e:	bf18      	it	ne
87803e30:	2001      	movne	r0, #1
87803e32:	4770      	bx	lr
87803e34:	2000      	movs	r0, #0
87803e36:	4770      	bx	lr

87803e38 <rtc_init>:
87803e38:	f44f 4340 	mov.w	r3, #49152	; 0xc000
87803e3c:	f2c0 230c 	movt	r3, #524	; 0x20c
87803e40:	6859      	ldr	r1, [r3, #4]
87803e42:	461a      	mov	r2, r3
87803e44:	f041 4100 	orr.w	r1, r1, #2147483648	; 0x80000000
87803e48:	f441 7180 	orr.w	r1, r1, #256	; 0x100
87803e4c:	6059      	str	r1, [r3, #4]
87803e4e:	6b99      	ldr	r1, [r3, #56]	; 0x38
87803e50:	f041 0101 	orr.w	r1, r1, #1
87803e54:	6399      	str	r1, [r3, #56]	; 0x38
87803e56:	6b93      	ldr	r3, [r2, #56]	; 0x38
87803e58:	07db      	lsls	r3, r3, #31
87803e5a:	d5fc      	bpl.n	87803e56 <rtc_init+0x1e>
87803e5c:	4770      	bx	lr
87803e5e:	bf00      	nop

87803e60 <rtc_enable>:
87803e60:	f44f 4340 	mov.w	r3, #49152	; 0xc000
87803e64:	f2c0 230c 	movt	r3, #524	; 0x20c
87803e68:	6b99      	ldr	r1, [r3, #56]	; 0x38
87803e6a:	461a      	mov	r2, r3
87803e6c:	f041 0101 	orr.w	r1, r1, #1
87803e70:	6399      	str	r1, [r3, #56]	; 0x38
87803e72:	6b93      	ldr	r3, [r2, #56]	; 0x38
87803e74:	07db      	lsls	r3, r3, #31
87803e76:	d5fc      	bpl.n	87803e72 <rtc_enable+0x12>
87803e78:	4770      	bx	lr
87803e7a:	bf00      	nop

87803e7c <rtc_disable>:
87803e7c:	f44f 4340 	mov.w	r3, #49152	; 0xc000
87803e80:	f2c0 230c 	movt	r3, #524	; 0x20c
87803e84:	6b99      	ldr	r1, [r3, #56]	; 0x38
87803e86:	461a      	mov	r2, r3
87803e88:	f021 0101 	bic.w	r1, r1, #1
87803e8c:	6399      	str	r1, [r3, #56]	; 0x38
87803e8e:	6b93      	ldr	r3, [r2, #56]	; 0x38
87803e90:	07db      	lsls	r3, r3, #31
87803e92:	d4fc      	bmi.n	87803e8e <rtc_disable+0x12>
87803e94:	4770      	bx	lr
87803e96:	bf00      	nop

87803e98 <rtc_isleapyear>:
87803e98:	b430      	push	{r4, r5}
87803e9a:	f248 541f 	movw	r4, #34079	; 0x851f
87803e9e:	f2c5 14eb 	movt	r4, #20971	; 0x51eb
87803ea2:	fba0 4504 	umull	r4, r5, r0, r4
87803ea6:	09e9      	lsrs	r1, r5, #7
87803ea8:	018a      	lsls	r2, r1, #6
87803eaa:	eb02 1201 	add.w	r2, r2, r1, lsl #4
87803eae:	eb02 0282 	add.w	r2, r2, r2, lsl #2
87803eb2:	1a83      	subs	r3, r0, r2
87803eb4:	b29b      	uxth	r3, r3
87803eb6:	b10b      	cbz	r3, 87803ebc <rtc_isleapyear+0x24>
87803eb8:	bc30      	pop	{r4, r5}
87803eba:	e7a7      	b.n	87803e0c <rtc_isleapyear.part.0>
87803ebc:	2001      	movs	r0, #1
87803ebe:	bc30      	pop	{r4, r5}
87803ec0:	4770      	bx	lr
87803ec2:	bf00      	nop

87803ec4 <rtc_coverdate_to_seconds>:
87803ec4:	e92d 41f0 	stmdb	sp!, {r4, r5, r6, r7, r8, lr}
87803ec8:	f24e 1e54 	movw	lr, #57684	; 0xe154
87803ecc:	f2c8 7e80 	movt	lr, #34688	; 0x8780
87803ed0:	4605      	mov	r5, r0
87803ed2:	b088      	sub	sp, #32
87803ed4:	f240 74b2 	movw	r4, #1970	; 0x7b2
87803ed8:	f8de 0000 	ldr.w	r0, [lr]
87803edc:	ae01      	add	r6, sp, #4
87803ede:	f8de 1004 	ldr.w	r1, [lr, #4]
87803ee2:	f8de 2008 	ldr.w	r2, [lr, #8]
87803ee6:	f8de 300c 	ldr.w	r3, [lr, #12]
87803eea:	882f      	ldrh	r7, [r5, #0]
87803eec:	f8be c018 	ldrh.w	ip, [lr, #24]
87803ef0:	c60f      	stmia	r6!, {r0, r1, r2, r3}
87803ef2:	f8de 0010 	ldr.w	r0, [lr, #16]
87803ef6:	42a7      	cmp	r7, r4
87803ef8:	f8de 1014 	ldr.w	r1, [lr, #20]
87803efc:	c603      	stmia	r6!, {r0, r1}
87803efe:	f8a6 c000 	strh.w	ip, [r6]
87803f02:	d957      	bls.n	87803fb4 <rtc_coverdate_to_seconds+0xf0>
87803f04:	f248 581f 	movw	r8, #34079	; 0x851f
87803f08:	2600      	movs	r6, #0
87803f0a:	f2c5 18eb 	movt	r8, #20971	; 0x51eb
87803f0e:	e008      	b.n	87803f22 <rtc_coverdate_to_seconds+0x5e>
87803f10:	f7ff ff7c 	bl	87803e0c <rtc_isleapyear.part.0>
87803f14:	b990      	cbnz	r0, 87803f3c <rtc_coverdate_to_seconds+0x78>
87803f16:	3401      	adds	r4, #1
87803f18:	f206 166d 	addw	r6, r6, #365	; 0x16d
87803f1c:	b2a4      	uxth	r4, r4
87803f1e:	42bc      	cmp	r4, r7
87803f20:	d012      	beq.n	87803f48 <rtc_coverdate_to_seconds+0x84>
87803f22:	fba4 2308 	umull	r2, r3, r4, r8
87803f26:	4620      	mov	r0, r4
87803f28:	09da      	lsrs	r2, r3, #7
87803f2a:	0193      	lsls	r3, r2, #6
87803f2c:	eb03 1302 	add.w	r3, r3, r2, lsl #4
87803f30:	eb03 0383 	add.w	r3, r3, r3, lsl #2
87803f34:	1ae3      	subs	r3, r4, r3
87803f36:	b29b      	uxth	r3, r3
87803f38:	2b00      	cmp	r3, #0
87803f3a:	d1e9      	bne.n	87803f10 <rtc_coverdate_to_seconds+0x4c>
87803f3c:	3401      	adds	r4, #1
87803f3e:	f506 76b7 	add.w	r6, r6, #366	; 0x16e
87803f42:	b2a4      	uxth	r4, r4
87803f44:	42bc      	cmp	r4, r7
87803f46:	d1ec      	bne.n	87803f22 <rtc_coverdate_to_seconds+0x5e>
87803f48:	f248 521f 	movw	r2, #34079	; 0x851f
87803f4c:	f895 8002 	ldrb.w	r8, [r5, #2]
87803f50:	f2c5 12eb 	movt	r2, #20971	; 0x51eb
87803f54:	a908      	add	r1, sp, #32
87803f56:	fba7 2302 	umull	r2, r3, r7, r2
87803f5a:	eb01 0248 	add.w	r2, r1, r8, lsl #1
87803f5e:	f832 0c1c 	ldrh.w	r0, [r2, #-28]
87803f62:	09da      	lsrs	r2, r3, #7
87803f64:	0193      	lsls	r3, r2, #6
87803f66:	4406      	add	r6, r0
87803f68:	eb03 1302 	add.w	r3, r3, r2, lsl #4
87803f6c:	eb03 0383 	add.w	r3, r3, r3, lsl #2
87803f70:	1afb      	subs	r3, r7, r3
87803f72:	b29b      	uxth	r3, r3
87803f74:	bb33      	cbnz	r3, 87803fc4 <rtc_coverdate_to_seconds+0x100>
87803f76:	f1b8 0f02 	cmp.w	r8, #2
87803f7a:	bf88      	it	hi
87803f7c:	3601      	addhi	r6, #1
87803f7e:	792a      	ldrb	r2, [r5, #4]
87803f80:	f44f 47a3 	mov.w	r7, #20864	; 0x5180
87803f84:	f895 e005 	ldrb.w	lr, [r5, #5]
87803f88:	f2c0 0701 	movt	r7, #1
87803f8c:	78eb      	ldrb	r3, [r5, #3]
87803f8e:	79a8      	ldrb	r0, [r5, #6]
87803f90:	0211      	lsls	r1, r2, #8
87803f92:	ea4f 148e 	mov.w	r4, lr, lsl #6
87803f96:	3b01      	subs	r3, #1
87803f98:	eba1 1202 	sub.w	r2, r1, r2, lsl #4
87803f9c:	441e      	add	r6, r3
87803f9e:	eba4 038e 	sub.w	r3, r4, lr, lsl #2
87803fa2:	ebc2 1202 	rsb	r2, r2, r2, lsl #4
87803fa6:	441a      	add	r2, r3
87803fa8:	4402      	add	r2, r0
87803faa:	fb07 2006 	mla	r0, r7, r6, r2
87803fae:	b008      	add	sp, #32
87803fb0:	e8bd 81f0 	ldmia.w	sp!, {r4, r5, r6, r7, r8, pc}
87803fb4:	f895 8002 	ldrb.w	r8, [r5, #2]
87803fb8:	ab08      	add	r3, sp, #32
87803fba:	4627      	mov	r7, r4
87803fbc:	eb03 0348 	add.w	r3, r3, r8, lsl #1
87803fc0:	f833 6c1c 	ldrh.w	r6, [r3, #-28]
87803fc4:	4638      	mov	r0, r7
87803fc6:	f7ff ff21 	bl	87803e0c <rtc_isleapyear.part.0>
87803fca:	2800      	cmp	r0, #0
87803fcc:	d0d7      	beq.n	87803f7e <rtc_coverdate_to_seconds+0xba>
87803fce:	e7d2      	b.n	87803f76 <rtc_coverdate_to_seconds+0xb2>

87803fd0 <rtc_setdatetime>:
87803fd0:	b538      	push	{r3, r4, r5, lr}
87803fd2:	f44f 4340 	mov.w	r3, #49152	; 0xc000
87803fd6:	f2c0 230c 	movt	r3, #524	; 0x20c
87803fda:	461a      	mov	r2, r3
87803fdc:	6b9d      	ldr	r5, [r3, #56]	; 0x38
87803fde:	6b99      	ldr	r1, [r3, #56]	; 0x38
87803fe0:	f021 0101 	bic.w	r1, r1, #1
87803fe4:	6399      	str	r1, [r3, #56]	; 0x38
87803fe6:	6b93      	ldr	r3, [r2, #56]	; 0x38
87803fe8:	f44f 4440 	mov.w	r4, #49152	; 0xc000
87803fec:	f2c0 240c 	movt	r4, #524	; 0x20c
87803ff0:	07d9      	lsls	r1, r3, #31
87803ff2:	d4f8      	bmi.n	87803fe6 <rtc_setdatetime+0x16>
87803ff4:	f7ff ff66 	bl	87803ec4 <rtc_coverdate_to_seconds>
87803ff8:	07ea      	lsls	r2, r5, #31
87803ffa:	ea4f 4350 	mov.w	r3, r0, lsr #17
87803ffe:	ea4f 30c0 	mov.w	r0, r0, lsl #15
87804002:	6523      	str	r3, [r4, #80]	; 0x50
87804004:	6560      	str	r0, [r4, #84]	; 0x54
87804006:	d507      	bpl.n	87804018 <rtc_setdatetime+0x48>
87804008:	6ba3      	ldr	r3, [r4, #56]	; 0x38
8780400a:	4622      	mov	r2, r4
8780400c:	f043 0301 	orr.w	r3, r3, #1
87804010:	63a3      	str	r3, [r4, #56]	; 0x38
87804012:	6b93      	ldr	r3, [r2, #56]	; 0x38
87804014:	07db      	lsls	r3, r3, #31
87804016:	d5fc      	bpl.n	87804012 <rtc_setdatetime+0x42>
87804018:	bd38      	pop	{r3, r4, r5, pc}
8780401a:	bf00      	nop

8780401c <rtc_convertseconds_to_datetime>:
8780401c:	4b53      	ldr	r3, [pc, #332]	; (8780416c <rtc_convertseconds_to_datetime+0x150>)
8780401e:	e92d 4ff0 	stmdb	sp!, {r4, r5, r6, r7, r8, r9, sl, fp, lr}
87804022:	4615      	mov	r5, r2
87804024:	4682      	mov	sl, r0
87804026:	468b      	mov	fp, r1
87804028:	b085      	sub	sp, #20
8780402a:	f248 581f 	movw	r8, #34079	; 0x851f
8780402e:	6818      	ldr	r0, [r3, #0]
87804030:	466c      	mov	r4, sp
87804032:	6859      	ldr	r1, [r3, #4]
87804034:	f2c5 18eb 	movt	r8, #20971	; 0x51eb
87804038:	689a      	ldr	r2, [r3, #8]
8780403a:	7b1e      	ldrb	r6, [r3, #12]
8780403c:	2300      	movs	r3, #0
8780403e:	c407      	stmia	r4!, {r0, r1, r2}
87804040:	f44f 42a3 	mov.w	r2, #20864	; 0x5180
87804044:	7026      	strb	r6, [r4, #0]
87804046:	4650      	mov	r0, sl
87804048:	4659      	mov	r1, fp
8780404a:	f2c0 0201 	movt	r2, #1
8780404e:	f004 fb7b 	bl	87808748 <__aeabi_uldivmod>
87804052:	f44f 42a3 	mov.w	r2, #20864	; 0x5180
87804056:	1c46      	adds	r6, r0, #1
87804058:	f141 0700 	adc.w	r7, r1, #0
8780405c:	4650      	mov	r0, sl
8780405e:	4659      	mov	r1, fp
87804060:	f2c0 0201 	movt	r2, #1
87804064:	2300      	movs	r3, #0
87804066:	f004 fb6f 	bl	87808748 <__aeabi_uldivmod>
8780406a:	4692      	mov	sl, r2
8780406c:	469b      	mov	fp, r3
8780406e:	f44f 6261 	mov.w	r2, #3600	; 0xe10
87804072:	2300      	movs	r3, #0
87804074:	4650      	mov	r0, sl
87804076:	4659      	mov	r1, fp
87804078:	f004 fb66 	bl	87808748 <__aeabi_uldivmod>
8780407c:	4659      	mov	r1, fp
8780407e:	7128      	strb	r0, [r5, #4]
87804080:	f44f 6261 	mov.w	r2, #3600	; 0xe10
87804084:	4650      	mov	r0, sl
87804086:	2300      	movs	r3, #0
87804088:	f004 fb5e 	bl	87808748 <__aeabi_uldivmod>
8780408c:	4692      	mov	sl, r2
8780408e:	469b      	mov	fp, r3
87804090:	223c      	movs	r2, #60	; 0x3c
87804092:	2300      	movs	r3, #0
87804094:	4650      	mov	r0, sl
87804096:	4659      	mov	r1, fp
87804098:	f004 fb56 	bl	87808748 <__aeabi_uldivmod>
8780409c:	223c      	movs	r2, #60	; 0x3c
8780409e:	7168      	strb	r0, [r5, #5]
878040a0:	2300      	movs	r3, #0
878040a2:	4650      	mov	r0, sl
878040a4:	4659      	mov	r1, fp
878040a6:	f004 fb4f 	bl	87808748 <__aeabi_uldivmod>
878040aa:	f240 73b2 	movw	r3, #1970	; 0x7b2
878040ae:	f240 116d 	movw	r1, #365	; 0x16d
878040b2:	461c      	mov	r4, r3
878040b4:	4689      	mov	r9, r1
878040b6:	71aa      	strb	r2, [r5, #6]
878040b8:	802b      	strh	r3, [r5, #0]
878040ba:	2300      	movs	r3, #0
878040bc:	460a      	mov	r2, r1
878040be:	42bb      	cmp	r3, r7
878040c0:	f104 0001 	add.w	r0, r4, #1
878040c4:	bf08      	it	eq
878040c6:	42b1      	cmpeq	r1, r6
878040c8:	f44f 71b7 	mov.w	r1, #366	; 0x16e
878040cc:	d219      	bcs.n	87804102 <rtc_convertseconds_to_datetime+0xe6>
878040ce:	b284      	uxth	r4, r0
878040d0:	1ab6      	subs	r6, r6, r2
878040d2:	eb67 0703 	sbc.w	r7, r7, r3
878040d6:	fba4 2308 	umull	r2, r3, r4, r8
878040da:	4620      	mov	r0, r4
878040dc:	802c      	strh	r4, [r5, #0]
878040de:	09da      	lsrs	r2, r3, #7
878040e0:	0193      	lsls	r3, r2, #6
878040e2:	eb03 1302 	add.w	r3, r3, r2, lsl #4
878040e6:	eb03 0383 	add.w	r3, r3, r3, lsl #2
878040ea:	1ae3      	subs	r3, r4, r3
878040ec:	b29b      	uxth	r3, r3
878040ee:	2b00      	cmp	r3, #0
878040f0:	d0e3      	beq.n	878040ba <rtc_convertseconds_to_datetime+0x9e>
878040f2:	f7ff fe8b 	bl	87803e0c <rtc_isleapyear.part.0>
878040f6:	2800      	cmp	r0, #0
878040f8:	bf0c      	ite	eq
878040fa:	4649      	moveq	r1, r9
878040fc:	f44f 71b7 	movne.w	r1, #366	; 0x16e
87804100:	e7db      	b.n	878040ba <rtc_convertseconds_to_datetime+0x9e>
87804102:	f248 521f 	movw	r2, #34079	; 0x851f
87804106:	f2c5 12eb 	movt	r2, #20971	; 0x51eb
8780410a:	fba4 2302 	umull	r2, r3, r4, r2
8780410e:	09da      	lsrs	r2, r3, #7
87804110:	0193      	lsls	r3, r2, #6
87804112:	eb03 1302 	add.w	r3, r3, r2, lsl #4
87804116:	eb03 0383 	add.w	r3, r3, r3, lsl #2
8780411a:	1ae3      	subs	r3, r4, r3
8780411c:	b29b      	uxth	r3, r3
8780411e:	b1db      	cbz	r3, 87804158 <rtc_convertseconds_to_datetime+0x13c>
87804120:	4620      	mov	r0, r4
87804122:	f7ff fe73 	bl	87803e0c <rtc_isleapyear.part.0>
87804126:	b9b8      	cbnz	r0, 87804158 <rtc_convertseconds_to_datetime+0x13c>
87804128:	466c      	mov	r4, sp
8780412a:	2201      	movs	r2, #1
8780412c:	2300      	movs	r3, #0
8780412e:	f814 0f01 	ldrb.w	r0, [r4, #1]!
87804132:	2100      	movs	r1, #0
87804134:	42b9      	cmp	r1, r7
87804136:	bf08      	it	eq
87804138:	42b0      	cmpeq	r0, r6
8780413a:	d211      	bcs.n	87804160 <rtc_convertseconds_to_datetime+0x144>
8780413c:	3201      	adds	r2, #1
8780413e:	f143 0300 	adc.w	r3, r3, #0
87804142:	1a36      	subs	r6, r6, r0
87804144:	eb67 0701 	sbc.w	r7, r7, r1
87804148:	2b00      	cmp	r3, #0
8780414a:	bf08      	it	eq
8780414c:	2a0d      	cmpeq	r2, #13
8780414e:	d1ee      	bne.n	8780412e <rtc_convertseconds_to_datetime+0x112>
87804150:	70ee      	strb	r6, [r5, #3]
87804152:	b005      	add	sp, #20
87804154:	e8bd 8ff0 	ldmia.w	sp!, {r4, r5, r6, r7, r8, r9, sl, fp, pc}
87804158:	231d      	movs	r3, #29
8780415a:	f88d 3002 	strb.w	r3, [sp, #2]
8780415e:	e7e3      	b.n	87804128 <rtc_convertseconds_to_datetime+0x10c>
87804160:	70aa      	strb	r2, [r5, #2]
87804162:	70ee      	strb	r6, [r5, #3]
87804164:	b005      	add	sp, #20
87804166:	e8bd 8ff0 	ldmia.w	sp!, {r4, r5, r6, r7, r8, r9, sl, fp, pc}
8780416a:	bf00      	nop
8780416c:	8780e170 			; <UNDEFINED> instruction: 0x8780e170

87804170 <rtc_getseconds>:
87804170:	f44f 4240 	mov.w	r2, #49152	; 0xc000
87804174:	f2c0 220c 	movt	r2, #524	; 0x20c
87804178:	6d13      	ldr	r3, [r2, #80]	; 0x50
8780417a:	6d50      	ldr	r0, [r2, #84]	; 0x54
8780417c:	045b      	lsls	r3, r3, #17
8780417e:	ea43 30d0 	orr.w	r0, r3, r0, lsr #15
87804182:	4770      	bx	lr

87804184 <rtc_getdatetime>:
87804184:	b410      	push	{r4}
87804186:	f44f 4440 	mov.w	r4, #49152	; 0xc000
8780418a:	f2c0 240c 	movt	r4, #524	; 0x20c
8780418e:	4602      	mov	r2, r0
87804190:	2100      	movs	r1, #0
87804192:	6d23      	ldr	r3, [r4, #80]	; 0x50
87804194:	6d60      	ldr	r0, [r4, #84]	; 0x54
87804196:	f85d 4b04 	ldr.w	r4, [sp], #4
8780419a:	045b      	lsls	r3, r3, #17
8780419c:	ea43 30d0 	orr.w	r0, r3, r0, lsr #15
878041a0:	f7ff bf3c 	b.w	8780401c <rtc_convertseconds_to_datetime>

878041a4 <rtc_update_time>:
878041a4:	b530      	push	{r4, r5, lr}
878041a6:	b083      	sub	sp, #12
878041a8:	f8bd 5018 	ldrh.w	r5, [sp, #24]
878041ac:	f8bd 401c 	ldrh.w	r4, [sp, #28]
878041b0:	f8ad 0000 	strh.w	r0, [sp]
878041b4:	4668      	mov	r0, sp
878041b6:	f88d 1002 	strb.w	r1, [sp, #2]
878041ba:	f88d 2003 	strb.w	r2, [sp, #3]
878041be:	f88d 3004 	strb.w	r3, [sp, #4]
878041c2:	f88d 5005 	strb.w	r5, [sp, #5]
878041c6:	f88d 4006 	strb.w	r4, [sp, #6]
878041ca:	f7ff ff01 	bl	87803fd0 <rtc_setdatetime>
878041ce:	b003      	add	sp, #12
878041d0:	bd30      	pop	{r4, r5, pc}
878041d2:	bf00      	nop

878041d4 <ECSPI_SetBaudRate>:
878041d4:	e92d 4ff8 	stmdb	sp!, {r3, r4, r5, r6, r7, r8, r9, sl, fp, lr}
878041d8:	2600      	movs	r6, #0
878041da:	4681      	mov	r9, r0
878041dc:	460c      	mov	r4, r1
878041de:	4690      	mov	r8, r2
878041e0:	46b2      	mov	sl, r6
878041e2:	4637      	mov	r7, r6
878041e4:	f04f 35ff 	mov.w	r5, #4294967295	; 0xffffffff
878041e8:	f106 0b01 	add.w	fp, r6, #1
878041ec:	4640      	mov	r0, r8
878041ee:	4659      	mov	r1, fp
878041f0:	f004 f816 	bl	87808220 <__aeabi_uidiv>
878041f4:	2300      	movs	r3, #0
878041f6:	fa20 f103 	lsr.w	r1, r0, r3
878041fa:	42a1      	cmp	r1, r4
878041fc:	eba1 0204 	sub.w	r2, r1, r4
87804200:	bf98      	it	ls
87804202:	1a62      	subls	r2, r4, r1
87804204:	42aa      	cmp	r2, r5
87804206:	bf38      	it	cc
87804208:	461f      	movcc	r7, r3
8780420a:	f103 0301 	add.w	r3, r3, #1
8780420e:	bf3c      	itt	cc
87804210:	4615      	movcc	r5, r2
87804212:	46b2      	movcc	sl, r6
87804214:	b2db      	uxtb	r3, r3
87804216:	1c11      	adds	r1, r2, #0
87804218:	bf18      	it	ne
8780421a:	2101      	movne	r1, #1
8780421c:	2b0f      	cmp	r3, #15
8780421e:	bf8c      	ite	hi
87804220:	f04f 0e00 	movhi.w	lr, #0
87804224:	f001 0e01 	andls.w	lr, r1, #1
87804228:	f1be 0f00 	cmp.w	lr, #0
8780422c:	d1e3      	bne.n	878041f6 <ECSPI_SetBaudRate+0x22>
8780422e:	fa5f f68b 	uxtb.w	r6, fp
87804232:	2e0f      	cmp	r6, #15
87804234:	bf8c      	ite	hi
87804236:	2100      	movhi	r1, #0
87804238:	f001 0101 	andls.w	r1, r1, #1
8780423c:	b109      	cbz	r1, 87804242 <ECSPI_SetBaudRate+0x6e>
8780423e:	2a00      	cmp	r2, #0
87804240:	d1d2      	bne.n	878041e8 <ECSPI_SetBaudRate+0x14>
87804242:	ea4f 320a 	mov.w	r2, sl, lsl #12
87804246:	023b      	lsls	r3, r7, #8
87804248:	f8d9 1008 	ldr.w	r1, [r9, #8]
8780424c:	b292      	uxth	r2, r2
8780424e:	f403 6370 	and.w	r3, r3, #3840	; 0xf00
87804252:	4313      	orrs	r3, r2
87804254:	430b      	orrs	r3, r1
87804256:	f8c9 3008 	str.w	r3, [r9, #8]
8780425a:	e8bd 8ff8 	ldmia.w	sp!, {r3, r4, r5, r6, r7, r8, r9, sl, fp, pc}
8780425e:	bf00      	nop

87804260 <spi_get_channel>:
87804260:	2000      	movs	r0, #0
87804262:	4770      	bx	lr

87804264 <spi_transfer_8bit>:
87804264:	6883      	ldr	r3, [r0, #8]
87804266:	f423 2340 	bic.w	r3, r3, #786432	; 0xc0000
8780426a:	6083      	str	r3, [r0, #8]
8780426c:	6883      	ldr	r3, [r0, #8]
8780426e:	6083      	str	r3, [r0, #8]
87804270:	6983      	ldr	r3, [r0, #24]
87804272:	07da      	lsls	r2, r3, #31
87804274:	d5fc      	bpl.n	87804270 <spi_transfer_8bit+0xc>
87804276:	6041      	str	r1, [r0, #4]
87804278:	6983      	ldr	r3, [r0, #24]
8780427a:	071b      	lsls	r3, r3, #28
8780427c:	d5fc      	bpl.n	87804278 <spi_transfer_8bit+0x14>
8780427e:	6800      	ldr	r0, [r0, #0]
87804280:	b2c0      	uxtb	r0, r0
87804282:	4770      	bx	lr

87804284 <spi_transfer_8bit_array>:
87804284:	b430      	push	{r4, r5}
87804286:	25ff      	movs	r5, #255	; 0xff
87804288:	6884      	ldr	r4, [r0, #8]
8780428a:	f424 2440 	bic.w	r4, r4, #786432	; 0xc0000
8780428e:	6084      	str	r4, [r0, #8]
87804290:	6884      	ldr	r4, [r0, #8]
87804292:	6084      	str	r4, [r0, #8]
87804294:	b189      	cbz	r1, 878042ba <spi_transfer_8bit_array+0x36>
87804296:	6984      	ldr	r4, [r0, #24]
87804298:	07e4      	lsls	r4, r4, #31
8780429a:	d5fc      	bpl.n	87804296 <spi_transfer_8bit_array+0x12>
8780429c:	780c      	ldrb	r4, [r1, #0]
8780429e:	3101      	adds	r1, #1
878042a0:	6044      	str	r4, [r0, #4]
878042a2:	b182      	cbz	r2, 878042c6 <spi_transfer_8bit_array+0x42>
878042a4:	6984      	ldr	r4, [r0, #24]
878042a6:	0724      	lsls	r4, r4, #28
878042a8:	d5fc      	bpl.n	878042a4 <spi_transfer_8bit_array+0x20>
878042aa:	6804      	ldr	r4, [r0, #0]
878042ac:	3201      	adds	r2, #1
878042ae:	f802 4c01 	strb.w	r4, [r2, #-1]
878042b2:	3b01      	subs	r3, #1
878042b4:	d1ee      	bne.n	87804294 <spi_transfer_8bit_array+0x10>
878042b6:	bc30      	pop	{r4, r5}
878042b8:	4770      	bx	lr
878042ba:	6984      	ldr	r4, [r0, #24]
878042bc:	07e4      	lsls	r4, r4, #31
878042be:	d5fc      	bpl.n	878042ba <spi_transfer_8bit_array+0x36>
878042c0:	6045      	str	r5, [r0, #4]
878042c2:	2a00      	cmp	r2, #0
878042c4:	d1ee      	bne.n	878042a4 <spi_transfer_8bit_array+0x20>
878042c6:	6984      	ldr	r4, [r0, #24]
878042c8:	0724      	lsls	r4, r4, #28
878042ca:	d4f2      	bmi.n	878042b2 <spi_transfer_8bit_array+0x2e>
878042cc:	6984      	ldr	r4, [r0, #24]
878042ce:	0724      	lsls	r4, r4, #28
878042d0:	d5f9      	bpl.n	878042c6 <spi_transfer_8bit_array+0x42>
878042d2:	e7ee      	b.n	878042b2 <spi_transfer_8bit_array+0x2e>

878042d4 <spi_transfer_16bit>:
878042d4:	6883      	ldr	r3, [r0, #8]
878042d6:	f423 2340 	bic.w	r3, r3, #786432	; 0xc0000
878042da:	6083      	str	r3, [r0, #8]
878042dc:	6883      	ldr	r3, [r0, #8]
878042de:	6083      	str	r3, [r0, #8]
878042e0:	6983      	ldr	r3, [r0, #24]
878042e2:	07da      	lsls	r2, r3, #31
878042e4:	d5fc      	bpl.n	878042e0 <spi_transfer_16bit+0xc>
878042e6:	0a0b      	lsrs	r3, r1, #8
878042e8:	6043      	str	r3, [r0, #4]
878042ea:	6983      	ldr	r3, [r0, #24]
878042ec:	071b      	lsls	r3, r3, #28
878042ee:	d5fc      	bpl.n	878042ea <spi_transfer_16bit+0x16>
878042f0:	6803      	ldr	r3, [r0, #0]
878042f2:	6983      	ldr	r3, [r0, #24]
878042f4:	07da      	lsls	r2, r3, #31
878042f6:	d5fc      	bpl.n	878042f2 <spi_transfer_16bit+0x1e>
878042f8:	b2cb      	uxtb	r3, r1
878042fa:	6043      	str	r3, [r0, #4]
878042fc:	6983      	ldr	r3, [r0, #24]
878042fe:	071b      	lsls	r3, r3, #28
87804300:	d5fc      	bpl.n	878042fc <spi_transfer_16bit+0x28>
87804302:	6803      	ldr	r3, [r0, #0]
87804304:	ea43 2001 	orr.w	r0, r3, r1, lsl #8
87804308:	b280      	uxth	r0, r0
8780430a:	4770      	bx	lr

8780430c <spi_transfer_16bit_array>:
8780430c:	b430      	push	{r4, r5}
8780430e:	3902      	subs	r1, #2
87804310:	6884      	ldr	r4, [r0, #8]
87804312:	f424 2440 	bic.w	r4, r4, #786432	; 0xc0000
87804316:	6084      	str	r4, [r0, #8]
87804318:	6884      	ldr	r4, [r0, #8]
8780431a:	6084      	str	r4, [r0, #8]
8780431c:	6984      	ldr	r4, [r0, #24]
8780431e:	07e4      	lsls	r4, r4, #31
87804320:	d5fc      	bpl.n	8780431c <spi_transfer_16bit_array+0x10>
87804322:	f831 5f02 	ldrh.w	r5, [r1, #2]!
87804326:	0a2c      	lsrs	r4, r5, #8
87804328:	6044      	str	r4, [r0, #4]
8780432a:	b1d2      	cbz	r2, 87804362 <spi_transfer_16bit_array+0x56>
8780432c:	6984      	ldr	r4, [r0, #24]
8780432e:	0725      	lsls	r5, r4, #28
87804330:	d5fc      	bpl.n	8780432c <spi_transfer_16bit_array+0x20>
87804332:	6804      	ldr	r4, [r0, #0]
87804334:	b2e4      	uxtb	r4, r4
87804336:	8014      	strh	r4, [r2, #0]
87804338:	880d      	ldrh	r5, [r1, #0]
8780433a:	6984      	ldr	r4, [r0, #24]
8780433c:	07e4      	lsls	r4, r4, #31
8780433e:	d5fc      	bpl.n	8780433a <spi_transfer_16bit_array+0x2e>
87804340:	b2ed      	uxtb	r5, r5
87804342:	6045      	str	r5, [r0, #4]
87804344:	b18a      	cbz	r2, 8780436a <spi_transfer_16bit_array+0x5e>
87804346:	6984      	ldr	r4, [r0, #24]
87804348:	0725      	lsls	r5, r4, #28
8780434a:	d5fc      	bpl.n	87804346 <spi_transfer_16bit_array+0x3a>
8780434c:	6804      	ldr	r4, [r0, #0]
8780434e:	8815      	ldrh	r5, [r2, #0]
87804350:	ea44 2405 	orr.w	r4, r4, r5, lsl #8
87804354:	8014      	strh	r4, [r2, #0]
87804356:	3b01      	subs	r3, #1
87804358:	f102 0202 	add.w	r2, r2, #2
8780435c:	d1de      	bne.n	8780431c <spi_transfer_16bit_array+0x10>
8780435e:	bc30      	pop	{r4, r5}
87804360:	4770      	bx	lr
87804362:	6984      	ldr	r4, [r0, #24]
87804364:	0724      	lsls	r4, r4, #28
87804366:	d5fc      	bpl.n	87804362 <spi_transfer_16bit_array+0x56>
87804368:	e7e7      	b.n	8780433a <spi_transfer_16bit_array+0x2e>
8780436a:	6984      	ldr	r4, [r0, #24]
8780436c:	0724      	lsls	r4, r4, #28
8780436e:	d5fc      	bpl.n	8780436a <spi_transfer_16bit_array+0x5e>
87804370:	e7f1      	b.n	87804356 <spi_transfer_16bit_array+0x4a>
87804372:	bf00      	nop

87804374 <spi_transfer_8bit_register>:
87804374:	6883      	ldr	r3, [r0, #8]
87804376:	f423 2340 	bic.w	r3, r3, #786432	; 0xc0000
8780437a:	6083      	str	r3, [r0, #8]
8780437c:	6883      	ldr	r3, [r0, #8]
8780437e:	6083      	str	r3, [r0, #8]
87804380:	6983      	ldr	r3, [r0, #24]
87804382:	07db      	lsls	r3, r3, #31
87804384:	d5fc      	bpl.n	87804380 <spi_transfer_8bit_register+0xc>
87804386:	6041      	str	r1, [r0, #4]
87804388:	6983      	ldr	r3, [r0, #24]
8780438a:	071b      	lsls	r3, r3, #28
8780438c:	d5fc      	bpl.n	87804388 <spi_transfer_8bit_register+0x14>
8780438e:	6803      	ldr	r3, [r0, #0]
87804390:	6883      	ldr	r3, [r0, #8]
87804392:	f423 2340 	bic.w	r3, r3, #786432	; 0xc0000
87804396:	6083      	str	r3, [r0, #8]
87804398:	6883      	ldr	r3, [r0, #8]
8780439a:	6083      	str	r3, [r0, #8]
8780439c:	6983      	ldr	r3, [r0, #24]
8780439e:	07d9      	lsls	r1, r3, #31
878043a0:	d5fc      	bpl.n	8780439c <spi_transfer_8bit_register+0x28>
878043a2:	6042      	str	r2, [r0, #4]
878043a4:	6983      	ldr	r3, [r0, #24]
878043a6:	071b      	lsls	r3, r3, #28
878043a8:	d5fc      	bpl.n	878043a4 <spi_transfer_8bit_register+0x30>
878043aa:	6800      	ldr	r0, [r0, #0]
878043ac:	b2c0      	uxtb	r0, r0
878043ae:	4770      	bx	lr

878043b0 <spi_transfer_8bit_registers>:
878043b0:	b410      	push	{r4}
878043b2:	6884      	ldr	r4, [r0, #8]
878043b4:	f424 2440 	bic.w	r4, r4, #786432	; 0xc0000
878043b8:	6084      	str	r4, [r0, #8]
878043ba:	6884      	ldr	r4, [r0, #8]
878043bc:	6084      	str	r4, [r0, #8]
878043be:	6984      	ldr	r4, [r0, #24]
878043c0:	07e4      	lsls	r4, r4, #31
878043c2:	d5fc      	bpl.n	878043be <spi_transfer_8bit_registers+0xe>
878043c4:	6041      	str	r1, [r0, #4]
878043c6:	6981      	ldr	r1, [r0, #24]
878043c8:	0709      	lsls	r1, r1, #28
878043ca:	d5fc      	bpl.n	878043c6 <spi_transfer_8bit_registers+0x16>
878043cc:	6801      	ldr	r1, [r0, #0]
878043ce:	2100      	movs	r1, #0
878043d0:	f85d 4b04 	ldr.w	r4, [sp], #4
878043d4:	f7ff bf56 	b.w	87804284 <spi_transfer_8bit_array>

878043d8 <spi_transfer_16bit_register>:
878043d8:	b538      	push	{r3, r4, r5, lr}
878043da:	4615      	mov	r5, r2
878043dc:	4604      	mov	r4, r0
878043de:	f7ff ff79 	bl	878042d4 <spi_transfer_16bit>
878043e2:	4629      	mov	r1, r5
878043e4:	4620      	mov	r0, r4
878043e6:	e8bd 4038 	ldmia.w	sp!, {r3, r4, r5, lr}
878043ea:	f7ff bf73 	b.w	878042d4 <spi_transfer_16bit>
878043ee:	bf00      	nop

878043f0 <spi_transfer_16bit_registers>:
878043f0:	b570      	push	{r4, r5, r6, lr}
878043f2:	4615      	mov	r5, r2
878043f4:	461e      	mov	r6, r3
878043f6:	4604      	mov	r4, r0
878043f8:	f7ff ff6c 	bl	878042d4 <spi_transfer_16bit>
878043fc:	4633      	mov	r3, r6
878043fe:	4629      	mov	r1, r5
87804400:	4620      	mov	r0, r4
87804402:	2200      	movs	r2, #0
87804404:	e8bd 4070 	ldmia.w	sp!, {r4, r5, r6, lr}
87804408:	f7ff bf80 	b.w	8780430c <spi_transfer_16bit_array>

8780440c <spi_init>:
8780440c:	b470      	push	{r4, r5, r6}
8780440e:	2500      	movs	r5, #0
87804410:	6085      	str	r5, [r0, #8]
87804412:	f44f 5600 	mov.w	r6, #8192	; 0x2000
87804416:	f44f 4207 	mov.w	r2, #34560	; 0x8700
8780441a:	6884      	ldr	r4, [r0, #8]
8780441c:	f2c0 3293 	movt	r2, #915	; 0x393
87804420:	f444 04e0 	orr.w	r4, r4, #7340032	; 0x700000
87804424:	f044 0419 	orr.w	r4, r4, #25
87804428:	6084      	str	r4, [r0, #8]
8780442a:	60c5      	str	r5, [r0, #12]
8780442c:	61c6      	str	r6, [r0, #28]
8780442e:	bc70      	pop	{r4, r5, r6}
87804430:	f7ff bed0 	b.w	878041d4 <ECSPI_SetBaudRate>

87804434 <uart_init>:
87804434:	e92d 41f0 	stmdb	sp!, {r4, r5, r6, r7, r8, lr}
87804438:	2400      	movs	r4, #0
8780443a:	4606      	mov	r6, r0
8780443c:	f2c0 2402 	movt	r4, #514	; 0x202
87804440:	42a6      	cmp	r6, r4
87804442:	b08a      	sub	sp, #40	; 0x28
87804444:	f04f 0301 	mov.w	r3, #1
87804448:	f04f 0200 	mov.w	r2, #0
8780444c:	f04f 0002 	mov.w	r0, #2
87804450:	9104      	str	r1, [sp, #16]
87804452:	9205      	str	r2, [sp, #20]
87804454:	9207      	str	r2, [sp, #28]
87804456:	f88d 2022 	strb.w	r2, [sp, #34]	; 0x22
8780445a:	9306      	str	r3, [sp, #24]
8780445c:	f88d 3021 	strb.w	r3, [sp, #33]	; 0x21
87804460:	f88d 3023 	strb.w	r3, [sp, #35]	; 0x23
87804464:	f88d 3024 	strb.w	r3, [sp, #36]	; 0x24
87804468:	f88d 0020 	strb.w	r0, [sp, #32]
8780446c:	d059      	beq.n	87804522 <uart_init+0xee>
8780446e:	f44f 4300 	mov.w	r3, #32768	; 0x8000
87804472:	f2c0 231e 	movt	r3, #542	; 0x21e
87804476:	429e      	cmp	r6, r3
87804478:	bf08      	it	eq
8780447a:	4f32      	ldreq	r7, [pc, #200]	; (87804544 <uart_init+0x110>)
8780447c:	d039      	beq.n	878044f2 <uart_init+0xbe>
8780447e:	f44f 4340 	mov.w	r3, #49152	; 0xc000
87804482:	f2c0 231e 	movt	r3, #542	; 0x21e
87804486:	429e      	cmp	r6, r3
87804488:	bf08      	it	eq
8780448a:	4f2f      	ldreq	r7, [pc, #188]	; (87804548 <uart_init+0x114>)
8780448c:	d031      	beq.n	878044f2 <uart_init+0xbe>
8780448e:	2300      	movs	r3, #0
87804490:	f2c0 231f 	movt	r3, #543	; 0x21f
87804494:	429e      	cmp	r6, r3
87804496:	bf08      	it	eq
87804498:	4f2c      	ldreq	r7, [pc, #176]	; (8780454c <uart_init+0x118>)
8780449a:	d02a      	beq.n	878044f2 <uart_init+0xbe>
8780449c:	f44f 4380 	mov.w	r3, #16384	; 0x4000
878044a0:	f2c0 231f 	movt	r3, #543	; 0x21f
878044a4:	429e      	cmp	r6, r3
878044a6:	d023      	beq.n	878044f0 <uart_init+0xbc>
878044a8:	f24f 3514 	movw	r5, #62228	; 0xf314
878044ac:	f24f 3428 	movw	r4, #62248	; 0xf328
878044b0:	f2c8 7580 	movt	r5, #34688	; 0x8780
878044b4:	f2c8 7480 	movt	r4, #34688	; 0x8780
878044b8:	692b      	ldr	r3, [r5, #16]
878044ba:	f241 08b0 	movw	r8, #4272	; 0x10b0
878044be:	2700      	movs	r7, #0
878044c0:	e88d 0188 	stmia.w	sp, {r3, r7, r8}
878044c4:	e895 000f 	ldmia.w	r5, {r0, r1, r2, r3}
878044c8:	f7fe ffa0 	bl	8780340c <iomuxc_set>
878044cc:	6923      	ldr	r3, [r4, #16]
878044ce:	e88d 0188 	stmia.w	sp, {r3, r7, r8}
878044d2:	e894 000f 	ldmia.w	r4, {r0, r1, r2, r3}
878044d6:	f7fe ff99 	bl	8780340c <iomuxc_set>
878044da:	f44f 4234 	mov.w	r2, #46080	; 0xb400
878044de:	4630      	mov	r0, r6
878044e0:	f2c0 42c4 	movt	r2, #1220	; 0x4c4
878044e4:	a904      	add	r1, sp, #16
878044e6:	f001 f8bb 	bl	87805660 <UART_Init>
878044ea:	b00a      	add	sp, #40	; 0x28
878044ec:	e8bd 81f0 	ldmia.w	sp!, {r4, r5, r6, r7, r8, pc}
878044f0:	4f17      	ldr	r7, [pc, #92]	; (87804550 <uart_init+0x11c>)
878044f2:	cf0f      	ldmia	r7!, {r0, r1, r2, r3}
878044f4:	f24f 3514 	movw	r5, #62228	; 0xf314
878044f8:	f24f 3428 	movw	r4, #62248	; 0xf328
878044fc:	f2c8 7580 	movt	r5, #34688	; 0x8780
87804500:	f2c8 7480 	movt	r4, #34688	; 0x8780
87804504:	46ac      	mov	ip, r5
87804506:	46a6      	mov	lr, r4
87804508:	e8ac 000f 	stmia.w	ip!, {r0, r1, r2, r3}
8780450c:	f857 3b04 	ldr.w	r3, [r7], #4
87804510:	f8cc 3000 	str.w	r3, [ip]
87804514:	cf0f      	ldmia	r7!, {r0, r1, r2, r3}
87804516:	683f      	ldr	r7, [r7, #0]
87804518:	e8ae 000f 	stmia.w	lr!, {r0, r1, r2, r3}
8780451c:	f8ce 7000 	str.w	r7, [lr]
87804520:	e7ca      	b.n	878044b8 <uart_init+0x84>
87804522:	f24e 1780 	movw	r7, #57728	; 0xe180
87804526:	f24f 3514 	movw	r5, #62228	; 0xf314
8780452a:	f24f 3428 	movw	r4, #62248	; 0xf328
8780452e:	f2c8 7780 	movt	r7, #34688	; 0x8780
87804532:	f2c8 7580 	movt	r5, #34688	; 0x8780
87804536:	f2c8 7480 	movt	r4, #34688	; 0x8780
8780453a:	cf0f      	ldmia	r7!, {r0, r1, r2, r3}
8780453c:	46ac      	mov	ip, r5
8780453e:	46a6      	mov	lr, r4
87804540:	e7e2      	b.n	87804508 <uart_init+0xd4>
87804542:	bf00      	nop
87804544:	8780e1a8 	strhi	lr, [r0, r8, lsr #3]
87804548:	8780e1d0 			; <UNDEFINED> instruction: 0x8780e1d0
8780454c:	8780e1f8 			; <UNDEFINED> instruction: 0x8780e1f8
87804550:	8780e220 	strhi	lr, [r0, r0, lsr #4]

87804554 <uart_write_byte>:
87804554:	f8d0 3098 	ldr.w	r3, [r0, #152]	; 0x98
87804558:	071b      	lsls	r3, r3, #28
8780455a:	d5fb      	bpl.n	87804554 <uart_write_byte>
8780455c:	6401      	str	r1, [r0, #64]	; 0x40
8780455e:	4770      	bx	lr

87804560 <uart_write_buffer>:
87804560:	b162      	cbz	r2, 8780457c <uart_write_buffer+0x1c>
87804562:	b410      	push	{r4}
87804564:	188c      	adds	r4, r1, r2
87804566:	f811 2b01 	ldrb.w	r2, [r1], #1
8780456a:	f8d0 3098 	ldr.w	r3, [r0, #152]	; 0x98
8780456e:	071b      	lsls	r3, r3, #28
87804570:	d5fb      	bpl.n	8780456a <uart_write_buffer+0xa>
87804572:	42a1      	cmp	r1, r4
87804574:	6402      	str	r2, [r0, #64]	; 0x40
87804576:	d1f6      	bne.n	87804566 <uart_write_buffer+0x6>
87804578:	f85d 4b04 	ldr.w	r4, [sp], #4
8780457c:	4770      	bx	lr
8780457e:	bf00      	nop

87804580 <uart_write_string>:
87804580:	780a      	ldrb	r2, [r1, #0]
87804582:	b142      	cbz	r2, 87804596 <uart_write_string+0x16>
87804584:	f8d0 3098 	ldr.w	r3, [r0, #152]	; 0x98
87804588:	071b      	lsls	r3, r3, #28
8780458a:	d5fb      	bpl.n	87804584 <uart_write_string+0x4>
8780458c:	6402      	str	r2, [r0, #64]	; 0x40
8780458e:	f811 2f01 	ldrb.w	r2, [r1, #1]!
87804592:	2a00      	cmp	r2, #0
87804594:	d1f6      	bne.n	87804584 <uart_write_string+0x4>
87804596:	4770      	bx	lr

87804598 <uart_read_byte>:
87804598:	2200      	movs	r2, #0
8780459a:	f2c0 2202 	movt	r2, #514	; 0x202
8780459e:	f8d2 3098 	ldr.w	r3, [r2, #152]	; 0x98
878045a2:	07db      	lsls	r3, r3, #31
878045a4:	d5fb      	bpl.n	8780459e <uart_read_byte+0x6>
878045a6:	6800      	ldr	r0, [r0, #0]
878045a8:	b2c0      	uxtb	r0, r0
878045aa:	4770      	bx	lr

878045ac <uart_query_byte>:
878045ac:	2300      	movs	r3, #0
878045ae:	f2c0 2302 	movt	r3, #514	; 0x202
878045b2:	f8d3 3098 	ldr.w	r3, [r3, #152]	; 0x98
878045b6:	07db      	lsls	r3, r3, #31
878045b8:	bf5b      	ittet	pl
878045ba:	6803      	ldrpl	r3, [r0, #0]
878045bc:	2001      	movpl	r0, #1
878045be:	2000      	movmi	r0, #0
878045c0:	700b      	strbpl	r3, [r1, #0]
878045c2:	4770      	bx	lr

878045c4 <raise>:
878045c4:	2000      	movs	r0, #0
878045c6:	4770      	bx	lr

878045c8 <CLOCK_InitExternalClk>:
878045c8:	f248 1210 	movw	r2, #33040	; 0x8110
878045cc:	f44f 4300 	mov.w	r3, #32768	; 0x8000
878045d0:	f2c0 220c 	movt	r2, #524	; 0x20c
878045d4:	f2c0 230c 	movt	r3, #524	; 0x20c
878045d8:	f04f 4180 	mov.w	r1, #1073741824	; 0x40000000
878045dc:	f8c3 1158 	str.w	r1, [r3, #344]	; 0x158
878045e0:	f8d2 3160 	ldr.w	r3, [r2, #352]	; 0x160
878045e4:	03d9      	lsls	r1, r3, #15
878045e6:	d5fb      	bpl.n	878045e0 <CLOCK_InitExternalClk+0x18>
878045e8:	f44f 4300 	mov.w	r3, #32768	; 0x8000
878045ec:	f44f 3280 	mov.w	r2, #65536	; 0x10000
878045f0:	f2c0 230c 	movt	r3, #524	; 0x20c
878045f4:	4619      	mov	r1, r3
878045f6:	f8c3 2154 	str.w	r2, [r3, #340]	; 0x154
878045fa:	f8d1 2150 	ldr.w	r2, [r1, #336]	; 0x150
878045fe:	f44f 4300 	mov.w	r3, #32768	; 0x8000
87804602:	f2c0 230c 	movt	r3, #524	; 0x20c
87804606:	0412      	lsls	r2, r2, #16
87804608:	d5f7      	bpl.n	878045fa <CLOCK_InitExternalClk+0x32>
8780460a:	f44f 3280 	mov.w	r2, #65536	; 0x10000
8780460e:	f8c3 2158 	str.w	r2, [r3, #344]	; 0x158
87804612:	4770      	bx	lr

87804614 <CLOCK_DeinitExternalClk>:
87804614:	f44f 4300 	mov.w	r3, #32768	; 0x8000
87804618:	f04f 4280 	mov.w	r2, #1073741824	; 0x40000000
8780461c:	f2c0 230c 	movt	r3, #524	; 0x20c
87804620:	f8c3 2154 	str.w	r2, [r3, #340]	; 0x154
87804624:	4770      	bx	lr
87804626:	bf00      	nop

87804628 <CLOCK_SwitchOsc>:
87804628:	f248 1310 	movw	r3, #33040	; 0x8110
8780462c:	2210      	movs	r2, #16
8780462e:	f2c0 230c 	movt	r3, #524	; 0x20c
87804632:	b110      	cbz	r0, 8780463a <CLOCK_SwitchOsc+0x12>
87804634:	f8c3 2168 	str.w	r2, [r3, #360]	; 0x168
87804638:	4770      	bx	lr
8780463a:	f8c3 2164 	str.w	r2, [r3, #356]	; 0x164
8780463e:	4770      	bx	lr

87804640 <CLOCK_InitRcOsc24M>:
87804640:	f248 1310 	movw	r3, #33040	; 0x8110
87804644:	f2c0 230c 	movt	r3, #524	; 0x20c
87804648:	f8d3 2160 	ldr.w	r2, [r3, #352]	; 0x160
8780464c:	f042 0201 	orr.w	r2, r2, #1
87804650:	f8c3 2160 	str.w	r2, [r3, #352]	; 0x160
87804654:	4770      	bx	lr
87804656:	bf00      	nop

87804658 <CLOCK_DeinitRcOsc24M>:
87804658:	f248 1310 	movw	r3, #33040	; 0x8110
8780465c:	f2c0 230c 	movt	r3, #524	; 0x20c
87804660:	f8d3 2160 	ldr.w	r2, [r3, #352]	; 0x160
87804664:	f022 0201 	bic.w	r2, r2, #1
87804668:	f8c3 2160 	str.w	r2, [r3, #352]	; 0x160
8780466c:	4770      	bx	lr
8780466e:	bf00      	nop

87804670 <CLOCK_InitArmPll>:
87804670:	6803      	ldr	r3, [r0, #0]
87804672:	f44f 4100 	mov.w	r1, #32768	; 0x8000
87804676:	f2c0 210c 	movt	r1, #524	; 0x20c
8780467a:	460a      	mov	r2, r1
8780467c:	f003 037f 	and.w	r3, r3, #127	; 0x7f
87804680:	f443 5300 	orr.w	r3, r3, #8192	; 0x2000
87804684:	600b      	str	r3, [r1, #0]
87804686:	6813      	ldr	r3, [r2, #0]
87804688:	2b00      	cmp	r3, #0
8780468a:	dafc      	bge.n	87804686 <CLOCK_InitArmPll+0x16>
8780468c:	4770      	bx	lr
8780468e:	bf00      	nop

87804690 <CLOCK_DeinitArmPll>:
87804690:	f44f 4300 	mov.w	r3, #32768	; 0x8000
87804694:	f44f 5280 	mov.w	r2, #4096	; 0x1000
87804698:	f2c0 230c 	movt	r3, #524	; 0x20c
8780469c:	601a      	str	r2, [r3, #0]
8780469e:	4770      	bx	lr

878046a0 <CLOCK_InitSysPll>:
878046a0:	7803      	ldrb	r3, [r0, #0]
878046a2:	f44f 4100 	mov.w	r1, #32768	; 0x8000
878046a6:	f2c0 210c 	movt	r1, #524	; 0x20c
878046aa:	460a      	mov	r2, r1
878046ac:	f003 0301 	and.w	r3, r3, #1
878046b0:	f443 5300 	orr.w	r3, r3, #8192	; 0x2000
878046b4:	630b      	str	r3, [r1, #48]	; 0x30
878046b6:	6b13      	ldr	r3, [r2, #48]	; 0x30
878046b8:	2b00      	cmp	r3, #0
878046ba:	dafc      	bge.n	878046b6 <CLOCK_InitSysPll+0x16>
878046bc:	4770      	bx	lr
878046be:	bf00      	nop

878046c0 <CLOCK_DeinitSysPll>:
878046c0:	f44f 4300 	mov.w	r3, #32768	; 0x8000
878046c4:	f44f 5280 	mov.w	r2, #4096	; 0x1000
878046c8:	f2c0 230c 	movt	r3, #524	; 0x20c
878046cc:	631a      	str	r2, [r3, #48]	; 0x30
878046ce:	4770      	bx	lr

878046d0 <CLOCK_InitUsb1Pll>:
878046d0:	7803      	ldrb	r3, [r0, #0]
878046d2:	f44f 4100 	mov.w	r1, #32768	; 0x8000
878046d6:	f2c0 210c 	movt	r1, #524	; 0x20c
878046da:	460a      	mov	r2, r1
878046dc:	f003 0303 	and.w	r3, r3, #3
878046e0:	f443 5341 	orr.w	r3, r3, #12352	; 0x3040
878046e4:	610b      	str	r3, [r1, #16]
878046e6:	6913      	ldr	r3, [r2, #16]
878046e8:	2b00      	cmp	r3, #0
878046ea:	dafc      	bge.n	878046e6 <CLOCK_InitUsb1Pll+0x16>
878046ec:	4770      	bx	lr
878046ee:	bf00      	nop

878046f0 <CLOCK_DeinitUsb1Pll>:
878046f0:	f44f 4300 	mov.w	r3, #32768	; 0x8000
878046f4:	2200      	movs	r2, #0
878046f6:	f2c0 230c 	movt	r3, #524	; 0x20c
878046fa:	611a      	str	r2, [r3, #16]
878046fc:	4770      	bx	lr
878046fe:	bf00      	nop

87804700 <CLOCK_InitUsb2Pll>:
87804700:	7803      	ldrb	r3, [r0, #0]
87804702:	f44f 4100 	mov.w	r1, #32768	; 0x8000
87804706:	f2c0 210c 	movt	r1, #524	; 0x20c
8780470a:	460a      	mov	r2, r1
8780470c:	f003 0303 	and.w	r3, r3, #3
87804710:	f443 5341 	orr.w	r3, r3, #12352	; 0x3040
87804714:	620b      	str	r3, [r1, #32]
87804716:	6a13      	ldr	r3, [r2, #32]
87804718:	2b00      	cmp	r3, #0
8780471a:	dafc      	bge.n	87804716 <CLOCK_InitUsb2Pll+0x16>
8780471c:	4770      	bx	lr
8780471e:	bf00      	nop

87804720 <CLOCK_DeinitUsb2Pll>:
87804720:	f44f 4300 	mov.w	r3, #32768	; 0x8000
87804724:	2200      	movs	r2, #0
87804726:	f2c0 230c 	movt	r3, #524	; 0x20c
8780472a:	621a      	str	r2, [r3, #32]
8780472c:	4770      	bx	lr
8780472e:	bf00      	nop

87804730 <CLOCK_InitAudioPll>:
87804730:	6842      	ldr	r2, [r0, #4]
87804732:	f44f 4300 	mov.w	r3, #32768	; 0x8000
87804736:	f2c0 230c 	movt	r3, #524	; 0x20c
8780473a:	b430      	push	{r4, r5}
8780473c:	f022 4240 	bic.w	r2, r2, #3221225472	; 0xc0000000
87804740:	f8c3 2080 	str.w	r2, [r3, #128]	; 0x80
87804744:	6882      	ldr	r2, [r0, #8]
87804746:	f022 4240 	bic.w	r2, r2, #3221225472	; 0xc0000000
8780474a:	f8c3 2090 	str.w	r2, [r3, #144]	; 0x90
8780474e:	7843      	ldrb	r3, [r0, #1]
87804750:	7804      	ldrb	r4, [r0, #0]
87804752:	3b02      	subs	r3, #2
87804754:	f004 047f 	and.w	r4, r4, #127	; 0x7f
87804758:	2b0e      	cmp	r3, #14
8780475a:	d835      	bhi.n	878047c8 <CLOCK_InitAudioPll+0x98>
8780475c:	e8df f003 	tbb	[pc, r3]
87804760:	34293430 	strtcc	r3, [r9], #-1072	; 0x430
87804764:	34223434 	strtcc	r3, [r2], #-1076	; 0x434
87804768:	34343434 	ldrtcc	r3, [r4], #-1076	; 0x434
8780476c:	00083434 	andeq	r3, r8, r4, lsr r4
87804770:	f44f 4500 	mov.w	r5, #32768	; 0x8000
87804774:	f444 5400 	orr.w	r4, r4, #8192	; 0x2000
87804778:	f2c0 0580 	movt	r5, #128	; 0x80
8780477c:	f44f 4000 	mov.w	r0, #32768	; 0x8000
87804780:	f2c0 200c 	movt	r0, #524	; 0x20c
87804784:	f8d0 1170 	ldr.w	r1, [r0, #368]	; 0x170
87804788:	4602      	mov	r2, r0
8780478a:	f421 0300 	bic.w	r3, r1, #8388608	; 0x800000
8780478e:	f423 4300 	bic.w	r3, r3, #32768	; 0x8000
87804792:	432b      	orrs	r3, r5
87804794:	f8c0 3170 	str.w	r3, [r0, #368]	; 0x170
87804798:	6704      	str	r4, [r0, #112]	; 0x70
8780479a:	6f13      	ldr	r3, [r2, #112]	; 0x70
8780479c:	2b00      	cmp	r3, #0
8780479e:	dafc      	bge.n	8780479a <CLOCK_InitAudioPll+0x6a>
878047a0:	bc30      	pop	{r4, r5}
878047a2:	4770      	bx	lr
878047a4:	f44f 4500 	mov.w	r5, #32768	; 0x8000
878047a8:	f444 2402 	orr.w	r4, r4, #532480	; 0x82000
878047ac:	f2c0 0580 	movt	r5, #128	; 0x80
878047b0:	e7e4      	b.n	8780477c <CLOCK_InitAudioPll+0x4c>
878047b2:	f44f 4500 	mov.w	r5, #32768	; 0x8000
878047b6:	f444 1481 	orr.w	r4, r4, #1056768	; 0x102000
878047ba:	f2c0 0580 	movt	r5, #128	; 0x80
878047be:	e7dd      	b.n	8780477c <CLOCK_InitAudioPll+0x4c>
878047c0:	f444 2402 	orr.w	r4, r4, #532480	; 0x82000
878047c4:	2500      	movs	r5, #0
878047c6:	e7d9      	b.n	8780477c <CLOCK_InitAudioPll+0x4c>
878047c8:	f444 1481 	orr.w	r4, r4, #1056768	; 0x102000
878047cc:	2500      	movs	r5, #0
878047ce:	e7d5      	b.n	8780477c <CLOCK_InitAudioPll+0x4c>

878047d0 <CLOCK_DeinitAudioPll>:
878047d0:	f44f 4300 	mov.w	r3, #32768	; 0x8000
878047d4:	f44f 5280 	mov.w	r2, #4096	; 0x1000
878047d8:	f2c0 230c 	movt	r3, #524	; 0x20c
878047dc:	671a      	str	r2, [r3, #112]	; 0x70
878047de:	4770      	bx	lr

878047e0 <CLOCK_InitVideoPll>:
878047e0:	6842      	ldr	r2, [r0, #4]
878047e2:	f44f 4300 	mov.w	r3, #32768	; 0x8000
878047e6:	f2c0 230c 	movt	r3, #524	; 0x20c
878047ea:	b410      	push	{r4}
878047ec:	f022 4240 	bic.w	r2, r2, #3221225472	; 0xc0000000
878047f0:	f8c3 20b0 	str.w	r2, [r3, #176]	; 0xb0
878047f4:	6882      	ldr	r2, [r0, #8]
878047f6:	f022 4240 	bic.w	r2, r2, #3221225472	; 0xc0000000
878047fa:	f8c3 20c0 	str.w	r2, [r3, #192]	; 0xc0
878047fe:	7843      	ldrb	r3, [r0, #1]
87804800:	7801      	ldrb	r1, [r0, #0]
87804802:	3b02      	subs	r3, #2
87804804:	f001 017f 	and.w	r1, r1, #127	; 0x7f
87804808:	2b0e      	cmp	r3, #14
8780480a:	d830      	bhi.n	8780486e <CLOCK_InitVideoPll+0x8e>
8780480c:	e8df f003 	tbb	[pc, r3]
87804810:	2f262f2b 	svccs	0x00262f2b
87804814:	2f212f2f 	svccs	0x00212f2f
87804818:	2f2f2f2f 	svccs	0x002f2f2f
8780481c:	00082f2f 	andeq	r2, r8, pc, lsr #30
87804820:	f441 5100 	orr.w	r1, r1, #8192	; 0x2000
87804824:	f04f 4440 	mov.w	r4, #3221225472	; 0xc0000000
87804828:	f44f 4300 	mov.w	r3, #32768	; 0x8000
8780482c:	f2c0 230c 	movt	r3, #524	; 0x20c
87804830:	f8d3 0170 	ldr.w	r0, [r3, #368]	; 0x170
87804834:	461a      	mov	r2, r3
87804836:	f020 4040 	bic.w	r0, r0, #3221225472	; 0xc0000000
8780483a:	4320      	orrs	r0, r4
8780483c:	f8c3 0170 	str.w	r0, [r3, #368]	; 0x170
87804840:	f8c3 10a0 	str.w	r1, [r3, #160]	; 0xa0
87804844:	f8d2 30a0 	ldr.w	r3, [r2, #160]	; 0xa0
87804848:	2b00      	cmp	r3, #0
8780484a:	dafb      	bge.n	87804844 <CLOCK_InitVideoPll+0x64>
8780484c:	f85d 4b04 	ldr.w	r4, [sp], #4
87804850:	4770      	bx	lr
87804852:	f441 2102 	orr.w	r1, r1, #532480	; 0x82000
87804856:	f04f 4440 	mov.w	r4, #3221225472	; 0xc0000000
8780485a:	e7e5      	b.n	87804828 <CLOCK_InitVideoPll+0x48>
8780485c:	f441 1181 	orr.w	r1, r1, #1056768	; 0x102000
87804860:	f04f 4440 	mov.w	r4, #3221225472	; 0xc0000000
87804864:	e7e0      	b.n	87804828 <CLOCK_InitVideoPll+0x48>
87804866:	f441 2102 	orr.w	r1, r1, #532480	; 0x82000
8780486a:	2400      	movs	r4, #0
8780486c:	e7dc      	b.n	87804828 <CLOCK_InitVideoPll+0x48>
8780486e:	f441 1181 	orr.w	r1, r1, #1056768	; 0x102000
87804872:	2400      	movs	r4, #0
87804874:	e7d8      	b.n	87804828 <CLOCK_InitVideoPll+0x48>
87804876:	bf00      	nop

87804878 <CLOCK_DeinitVideoPll>:
87804878:	f44f 4300 	mov.w	r3, #32768	; 0x8000
8780487c:	f44f 5280 	mov.w	r2, #4096	; 0x1000
87804880:	f2c0 230c 	movt	r3, #524	; 0x20c
87804884:	f8c3 20a0 	str.w	r2, [r3, #160]	; 0xa0
87804888:	4770      	bx	lr
8780488a:	bf00      	nop

8780488c <CLOCK_InitEnetPll>:
8780488c:	7903      	ldrb	r3, [r0, #4]
8780488e:	78c2      	ldrb	r2, [r0, #3]
87804890:	7801      	ldrb	r1, [r0, #0]
87804892:	009b      	lsls	r3, r3, #2
87804894:	f002 0203 	and.w	r2, r2, #3
87804898:	f003 030c 	and.w	r3, r3, #12
8780489c:	4313      	orrs	r3, r2
8780489e:	b109      	cbz	r1, 878048a4 <CLOCK_InitEnetPll+0x18>
878048a0:	f443 5300 	orr.w	r3, r3, #8192	; 0x2000
878048a4:	7842      	ldrb	r2, [r0, #1]
878048a6:	b10a      	cbz	r2, 878048ac <CLOCK_InitEnetPll+0x20>
878048a8:	f443 1380 	orr.w	r3, r3, #1048576	; 0x100000
878048ac:	7882      	ldrb	r2, [r0, #2]
878048ae:	b10a      	cbz	r2, 878048b4 <CLOCK_InitEnetPll+0x28>
878048b0:	f443 1300 	orr.w	r3, r3, #2097152	; 0x200000
878048b4:	f44f 4100 	mov.w	r1, #32768	; 0x8000
878048b8:	f2c0 210c 	movt	r1, #524	; 0x20c
878048bc:	460a      	mov	r2, r1
878048be:	f8c1 30e0 	str.w	r3, [r1, #224]	; 0xe0
878048c2:	f8d2 30e0 	ldr.w	r3, [r2, #224]	; 0xe0
878048c6:	2b00      	cmp	r3, #0
878048c8:	dafb      	bge.n	878048c2 <CLOCK_InitEnetPll+0x36>
878048ca:	4770      	bx	lr

878048cc <CLOCK_DeinitEnetPll>:
878048cc:	f44f 4300 	mov.w	r3, #32768	; 0x8000
878048d0:	f44f 5280 	mov.w	r2, #4096	; 0x1000
878048d4:	f2c0 230c 	movt	r3, #524	; 0x20c
878048d8:	f8c3 20e0 	str.w	r2, [r3, #224]	; 0xe0
878048dc:	4770      	bx	lr
878048de:	bf00      	nop

878048e0 <CLOCK_GetPllFreq>:
878048e0:	f24e 2348 	movw	r3, #57928	; 0xe248
878048e4:	b570      	push	{r4, r5, r6, lr}
878048e6:	f2c8 7380 	movt	r3, #34688	; 0x8780
878048ea:	4604      	mov	r4, r0
878048ec:	b084      	sub	sp, #16
878048ee:	cb0f      	ldmia	r3, {r0, r1, r2, r3}
878048f0:	ad04      	add	r5, sp, #16
878048f2:	e905 000f 	stmdb	r5, {r0, r1, r2, r3}
878048f6:	2c08      	cmp	r4, #8
878048f8:	f200 8149 	bhi.w	87804b8e <CLOCK_GetPllFreq+0x2ae>
878048fc:	e8df f014 	tbh	[pc, r4, lsl #1]
87804900:	004d002f 	subeq	r0, sp, pc, lsr #32
87804904:	009d007d 	addseq	r0, sp, sp, ror r0
87804908:	012a00e6 	smulwteq	sl, r6, r0
8780490c:	00090139 	andeq	r0, r9, r9, lsr r1
87804910:	f647000f 			; <UNDEFINED> instruction: 0xf647000f
87804914:	0040      	lsls	r0, r0, #1
87804916:	f2c0 107d 	movt	r0, #381	; 0x17d
8780491a:	b004      	add	sp, #16
8780491c:	bd70      	pop	{r4, r5, r6, pc}
8780491e:	f248 1310 	movw	r3, #33040	; 0x8110
87804922:	f44f 4200 	mov.w	r2, #32768	; 0x8000
87804926:	f2c0 230c 	movt	r3, #524	; 0x20c
8780492a:	f2c0 220c 	movt	r2, #524	; 0x20c
8780492e:	f8d3 3160 	ldr.w	r3, [r3, #352]	; 0x160
87804932:	6a12      	ldr	r2, [r2, #32]
87804934:	06db      	lsls	r3, r3, #27
87804936:	bf55      	itete	pl
87804938:	f24f 333c 	movwpl	r3, #62268	; 0xf33c
8780493c:	f44f 5358 	movmi.w	r3, #13824	; 0x3600
87804940:	f2c8 7380 	movtpl	r3, #34688	; 0x8780
87804944:	f2c0 136e 	movtmi	r3, #366	; 0x16e
87804948:	bf58      	it	pl
8780494a:	681b      	ldrpl	r3, [r3, #0]
8780494c:	f012 0f03 	tst.w	r2, #3
87804950:	bf14      	ite	ne
87804952:	2016      	movne	r0, #22
87804954:	2014      	moveq	r0, #20
87804956:	fb03 f000 	mul.w	r0, r3, r0
8780495a:	b004      	add	sp, #16
8780495c:	bd70      	pop	{r4, r5, r6, pc}
8780495e:	f248 1310 	movw	r3, #33040	; 0x8110
87804962:	f2c0 230c 	movt	r3, #524	; 0x20c
87804966:	f8d3 3160 	ldr.w	r3, [r3, #352]	; 0x160
8780496a:	06de      	lsls	r6, r3, #27
8780496c:	bf55      	itete	pl
8780496e:	f24f 333c 	movwpl	r3, #62268	; 0xf33c
87804972:	f44f 5058 	movmi.w	r0, #13824	; 0x3600
87804976:	f2c8 7380 	movtpl	r3, #34688	; 0x8780
8780497a:	f2c0 106e 	movtmi	r0, #366	; 0x16e
8780497e:	bf58      	it	pl
87804980:	6818      	ldrpl	r0, [r3, #0]
87804982:	f44f 4300 	mov.w	r3, #32768	; 0x8000
87804986:	f2c0 230c 	movt	r3, #524	; 0x20c
8780498a:	681b      	ldr	r3, [r3, #0]
8780498c:	f003 037f 	and.w	r3, r3, #127	; 0x7f
87804990:	fb03 f000 	mul.w	r0, r3, r0
87804994:	0840      	lsrs	r0, r0, #1
87804996:	b004      	add	sp, #16
87804998:	bd70      	pop	{r4, r5, r6, pc}
8780499a:	f248 1310 	movw	r3, #33040	; 0x8110
8780499e:	f44f 4400 	mov.w	r4, #32768	; 0x8000
878049a2:	f2c0 230c 	movt	r3, #524	; 0x20c
878049a6:	f2c0 240c 	movt	r4, #524	; 0x20c
878049aa:	f8d3 3160 	ldr.w	r3, [r3, #352]	; 0x160
878049ae:	6d20      	ldr	r0, [r4, #80]	; 0x50
878049b0:	6e22      	ldr	r2, [r4, #96]	; 0x60
878049b2:	06dd      	lsls	r5, r3, #27
878049b4:	bf55      	itete	pl
878049b6:	f24f 333c 	movwpl	r3, #62268	; 0xf33c
878049ba:	f44f 5158 	movmi.w	r1, #13824	; 0x3600
878049be:	f2c8 7380 	movtpl	r3, #34688	; 0x8780
878049c2:	f2c0 116e 	movtmi	r1, #366	; 0x16e
878049c6:	bf54      	ite	pl
878049c8:	681d      	ldrpl	r5, [r3, #0]
878049ca:	460d      	movmi	r5, r1
878049cc:	f04f 0300 	mov.w	r3, #0
878049d0:	bf58      	it	pl
878049d2:	4629      	movpl	r1, r5
878049d4:	fba1 0100 	umull	r0, r1, r1, r0
878049d8:	f003 feb6 	bl	87808748 <__aeabi_uldivmod>
878049dc:	6b23      	ldr	r3, [r4, #48]	; 0x30
878049de:	f013 0f01 	tst.w	r3, #1
878049e2:	ea4f 1305 	mov.w	r3, r5, lsl #4
878049e6:	bf17      	itett	ne
878049e8:	eba3 0385 	subne.w	r3, r3, r5, lsl #2
878049ec:	eb03 0385 	addeq.w	r3, r3, r5, lsl #2
878049f0:	1b5b      	subne	r3, r3, r5
878049f2:	005b      	lslne	r3, r3, #1
878049f4:	4418      	add	r0, r3
878049f6:	b004      	add	sp, #16
878049f8:	bd70      	pop	{r4, r5, r6, pc}
878049fa:	f248 1310 	movw	r3, #33040	; 0x8110
878049fe:	f44f 4200 	mov.w	r2, #32768	; 0x8000
87804a02:	f2c0 230c 	movt	r3, #524	; 0x20c
87804a06:	f2c0 220c 	movt	r2, #524	; 0x20c
87804a0a:	f8d3 3160 	ldr.w	r3, [r3, #352]	; 0x160
87804a0e:	6912      	ldr	r2, [r2, #16]
87804a10:	06dc      	lsls	r4, r3, #27
87804a12:	bf55      	itete	pl
87804a14:	f24f 333c 	movwpl	r3, #62268	; 0xf33c
87804a18:	f44f 5358 	movmi.w	r3, #13824	; 0x3600
87804a1c:	f2c8 7380 	movtpl	r3, #34688	; 0x8780
87804a20:	f2c0 136e 	movtmi	r3, #366	; 0x16e
87804a24:	bf58      	it	pl
87804a26:	681b      	ldrpl	r3, [r3, #0]
87804a28:	f012 0f03 	tst.w	r2, #3
87804a2c:	bf14      	ite	ne
87804a2e:	2016      	movne	r0, #22
87804a30:	2014      	moveq	r0, #20
87804a32:	fb03 f000 	mul.w	r0, r3, r0
87804a36:	b004      	add	sp, #16
87804a38:	bd70      	pop	{r4, r5, r6, pc}
87804a3a:	f248 1310 	movw	r3, #33040	; 0x8110
87804a3e:	f44f 4500 	mov.w	r5, #32768	; 0x8000
87804a42:	f2c0 230c 	movt	r3, #524	; 0x20c
87804a46:	f2c0 250c 	movt	r5, #524	; 0x20c
87804a4a:	f8d3 3160 	ldr.w	r3, [r3, #352]	; 0x160
87804a4e:	6f2e      	ldr	r6, [r5, #112]	; 0x70
87804a50:	f8d5 0080 	ldr.w	r0, [r5, #128]	; 0x80
87804a54:	06d9      	lsls	r1, r3, #27
87804a56:	f8d5 2090 	ldr.w	r2, [r5, #144]	; 0x90
87804a5a:	bf55      	itete	pl
87804a5c:	f24f 333c 	movwpl	r3, #62268	; 0xf33c
87804a60:	f44f 5158 	movmi.w	r1, #13824	; 0x3600
87804a64:	f2c8 7380 	movtpl	r3, #34688	; 0x8780
87804a68:	f2c0 116e 	movtmi	r1, #366	; 0x16e
87804a6c:	bf54      	ite	pl
87804a6e:	681c      	ldrpl	r4, [r3, #0]
87804a70:	460c      	movmi	r4, r1
87804a72:	f04f 0300 	mov.w	r3, #0
87804a76:	f006 067f 	and.w	r6, r6, #127	; 0x7f
87804a7a:	bf58      	it	pl
87804a7c:	4621      	movpl	r1, r4
87804a7e:	fba1 0100 	umull	r0, r1, r1, r0
87804a82:	f003 fe61 	bl	87808748 <__aeabi_uldivmod>
87804a86:	6f2b      	ldr	r3, [r5, #112]	; 0x70
87804a88:	fb06 0004 	mla	r0, r6, r4, r0
87804a8c:	f413 13c0 	ands.w	r3, r3, #1572864	; 0x180000
87804a90:	bf08      	it	eq
87804a92:	0880      	lsreq	r0, r0, #2
87804a94:	d003      	beq.n	87804a9e <CLOCK_GetPllFreq+0x1be>
87804a96:	f5b3 2f00 	cmp.w	r3, #524288	; 0x80000
87804a9a:	bf08      	it	eq
87804a9c:	0840      	lsreq	r0, r0, #1
87804a9e:	f44f 4200 	mov.w	r2, #32768	; 0x8000
87804aa2:	f2c0 220c 	movt	r2, #524	; 0x20c
87804aa6:	f44f 4300 	mov.w	r3, #32768	; 0x8000
87804aaa:	f8d2 1170 	ldr.w	r1, [r2, #368]	; 0x170
87804aae:	f2c0 0380 	movt	r3, #128	; 0x80
87804ab2:	f44f 4200 	mov.w	r2, #32768	; 0x8000
87804ab6:	f2c0 0280 	movt	r2, #128	; 0x80
87804aba:	400b      	ands	r3, r1
87804abc:	f5b3 4f00 	cmp.w	r3, #32768	; 0x8000
87804ac0:	d068      	beq.n	87804b94 <CLOCK_GetPllFreq+0x2b4>
87804ac2:	4293      	cmp	r3, r2
87804ac4:	f47f af29 	bne.w	8780491a <CLOCK_GetPllFreq+0x3a>
87804ac8:	0880      	lsrs	r0, r0, #2
87804aca:	e726      	b.n	8780491a <CLOCK_GetPllFreq+0x3a>
87804acc:	f248 1310 	movw	r3, #33040	; 0x8110
87804ad0:	f44f 4500 	mov.w	r5, #32768	; 0x8000
87804ad4:	f2c0 230c 	movt	r3, #524	; 0x20c
87804ad8:	f2c0 250c 	movt	r5, #524	; 0x20c
87804adc:	f8d3 3160 	ldr.w	r3, [r3, #352]	; 0x160
87804ae0:	f8d5 60a0 	ldr.w	r6, [r5, #160]	; 0xa0
87804ae4:	f8d5 00b0 	ldr.w	r0, [r5, #176]	; 0xb0
87804ae8:	06da      	lsls	r2, r3, #27
87804aea:	f8d5 20c0 	ldr.w	r2, [r5, #192]	; 0xc0
87804aee:	bf55      	itete	pl
87804af0:	f24f 333c 	movwpl	r3, #62268	; 0xf33c
87804af4:	f44f 5158 	movmi.w	r1, #13824	; 0x3600
87804af8:	f2c8 7380 	movtpl	r3, #34688	; 0x8780
87804afc:	f2c0 116e 	movtmi	r1, #366	; 0x16e
87804b00:	bf54      	ite	pl
87804b02:	681c      	ldrpl	r4, [r3, #0]
87804b04:	460c      	movmi	r4, r1
87804b06:	f04f 0300 	mov.w	r3, #0
87804b0a:	f006 067f 	and.w	r6, r6, #127	; 0x7f
87804b0e:	bf58      	it	pl
87804b10:	4621      	movpl	r1, r4
87804b12:	fba1 0100 	umull	r0, r1, r1, r0
87804b16:	f003 fe17 	bl	87808748 <__aeabi_uldivmod>
87804b1a:	f8d5 30a0 	ldr.w	r3, [r5, #160]	; 0xa0
87804b1e:	fb06 0004 	mla	r0, r6, r4, r0
87804b22:	f413 13c0 	ands.w	r3, r3, #1572864	; 0x180000
87804b26:	bf08      	it	eq
87804b28:	0880      	lsreq	r0, r0, #2
87804b2a:	d003      	beq.n	87804b34 <CLOCK_GetPllFreq+0x254>
87804b2c:	f5b3 2f00 	cmp.w	r3, #524288	; 0x80000
87804b30:	bf08      	it	eq
87804b32:	0840      	lsreq	r0, r0, #1
87804b34:	f44f 4300 	mov.w	r3, #32768	; 0x8000
87804b38:	f2c0 230c 	movt	r3, #524	; 0x20c
87804b3c:	f8d3 3170 	ldr.w	r3, [r3, #368]	; 0x170
87804b40:	f003 4340 	and.w	r3, r3, #3221225472	; 0xc0000000
87804b44:	f1b3 4f80 	cmp.w	r3, #1073741824	; 0x40000000
87804b48:	d024      	beq.n	87804b94 <CLOCK_GetPllFreq+0x2b4>
87804b4a:	f1b3 4f40 	cmp.w	r3, #3221225472	; 0xc0000000
87804b4e:	f47f aee4 	bne.w	8780491a <CLOCK_GetPllFreq+0x3a>
87804b52:	e7b9      	b.n	87804ac8 <CLOCK_GetPllFreq+0x1e8>
87804b54:	f44f 4300 	mov.w	r3, #32768	; 0x8000
87804b58:	aa04      	add	r2, sp, #16
87804b5a:	f2c0 230c 	movt	r3, #524	; 0x20c
87804b5e:	f8d3 30e0 	ldr.w	r3, [r3, #224]	; 0xe0
87804b62:	f003 0303 	and.w	r3, r3, #3
87804b66:	eb02 0383 	add.w	r3, r2, r3, lsl #2
87804b6a:	f853 0c10 	ldr.w	r0, [r3, #-16]
87804b6e:	b004      	add	sp, #16
87804b70:	bd70      	pop	{r4, r5, r6, pc}
87804b72:	f44f 4300 	mov.w	r3, #32768	; 0x8000
87804b76:	aa04      	add	r2, sp, #16
87804b78:	f2c0 230c 	movt	r3, #524	; 0x20c
87804b7c:	f8d3 30e0 	ldr.w	r3, [r3, #224]	; 0xe0
87804b80:	f003 030c 	and.w	r3, r3, #12
87804b84:	4413      	add	r3, r2
87804b86:	f853 0c10 	ldr.w	r0, [r3, #-16]
87804b8a:	b004      	add	sp, #16
87804b8c:	bd70      	pop	{r4, r5, r6, pc}
87804b8e:	2000      	movs	r0, #0
87804b90:	b004      	add	sp, #16
87804b92:	bd70      	pop	{r4, r5, r6, pc}
87804b94:	0840      	lsrs	r0, r0, #1
87804b96:	e6c0      	b.n	8780491a <CLOCK_GetPllFreq+0x3a>

87804b98 <CLOCK_InitSysPfd>:
87804b98:	b470      	push	{r4, r5, r6}
87804b9a:	f44f 4400 	mov.w	r4, #32768	; 0x8000
87804b9e:	f2c0 240c 	movt	r4, #524	; 0x20c
87804ba2:	00c0      	lsls	r0, r0, #3
87804ba4:	23bf      	movs	r3, #191	; 0xbf
87804ba6:	f8d4 5100 	ldr.w	r5, [r4, #256]	; 0x100
87804baa:	fa03 f600 	lsl.w	r6, r3, r0
87804bae:	f001 013f 	and.w	r1, r1, #63	; 0x3f
87804bb2:	2380      	movs	r3, #128	; 0x80
87804bb4:	4081      	lsls	r1, r0
87804bb6:	fa03 f200 	lsl.w	r2, r3, r0
87804bba:	ea25 0306 	bic.w	r3, r5, r6
87804bbe:	4319      	orrs	r1, r3
87804bc0:	4313      	orrs	r3, r2
87804bc2:	f8c4 3100 	str.w	r3, [r4, #256]	; 0x100
87804bc6:	f8c4 1100 	str.w	r1, [r4, #256]	; 0x100
87804bca:	bc70      	pop	{r4, r5, r6}
87804bcc:	4770      	bx	lr
87804bce:	bf00      	nop

87804bd0 <CLOCK_DeinitSysPfd>:
87804bd0:	f44f 4300 	mov.w	r3, #32768	; 0x8000
87804bd4:	00c0      	lsls	r0, r0, #3
87804bd6:	f2c0 230c 	movt	r3, #524	; 0x20c
87804bda:	f8d3 1100 	ldr.w	r1, [r3, #256]	; 0x100
87804bde:	2280      	movs	r2, #128	; 0x80
87804be0:	4082      	lsls	r2, r0
87804be2:	430a      	orrs	r2, r1
87804be4:	f8c3 2100 	str.w	r2, [r3, #256]	; 0x100
87804be8:	4770      	bx	lr
87804bea:	bf00      	nop

87804bec <CLOCK_InitUsb1Pfd>:
87804bec:	b470      	push	{r4, r5, r6}
87804bee:	f44f 4400 	mov.w	r4, #32768	; 0x8000
87804bf2:	f2c0 240c 	movt	r4, #524	; 0x20c
87804bf6:	00c0      	lsls	r0, r0, #3
87804bf8:	23bf      	movs	r3, #191	; 0xbf
87804bfa:	f8d4 50f0 	ldr.w	r5, [r4, #240]	; 0xf0
87804bfe:	fa03 f600 	lsl.w	r6, r3, r0
87804c02:	f001 013f 	and.w	r1, r1, #63	; 0x3f
87804c06:	2380      	movs	r3, #128	; 0x80
87804c08:	4081      	lsls	r1, r0
87804c0a:	fa03 f200 	lsl.w	r2, r3, r0
87804c0e:	ea25 0306 	bic.w	r3, r5, r6
87804c12:	4319      	orrs	r1, r3
87804c14:	4313      	orrs	r3, r2
87804c16:	f8c4 30f0 	str.w	r3, [r4, #240]	; 0xf0
87804c1a:	f8c4 10f0 	str.w	r1, [r4, #240]	; 0xf0
87804c1e:	bc70      	pop	{r4, r5, r6}
87804c20:	4770      	bx	lr
87804c22:	bf00      	nop

87804c24 <CLOCK_DeinitUsb1Pfd>:
87804c24:	f44f 4300 	mov.w	r3, #32768	; 0x8000
87804c28:	00c0      	lsls	r0, r0, #3
87804c2a:	f2c0 230c 	movt	r3, #524	; 0x20c
87804c2e:	f8d3 10f0 	ldr.w	r1, [r3, #240]	; 0xf0
87804c32:	2280      	movs	r2, #128	; 0x80
87804c34:	4082      	lsls	r2, r0
87804c36:	430a      	orrs	r2, r1
87804c38:	f8c3 20f0 	str.w	r2, [r3, #240]	; 0xf0
87804c3c:	4770      	bx	lr
87804c3e:	bf00      	nop

87804c40 <CLOCK_GetSysPfdFreq>:
87804c40:	b510      	push	{r4, lr}
87804c42:	4604      	mov	r4, r0
87804c44:	2001      	movs	r0, #1
87804c46:	f7ff fe4b 	bl	878048e0 <CLOCK_GetPllFreq>
87804c4a:	2c03      	cmp	r4, #3
87804c4c:	d83b      	bhi.n	87804cc6 <CLOCK_GetSysPfdFreq+0x86>
87804c4e:	e8df f004 	tbb	[pc, r4]
87804c52:	02101e2c 	andseq	r1, r0, #44, 28	; 0x2c0
87804c56:	f44f 4300 	mov.w	r3, #32768	; 0x8000
87804c5a:	f2c0 230c 	movt	r3, #524	; 0x20c
87804c5e:	f8d3 1100 	ldr.w	r1, [r3, #256]	; 0x100
87804c62:	f3c1 6105 	ubfx	r1, r1, #24, #6
87804c66:	f003 fadb 	bl	87808220 <__aeabi_uidiv>
87804c6a:	0103      	lsls	r3, r0, #4
87804c6c:	eb03 0040 	add.w	r0, r3, r0, lsl #1
87804c70:	bd10      	pop	{r4, pc}
87804c72:	f44f 4300 	mov.w	r3, #32768	; 0x8000
87804c76:	f2c0 230c 	movt	r3, #524	; 0x20c
87804c7a:	f8d3 1100 	ldr.w	r1, [r3, #256]	; 0x100
87804c7e:	f3c1 4105 	ubfx	r1, r1, #16, #6
87804c82:	f003 facd 	bl	87808220 <__aeabi_uidiv>
87804c86:	0103      	lsls	r3, r0, #4
87804c88:	eb03 0040 	add.w	r0, r3, r0, lsl #1
87804c8c:	bd10      	pop	{r4, pc}
87804c8e:	f44f 4300 	mov.w	r3, #32768	; 0x8000
87804c92:	f2c0 230c 	movt	r3, #524	; 0x20c
87804c96:	f8d3 1100 	ldr.w	r1, [r3, #256]	; 0x100
87804c9a:	f3c1 2105 	ubfx	r1, r1, #8, #6
87804c9e:	f003 fabf 	bl	87808220 <__aeabi_uidiv>
87804ca2:	0103      	lsls	r3, r0, #4
87804ca4:	eb03 0040 	add.w	r0, r3, r0, lsl #1
87804ca8:	bd10      	pop	{r4, pc}
87804caa:	f44f 4300 	mov.w	r3, #32768	; 0x8000
87804cae:	f2c0 230c 	movt	r3, #524	; 0x20c
87804cb2:	f8d3 1100 	ldr.w	r1, [r3, #256]	; 0x100
87804cb6:	f001 013f 	and.w	r1, r1, #63	; 0x3f
87804cba:	f003 fab1 	bl	87808220 <__aeabi_uidiv>
87804cbe:	0103      	lsls	r3, r0, #4
87804cc0:	eb03 0040 	add.w	r0, r3, r0, lsl #1
87804cc4:	bd10      	pop	{r4, pc}
87804cc6:	2000      	movs	r0, #0
87804cc8:	bd10      	pop	{r4, pc}
87804cca:	bf00      	nop

87804ccc <CLOCK_GetPeriphClkFreq>:
87804ccc:	b508      	push	{r3, lr}
87804cce:	f44f 4380 	mov.w	r3, #16384	; 0x4000
87804cd2:	f2c0 230c 	movt	r3, #524	; 0x20c
87804cd6:	6958      	ldr	r0, [r3, #20]
87804cd8:	699b      	ldr	r3, [r3, #24]
87804cda:	f010 7000 	ands.w	r0, r0, #33554432	; 0x2000000
87804cde:	d018      	beq.n	87804d12 <CLOCK_GetPeriphClkFreq+0x46>
87804ce0:	f413 5340 	ands.w	r3, r3, #12288	; 0x3000
87804ce4:	d032      	beq.n	87804d4c <CLOCK_GetPeriphClkFreq+0x80>
87804ce6:	f5b3 5f80 	cmp.w	r3, #4096	; 0x1000
87804cea:	d123      	bne.n	87804d34 <CLOCK_GetPeriphClkFreq+0x68>
87804cec:	f248 1310 	movw	r3, #33040	; 0x8110
87804cf0:	f2c0 230c 	movt	r3, #524	; 0x20c
87804cf4:	f8d3 3160 	ldr.w	r3, [r3, #352]	; 0x160
87804cf8:	06db      	lsls	r3, r3, #27
87804cfa:	bf44      	itt	mi
87804cfc:	f44f 5058 	movmi.w	r0, #13824	; 0x3600
87804d00:	f2c0 106e 	movtmi	r0, #366	; 0x16e
87804d04:	d417      	bmi.n	87804d36 <CLOCK_GetPeriphClkFreq+0x6a>
87804d06:	f24f 333c 	movw	r3, #62268	; 0xf33c
87804d0a:	f2c8 7380 	movt	r3, #34688	; 0x8780
87804d0e:	6818      	ldr	r0, [r3, #0]
87804d10:	e011      	b.n	87804d36 <CLOCK_GetPeriphClkFreq+0x6a>
87804d12:	f403 2340 	and.w	r3, r3, #786432	; 0xc0000
87804d16:	f5b3 2f80 	cmp.w	r3, #262144	; 0x40000
87804d1a:	d01b      	beq.n	87804d54 <CLOCK_GetPeriphClkFreq+0x88>
87804d1c:	d923      	bls.n	87804d66 <CLOCK_GetPeriphClkFreq+0x9a>
87804d1e:	f5b3 2f00 	cmp.w	r3, #524288	; 0x80000
87804d22:	d01c      	beq.n	87804d5e <CLOCK_GetPeriphClkFreq+0x92>
87804d24:	f5b3 2f40 	cmp.w	r3, #786432	; 0xc0000
87804d28:	d123      	bne.n	87804d72 <CLOCK_GetPeriphClkFreq+0xa6>
87804d2a:	2002      	movs	r0, #2
87804d2c:	f7ff ff88 	bl	87804c40 <CLOCK_GetSysPfdFreq>
87804d30:	0840      	lsrs	r0, r0, #1
87804d32:	bd08      	pop	{r3, pc}
87804d34:	2000      	movs	r0, #0
87804d36:	f44f 4380 	mov.w	r3, #16384	; 0x4000
87804d3a:	f2c0 230c 	movt	r3, #524	; 0x20c
87804d3e:	6959      	ldr	r1, [r3, #20]
87804d40:	f3c1 61c2 	ubfx	r1, r1, #27, #3
87804d44:	3101      	adds	r1, #1
87804d46:	f003 fa6b 	bl	87808220 <__aeabi_uidiv>
87804d4a:	bd08      	pop	{r3, pc}
87804d4c:	2002      	movs	r0, #2
87804d4e:	f7ff fdc7 	bl	878048e0 <CLOCK_GetPllFreq>
87804d52:	e7f0      	b.n	87804d36 <CLOCK_GetPeriphClkFreq+0x6a>
87804d54:	2002      	movs	r0, #2
87804d56:	e8bd 4008 	ldmia.w	sp!, {r3, lr}
87804d5a:	f7ff bf71 	b.w	87804c40 <CLOCK_GetSysPfdFreq>
87804d5e:	e8bd 4008 	ldmia.w	sp!, {r3, lr}
87804d62:	f7ff bf6d 	b.w	87804c40 <CLOCK_GetSysPfdFreq>
87804d66:	b923      	cbnz	r3, 87804d72 <CLOCK_GetPeriphClkFreq+0xa6>
87804d68:	2001      	movs	r0, #1
87804d6a:	e8bd 4008 	ldmia.w	sp!, {r3, lr}
87804d6e:	f7ff bdb7 	b.w	878048e0 <CLOCK_GetPllFreq>
87804d72:	2000      	movs	r0, #0
87804d74:	bd08      	pop	{r3, pc}
87804d76:	bf00      	nop

87804d78 <CLOCK_GetUsb1PfdFreq>:
87804d78:	b510      	push	{r4, lr}
87804d7a:	4604      	mov	r4, r0
87804d7c:	2002      	movs	r0, #2
87804d7e:	f7ff fdaf 	bl	878048e0 <CLOCK_GetPllFreq>
87804d82:	2c03      	cmp	r4, #3
87804d84:	d83b      	bhi.n	87804dfe <CLOCK_GetUsb1PfdFreq+0x86>
87804d86:	e8df f004 	tbb	[pc, r4]
87804d8a:	02101e2c 	andseq	r1, r0, #44, 28	; 0x2c0
87804d8e:	f44f 4300 	mov.w	r3, #32768	; 0x8000
87804d92:	f2c0 230c 	movt	r3, #524	; 0x20c
87804d96:	f8d3 10f0 	ldr.w	r1, [r3, #240]	; 0xf0
87804d9a:	f3c1 6105 	ubfx	r1, r1, #24, #6
87804d9e:	f003 fa3f 	bl	87808220 <__aeabi_uidiv>
87804da2:	0103      	lsls	r3, r0, #4
87804da4:	eb03 0040 	add.w	r0, r3, r0, lsl #1
87804da8:	bd10      	pop	{r4, pc}
87804daa:	f44f 4300 	mov.w	r3, #32768	; 0x8000
87804dae:	f2c0 230c 	movt	r3, #524	; 0x20c
87804db2:	f8d3 10f0 	ldr.w	r1, [r3, #240]	; 0xf0
87804db6:	f3c1 4105 	ubfx	r1, r1, #16, #6
87804dba:	f003 fa31 	bl	87808220 <__aeabi_uidiv>
87804dbe:	0103      	lsls	r3, r0, #4
87804dc0:	eb03 0040 	add.w	r0, r3, r0, lsl #1
87804dc4:	bd10      	pop	{r4, pc}
87804dc6:	f44f 4300 	mov.w	r3, #32768	; 0x8000
87804dca:	f2c0 230c 	movt	r3, #524	; 0x20c
87804dce:	f8d3 10f0 	ldr.w	r1, [r3, #240]	; 0xf0
87804dd2:	f3c1 2105 	ubfx	r1, r1, #8, #6
87804dd6:	f003 fa23 	bl	87808220 <__aeabi_uidiv>
87804dda:	0103      	lsls	r3, r0, #4
87804ddc:	eb03 0040 	add.w	r0, r3, r0, lsl #1
87804de0:	bd10      	pop	{r4, pc}
87804de2:	f44f 4300 	mov.w	r3, #32768	; 0x8000
87804de6:	f2c0 230c 	movt	r3, #524	; 0x20c
87804dea:	f8d3 10f0 	ldr.w	r1, [r3, #240]	; 0xf0
87804dee:	f001 013f 	and.w	r1, r1, #63	; 0x3f
87804df2:	f003 fa15 	bl	87808220 <__aeabi_uidiv>
87804df6:	0103      	lsls	r3, r0, #4
87804df8:	eb03 0040 	add.w	r0, r3, r0, lsl #1
87804dfc:	bd10      	pop	{r4, pc}
87804dfe:	2000      	movs	r0, #0
87804e00:	bd10      	pop	{r4, pc}
87804e02:	bf00      	nop

87804e04 <CLOCK_GetFreq>:
87804e04:	b510      	push	{r4, lr}
87804e06:	2817      	cmp	r0, #23
87804e08:	f200 8111 	bhi.w	8780502e <CLOCK_GetFreq+0x22a>
87804e0c:	e8df f010 	tbh	[pc, r0, lsl #1]
87804e10:	007e0098 			; <UNDEFINED> instruction: 0x007e0098
87804e14:	005e0071 	subseq	r0, lr, r1, ror r0
87804e18:	001b002a 	andseq	r0, fp, sl, lsr #32
87804e1c:	010a0018 	tsteq	sl, r8, lsl r0
87804e20:	01000105 	tsteq	r0, r5, lsl #2
87804e24:	00f600fb 	ldrshteq	r0, [r6], #11
87804e28:	00ec00f1 	strdeq	r0, [ip], #1	; <UNPREDICTABLE>
87804e2c:	00e200e7 	rsceq	r0, r2, r7, ror #1
87804e30:	00d800dd 	ldrsbeq	r0, [r8], #13
87804e34:	00ce00d3 	ldrdeq	r0, [lr], #3
87804e38:	00c400c9 	sbceq	r0, r4, r9, asr #1
87804e3c:	00ba00bf 	ldrhteq	r0, [sl], pc
87804e40:	f44f 4000 	mov.w	r0, #32768	; 0x8000
87804e44:	bd10      	pop	{r4, pc}
87804e46:	f248 1310 	movw	r3, #33040	; 0x8110
87804e4a:	f2c0 230c 	movt	r3, #524	; 0x20c
87804e4e:	f8d3 3160 	ldr.w	r3, [r3, #352]	; 0x160
87804e52:	06db      	lsls	r3, r3, #27
87804e54:	f100 80fd 	bmi.w	87805052 <CLOCK_GetFreq+0x24e>
87804e58:	f24f 333c 	movw	r3, #62268	; 0xf33c
87804e5c:	f2c8 7380 	movt	r3, #34688	; 0x8780
87804e60:	6818      	ldr	r0, [r3, #0]
87804e62:	bd10      	pop	{r4, pc}
87804e64:	f44f 4380 	mov.w	r3, #16384	; 0x4000
87804e68:	f2c0 230c 	movt	r3, #524	; 0x20c
87804e6c:	6958      	ldr	r0, [r3, #20]
87804e6e:	699b      	ldr	r3, [r3, #24]
87804e70:	f010 6080 	ands.w	r0, r0, #67108864	; 0x4000000
87804e74:	f000 80dd 	beq.w	87805032 <CLOCK_GetFreq+0x22e>
87804e78:	02d9      	lsls	r1, r3, #11
87804e7a:	f140 8117 	bpl.w	878050ac <CLOCK_GetFreq+0x2a8>
87804e7e:	f248 1310 	movw	r3, #33040	; 0x8110
87804e82:	f2c0 230c 	movt	r3, #524	; 0x20c
87804e86:	f8d3 3160 	ldr.w	r3, [r3, #352]	; 0x160
87804e8a:	06da      	lsls	r2, r3, #27
87804e8c:	bf44      	itt	mi
87804e8e:	f44f 5058 	movmi.w	r0, #13824	; 0x3600
87804e92:	f2c0 106e 	movtmi	r0, #366	; 0x16e
87804e96:	d404      	bmi.n	87804ea2 <CLOCK_GetFreq+0x9e>
87804e98:	f24f 333c 	movw	r3, #62268	; 0xf33c
87804e9c:	f2c8 7380 	movt	r3, #34688	; 0x8780
87804ea0:	6818      	ldr	r0, [r3, #0]
87804ea2:	f44f 4380 	mov.w	r3, #16384	; 0x4000
87804ea6:	f2c0 230c 	movt	r3, #524	; 0x20c
87804eaa:	6959      	ldr	r1, [r3, #20]
87804eac:	f001 0107 	and.w	r1, r1, #7
87804eb0:	3101      	adds	r1, #1
87804eb2:	f003 f9b5 	bl	87808220 <__aeabi_uidiv>
87804eb6:	f44f 4380 	mov.w	r3, #16384	; 0x4000
87804eba:	f2c0 230c 	movt	r3, #524	; 0x20c
87804ebe:	6959      	ldr	r1, [r3, #20]
87804ec0:	f3c1 01c2 	ubfx	r1, r1, #3, #3
87804ec4:	3101      	adds	r1, #1
87804ec6:	f003 f9ab 	bl	87808220 <__aeabi_uidiv>
87804eca:	bd10      	pop	{r4, pc}
87804ecc:	f44f 4480 	mov.w	r4, #16384	; 0x4000
87804ed0:	f2c0 240c 	movt	r4, #524	; 0x20c
87804ed4:	f7ff fefa 	bl	87804ccc <CLOCK_GetPeriphClkFreq>
87804ed8:	6961      	ldr	r1, [r4, #20]
87804eda:	f3c1 2182 	ubfx	r1, r1, #10, #3
87804ede:	3101      	adds	r1, #1
87804ee0:	f003 f99e 	bl	87808220 <__aeabi_uidiv>
87804ee4:	6961      	ldr	r1, [r4, #20]
87804ee6:	f3c1 2101 	ubfx	r1, r1, #8, #2
87804eea:	3101      	adds	r1, #1
87804eec:	f003 f998 	bl	87808220 <__aeabi_uidiv>
87804ef0:	bd10      	pop	{r4, pc}
87804ef2:	f7ff feeb 	bl	87804ccc <CLOCK_GetPeriphClkFreq>
87804ef6:	f44f 4380 	mov.w	r3, #16384	; 0x4000
87804efa:	f2c0 230c 	movt	r3, #524	; 0x20c
87804efe:	6959      	ldr	r1, [r3, #20]
87804f00:	f3c1 2182 	ubfx	r1, r1, #10, #3
87804f04:	3101      	adds	r1, #1
87804f06:	f003 f98b 	bl	87808220 <__aeabi_uidiv>
87804f0a:	bd10      	pop	{r4, pc}
87804f0c:	f44f 4380 	mov.w	r3, #16384	; 0x4000
87804f10:	f2c0 230c 	movt	r3, #524	; 0x20c
87804f14:	695a      	ldr	r2, [r3, #20]
87804f16:	0654      	lsls	r4, r2, #25
87804f18:	f140 80a8 	bpl.w	8780506c <CLOCK_GetFreq+0x268>
87804f1c:	695b      	ldr	r3, [r3, #20]
87804f1e:	0618      	lsls	r0, r3, #24
87804f20:	f140 809c 	bpl.w	8780505c <CLOCK_GetFreq+0x258>
87804f24:	2001      	movs	r0, #1
87804f26:	f7ff ff27 	bl	87804d78 <CLOCK_GetUsb1PfdFreq>
87804f2a:	f44f 4380 	mov.w	r3, #16384	; 0x4000
87804f2e:	f2c0 230c 	movt	r3, #524	; 0x20c
87804f32:	6959      	ldr	r1, [r3, #20]
87804f34:	f3c1 4102 	ubfx	r1, r1, #16, #3
87804f38:	3101      	adds	r1, #1
87804f3a:	f003 f971 	bl	87808220 <__aeabi_uidiv>
87804f3e:	bd10      	pop	{r4, pc}
87804f40:	f44f 4380 	mov.w	r3, #16384	; 0x4000
87804f44:	f2c0 230c 	movt	r3, #524	; 0x20c
87804f48:	68d8      	ldr	r0, [r3, #12]
87804f4a:	f400 7086 	and.w	r0, r0, #268	; 0x10c
87804f4e:	2804      	cmp	r0, #4
87804f50:	f000 808f 	beq.w	87805072 <CLOCK_GetFreq+0x26e>
87804f54:	f240 8086 	bls.w	87805064 <CLOCK_GetFreq+0x260>
87804f58:	f5b0 7f82 	cmp.w	r0, #260	; 0x104
87804f5c:	f000 809d 	beq.w	8780509a <CLOCK_GetFreq+0x296>
87804f60:	f5b0 7f86 	cmp.w	r0, #268	; 0x10c
87804f64:	bf08      	it	eq
87804f66:	2001      	moveq	r0, #1
87804f68:	d17e      	bne.n	87805068 <CLOCK_GetFreq+0x264>
87804f6a:	f7ff fcb9 	bl	878048e0 <CLOCK_GetPllFreq>
87804f6e:	f44f 4380 	mov.w	r3, #16384	; 0x4000
87804f72:	f2c0 230c 	movt	r3, #524	; 0x20c
87804f76:	6919      	ldr	r1, [r3, #16]
87804f78:	f001 0107 	and.w	r1, r1, #7
87804f7c:	3101      	adds	r1, #1
87804f7e:	f003 f94f 	bl	87808220 <__aeabi_uidiv>
87804f82:	bd10      	pop	{r4, pc}
87804f84:	2004      	movs	r0, #4
87804f86:	e8bd 4010 	ldmia.w	sp!, {r4, lr}
87804f8a:	f7ff bca9 	b.w	878048e0 <CLOCK_GetPllFreq>
87804f8e:	2003      	movs	r0, #3
87804f90:	e8bd 4010 	ldmia.w	sp!, {r4, lr}
87804f94:	f7ff bca4 	b.w	878048e0 <CLOCK_GetPllFreq>
87804f98:	2007      	movs	r0, #7
87804f9a:	e8bd 4010 	ldmia.w	sp!, {r4, lr}
87804f9e:	f7ff bc9f 	b.w	878048e0 <CLOCK_GetPllFreq>
87804fa2:	2006      	movs	r0, #6
87804fa4:	e8bd 4010 	ldmia.w	sp!, {r4, lr}
87804fa8:	f7ff bc9a 	b.w	878048e0 <CLOCK_GetPllFreq>
87804fac:	2005      	movs	r0, #5
87804fae:	e8bd 4010 	ldmia.w	sp!, {r4, lr}
87804fb2:	f7ff bc95 	b.w	878048e0 <CLOCK_GetPllFreq>
87804fb6:	2003      	movs	r0, #3
87804fb8:	e8bd 4010 	ldmia.w	sp!, {r4, lr}
87804fbc:	f7ff be40 	b.w	87804c40 <CLOCK_GetSysPfdFreq>
87804fc0:	2002      	movs	r0, #2
87804fc2:	e8bd 4010 	ldmia.w	sp!, {r4, lr}
87804fc6:	f7ff be3b 	b.w	87804c40 <CLOCK_GetSysPfdFreq>
87804fca:	2001      	movs	r0, #1
87804fcc:	e8bd 4010 	ldmia.w	sp!, {r4, lr}
87804fd0:	f7ff be36 	b.w	87804c40 <CLOCK_GetSysPfdFreq>
87804fd4:	2000      	movs	r0, #0
87804fd6:	e8bd 4010 	ldmia.w	sp!, {r4, lr}
87804fda:	f7ff be31 	b.w	87804c40 <CLOCK_GetSysPfdFreq>
87804fde:	2001      	movs	r0, #1
87804fe0:	e8bd 4010 	ldmia.w	sp!, {r4, lr}
87804fe4:	f7ff bc7c 	b.w	878048e0 <CLOCK_GetPllFreq>
87804fe8:	2008      	movs	r0, #8
87804fea:	e8bd 4010 	ldmia.w	sp!, {r4, lr}
87804fee:	f7ff bc77 	b.w	878048e0 <CLOCK_GetPllFreq>
87804ff2:	2003      	movs	r0, #3
87804ff4:	e8bd 4010 	ldmia.w	sp!, {r4, lr}
87804ff8:	f7ff bebe 	b.w	87804d78 <CLOCK_GetUsb1PfdFreq>
87804ffc:	2002      	movs	r0, #2
87804ffe:	e8bd 4010 	ldmia.w	sp!, {r4, lr}
87805002:	f7ff beb9 	b.w	87804d78 <CLOCK_GetUsb1PfdFreq>
87805006:	2001      	movs	r0, #1
87805008:	e8bd 4010 	ldmia.w	sp!, {r4, lr}
8780500c:	f7ff beb4 	b.w	87804d78 <CLOCK_GetUsb1PfdFreq>
87805010:	2000      	movs	r0, #0
87805012:	e8bd 4010 	ldmia.w	sp!, {r4, lr}
87805016:	f7ff beaf 	b.w	87804d78 <CLOCK_GetUsb1PfdFreq>
8780501a:	2002      	movs	r0, #2
8780501c:	e8bd 4010 	ldmia.w	sp!, {r4, lr}
87805020:	f7ff bc5e 	b.w	878048e0 <CLOCK_GetPllFreq>
87805024:	2000      	movs	r0, #0
87805026:	e8bd 4010 	ldmia.w	sp!, {r4, lr}
8780502a:	f7ff bc59 	b.w	878048e0 <CLOCK_GetPllFreq>
8780502e:	2000      	movs	r0, #0
87805030:	bd10      	pop	{r4, pc}
87805032:	f403 03c0 	and.w	r3, r3, #6291456	; 0x600000
87805036:	f5b3 1f00 	cmp.w	r3, #2097152	; 0x200000
8780503a:	d03b      	beq.n	878050b4 <CLOCK_GetFreq+0x2b0>
8780503c:	d931      	bls.n	878050a2 <CLOCK_GetFreq+0x29e>
8780503e:	f5b3 0f80 	cmp.w	r3, #4194304	; 0x400000
87805042:	d03d      	beq.n	878050c0 <CLOCK_GetFreq+0x2bc>
87805044:	f5b3 0fc0 	cmp.w	r3, #6291456	; 0x600000
87805048:	d138      	bne.n	878050bc <CLOCK_GetFreq+0x2b8>
8780504a:	2003      	movs	r0, #3
8780504c:	f7ff fc48 	bl	878048e0 <CLOCK_GetPllFreq>
87805050:	e731      	b.n	87804eb6 <CLOCK_GetFreq+0xb2>
87805052:	f44f 5058 	mov.w	r0, #13824	; 0x3600
87805056:	f2c0 106e 	movt	r0, #366	; 0x16e
8780505a:	bd10      	pop	{r4, pc}
8780505c:	2002      	movs	r0, #2
8780505e:	f7ff fdef 	bl	87804c40 <CLOCK_GetSysPfdFreq>
87805062:	e762      	b.n	87804f2a <CLOCK_GetFreq+0x126>
87805064:	2800      	cmp	r0, #0
87805066:	d080      	beq.n	87804f6a <CLOCK_GetFreq+0x166>
87805068:	2000      	movs	r0, #0
8780506a:	e780      	b.n	87804f6e <CLOCK_GetFreq+0x16a>
8780506c:	f7ff fe2e 	bl	87804ccc <CLOCK_GetPeriphClkFreq>
87805070:	e75b      	b.n	87804f2a <CLOCK_GetFreq+0x126>
87805072:	f248 1310 	movw	r3, #33040	; 0x8110
87805076:	f2c0 230c 	movt	r3, #524	; 0x20c
8780507a:	f8d3 3160 	ldr.w	r3, [r3, #352]	; 0x160
8780507e:	06db      	lsls	r3, r3, #27
87805080:	bf44      	itt	mi
87805082:	f44f 5058 	movmi.w	r0, #13824	; 0x3600
87805086:	f2c0 106e 	movtmi	r0, #366	; 0x16e
8780508a:	f53f af70 	bmi.w	87804f6e <CLOCK_GetFreq+0x16a>
8780508e:	f24f 333c 	movw	r3, #62268	; 0xf33c
87805092:	f2c8 7380 	movt	r3, #34688	; 0x8780
87805096:	6818      	ldr	r0, [r3, #0]
87805098:	e769      	b.n	87804f6e <CLOCK_GetFreq+0x16a>
8780509a:	2002      	movs	r0, #2
8780509c:	f7ff fdd0 	bl	87804c40 <CLOCK_GetSysPfdFreq>
878050a0:	e765      	b.n	87804f6e <CLOCK_GetFreq+0x16a>
878050a2:	b95b      	cbnz	r3, 878050bc <CLOCK_GetFreq+0x2b8>
878050a4:	2001      	movs	r0, #1
878050a6:	f7ff fc1b 	bl	878048e0 <CLOCK_GetPllFreq>
878050aa:	e704      	b.n	87804eb6 <CLOCK_GetFreq+0xb2>
878050ac:	2002      	movs	r0, #2
878050ae:	f7ff fc17 	bl	878048e0 <CLOCK_GetPllFreq>
878050b2:	e6f6      	b.n	87804ea2 <CLOCK_GetFreq+0x9e>
878050b4:	2002      	movs	r0, #2
878050b6:	f7ff fdc3 	bl	87804c40 <CLOCK_GetSysPfdFreq>
878050ba:	e6fc      	b.n	87804eb6 <CLOCK_GetFreq+0xb2>
878050bc:	2000      	movs	r0, #0
878050be:	e6fa      	b.n	87804eb6 <CLOCK_GetFreq+0xb2>
878050c0:	f7ff fdbe 	bl	87804c40 <CLOCK_GetSysPfdFreq>
878050c4:	e6f7      	b.n	87804eb6 <CLOCK_GetFreq+0xb2>
878050c6:	bf00      	nop

878050c8 <CLOCK_EnableUsbhs0Clock>:
878050c8:	f44f 4180 	mov.w	r1, #16384	; 0x4000
878050cc:	b410      	push	{r4}
878050ce:	460b      	mov	r3, r1
878050d0:	f2c0 210c 	movt	r1, #524	; 0x20c
878050d4:	f2c0 2318 	movt	r3, #536	; 0x218
878050d8:	f248 1210 	movw	r2, #33040	; 0x8110
878050dc:	f8d1 4080 	ldr.w	r4, [r1, #128]	; 0x80
878050e0:	f2c0 220c 	movt	r2, #524	; 0x20c
878050e4:	2001      	movs	r0, #1
878050e6:	f044 0403 	orr.w	r4, r4, #3
878050ea:	f8c1 4080 	str.w	r4, [r1, #128]	; 0x80
878050ee:	f8d3 1140 	ldr.w	r1, [r3, #320]	; 0x140
878050f2:	f85d 4b04 	ldr.w	r4, [sp], #4
878050f6:	f041 0102 	orr.w	r1, r1, #2
878050fa:	f8c3 1140 	str.w	r1, [r3, #320]	; 0x140
878050fe:	6913      	ldr	r3, [r2, #16]
87805100:	f423 53f8 	bic.w	r3, r3, #7936	; 0x1f00
87805104:	f023 0301 	bic.w	r3, r3, #1
87805108:	f443 53b8 	orr.w	r3, r3, #5888	; 0x1700
8780510c:	4303      	orrs	r3, r0
8780510e:	6113      	str	r3, [r2, #16]
87805110:	4770      	bx	lr
87805112:	bf00      	nop

87805114 <CLOCK_EnableUsbhs1Clock>:
87805114:	f44f 4180 	mov.w	r1, #16384	; 0x4000
87805118:	b410      	push	{r4}
8780511a:	460b      	mov	r3, r1
8780511c:	f2c0 210c 	movt	r1, #524	; 0x20c
87805120:	f2c0 2318 	movt	r3, #536	; 0x218
87805124:	f248 1210 	movw	r2, #33040	; 0x8110
87805128:	f8d1 4080 	ldr.w	r4, [r1, #128]	; 0x80
8780512c:	f2c0 220c 	movt	r2, #524	; 0x20c
87805130:	2001      	movs	r0, #1
87805132:	f044 0403 	orr.w	r4, r4, #3
87805136:	f8c1 4080 	str.w	r4, [r1, #128]	; 0x80
8780513a:	f8d3 1140 	ldr.w	r1, [r3, #320]	; 0x140
8780513e:	f85d 4b04 	ldr.w	r4, [sp], #4
87805142:	f041 0102 	orr.w	r1, r1, #2
87805146:	f8c3 1140 	str.w	r1, [r3, #320]	; 0x140
8780514a:	6913      	ldr	r3, [r2, #16]
8780514c:	f423 53f8 	bic.w	r3, r3, #7936	; 0x1f00
87805150:	f023 0301 	bic.w	r3, r3, #1
87805154:	f443 53b8 	orr.w	r3, r3, #5888	; 0x1700
87805158:	4303      	orrs	r3, r0
8780515a:	6113      	str	r3, [r2, #16]
8780515c:	4770      	bx	lr
8780515e:	bf00      	nop

87805160 <CLOCK_EnableUsbhs0PhyPllClock>:
87805160:	f44f 4300 	mov.w	r3, #32768	; 0x8000
87805164:	f44f 5141 	mov.w	r1, #12352	; 0x3040
87805168:	f2c0 230c 	movt	r3, #524	; 0x20c
8780516c:	461a      	mov	r2, r3
8780516e:	6119      	str	r1, [r3, #16]
87805170:	6913      	ldr	r3, [r2, #16]
87805172:	2b00      	cmp	r3, #0
87805174:	dafc      	bge.n	87805170 <CLOCK_EnableUsbhs0PhyPllClock+0x10>
87805176:	f44f 4310 	mov.w	r3, #36864	; 0x9000
8780517a:	2100      	movs	r1, #0
8780517c:	f2c0 230c 	movt	r3, #524	; 0x20c
87805180:	2001      	movs	r0, #1
87805182:	6b1a      	ldr	r2, [r3, #48]	; 0x30
87805184:	f022 4200 	bic.w	r2, r2, #2147483648	; 0x80000000
87805188:	631a      	str	r2, [r3, #48]	; 0x30
8780518a:	6b1a      	ldr	r2, [r3, #48]	; 0x30
8780518c:	f022 4280 	bic.w	r2, r2, #1073741824	; 0x40000000
87805190:	631a      	str	r2, [r3, #48]	; 0x30
87805192:	6019      	str	r1, [r3, #0]
87805194:	6b1a      	ldr	r2, [r3, #48]	; 0x30
87805196:	f442 12c6 	orr.w	r2, r2, #1622016	; 0x18c000
8780519a:	631a      	str	r2, [r3, #48]	; 0x30
8780519c:	4770      	bx	lr
8780519e:	bf00      	nop

878051a0 <CLOCK_EnableUsbhs1PhyPllClock>:
878051a0:	f44f 4300 	mov.w	r3, #32768	; 0x8000
878051a4:	f44f 5141 	mov.w	r1, #12352	; 0x3040
878051a8:	f2c0 230c 	movt	r3, #524	; 0x20c
878051ac:	461a      	mov	r2, r3
878051ae:	6219      	str	r1, [r3, #32]
878051b0:	6a13      	ldr	r3, [r2, #32]
878051b2:	2b00      	cmp	r3, #0
878051b4:	dafc      	bge.n	878051b0 <CLOCK_EnableUsbhs1PhyPllClock+0x10>
878051b6:	f44f 4320 	mov.w	r3, #40960	; 0xa000
878051ba:	2100      	movs	r1, #0
878051bc:	f2c0 230c 	movt	r3, #524	; 0x20c
878051c0:	2001      	movs	r0, #1
878051c2:	6b1a      	ldr	r2, [r3, #48]	; 0x30
878051c4:	f022 4200 	bic.w	r2, r2, #2147483648	; 0x80000000
878051c8:	631a      	str	r2, [r3, #48]	; 0x30
878051ca:	6b1a      	ldr	r2, [r3, #48]	; 0x30
878051cc:	f022 4280 	bic.w	r2, r2, #1073741824	; 0x40000000
878051d0:	631a      	str	r2, [r3, #48]	; 0x30
878051d2:	6019      	str	r1, [r3, #0]
878051d4:	6b1a      	ldr	r2, [r3, #48]	; 0x30
878051d6:	f442 12c6 	orr.w	r2, r2, #1622016	; 0x18c000
878051da:	631a      	str	r2, [r3, #48]	; 0x30
878051dc:	4770      	bx	lr
878051de:	bf00      	nop

878051e0 <CLOCK_DisableUsbhs0PhyPllClock>:
878051e0:	f44f 4200 	mov.w	r2, #32768	; 0x8000
878051e4:	f44f 4310 	mov.w	r3, #36864	; 0x9000
878051e8:	f2c0 220c 	movt	r2, #524	; 0x20c
878051ec:	f2c0 230c 	movt	r3, #524	; 0x20c
878051f0:	2100      	movs	r1, #0
878051f2:	6111      	str	r1, [r2, #16]
878051f4:	6b1a      	ldr	r2, [r3, #48]	; 0x30
878051f6:	f042 4280 	orr.w	r2, r2, #1073741824	; 0x40000000
878051fa:	631a      	str	r2, [r3, #48]	; 0x30
878051fc:	4770      	bx	lr
878051fe:	bf00      	nop

87805200 <CLOCK_DisableUsbhs1PhyPllClock>:
87805200:	f44f 4200 	mov.w	r2, #32768	; 0x8000
87805204:	f44f 4320 	mov.w	r3, #40960	; 0xa000
87805208:	f2c0 220c 	movt	r2, #524	; 0x20c
8780520c:	f2c0 230c 	movt	r3, #524	; 0x20c
87805210:	2100      	movs	r1, #0
87805212:	6211      	str	r1, [r2, #32]
87805214:	6b1a      	ldr	r2, [r3, #48]	; 0x30
87805216:	f042 4280 	orr.w	r2, r2, #1073741824	; 0x40000000
8780521a:	631a      	str	r2, [r3, #48]	; 0x30
8780521c:	4770      	bx	lr
8780521e:	bf00      	nop

87805220 <__assert_func>:
87805220:	be00      	bkpt	0x0000
87805222:	e7fd      	b.n	87805220 <__assert_func>

87805224 <GPIO_WritePinOutput>:
87805224:	2301      	movs	r3, #1
87805226:	b122      	cbz	r2, 87805232 <GPIO_WritePinOutput+0xe>
87805228:	6802      	ldr	r2, [r0, #0]
8780522a:	408b      	lsls	r3, r1
8780522c:	4313      	orrs	r3, r2
8780522e:	6003      	str	r3, [r0, #0]
87805230:	4770      	bx	lr
87805232:	6802      	ldr	r2, [r0, #0]
87805234:	408b      	lsls	r3, r1
87805236:	ea22 0303 	bic.w	r3, r2, r3
8780523a:	6003      	str	r3, [r0, #0]
8780523c:	4770      	bx	lr
8780523e:	bf00      	nop

87805240 <GPIO_SetPinInterruptConfig>:
87805240:	b430      	push	{r4, r5}
87805242:	2301      	movs	r3, #1
87805244:	69c4      	ldr	r4, [r0, #28]
87805246:	408b      	lsls	r3, r1
87805248:	290f      	cmp	r1, #15
8780524a:	f102 32ff 	add.w	r2, r2, #4294967295	; 0xffffffff
8780524e:	bf88      	it	hi
87805250:	3910      	subhi	r1, #16
87805252:	ea24 0403 	bic.w	r4, r4, r3
87805256:	61c4      	str	r4, [r0, #28]
87805258:	bf94      	ite	ls
8780525a:	f100 040c 	addls.w	r4, r0, #12
8780525e:	f100 0410 	addhi.w	r4, r0, #16
87805262:	2a04      	cmp	r2, #4
87805264:	d80f      	bhi.n	87805286 <GPIO_SetPinInterruptConfig+0x46>
87805266:	e8df f002 	tbb	[pc, r2]
8780526a:	231e0315 	tstcs	lr, #1409286144	; 0x54000000
8780526e:	68200010 	stmdavs	r0!, {r4}
87805272:	0049      	lsls	r1, r1, #1
87805274:	2503      	movs	r5, #3
87805276:	2301      	movs	r3, #1
87805278:	408d      	lsls	r5, r1
8780527a:	fa03 f201 	lsl.w	r2, r3, r1
8780527e:	ea20 0305 	bic.w	r3, r0, r5
87805282:	4313      	orrs	r3, r2
87805284:	6023      	str	r3, [r4, #0]
87805286:	bc30      	pop	{r4, r5}
87805288:	4770      	bx	lr
8780528a:	69c2      	ldr	r2, [r0, #28]
8780528c:	bc30      	pop	{r4, r5}
8780528e:	4313      	orrs	r3, r2
87805290:	61c3      	str	r3, [r0, #28]
87805292:	4770      	bx	lr
87805294:	0049      	lsls	r1, r1, #1
87805296:	6822      	ldr	r2, [r4, #0]
87805298:	2303      	movs	r3, #3
8780529a:	408b      	lsls	r3, r1
8780529c:	ea22 0303 	bic.w	r3, r2, r3
878052a0:	6023      	str	r3, [r4, #0]
878052a2:	bc30      	pop	{r4, r5}
878052a4:	4770      	bx	lr
878052a6:	0049      	lsls	r1, r1, #1
878052a8:	2503      	movs	r5, #3
878052aa:	6820      	ldr	r0, [r4, #0]
878052ac:	2302      	movs	r3, #2
878052ae:	e7e3      	b.n	87805278 <GPIO_SetPinInterruptConfig+0x38>
878052b0:	0049      	lsls	r1, r1, #1
878052b2:	6822      	ldr	r2, [r4, #0]
878052b4:	2303      	movs	r3, #3
878052b6:	408b      	lsls	r3, r1
878052b8:	4313      	orrs	r3, r2
878052ba:	6023      	str	r3, [r4, #0]
878052bc:	bc30      	pop	{r4, r5}
878052be:	4770      	bx	lr

878052c0 <GPIO_PinInit>:
878052c0:	b5f0      	push	{r4, r5, r6, r7, lr}
878052c2:	f24e 2658 	movw	r6, #57944	; 0xe258
878052c6:	f2c8 7680 	movt	r6, #34688	; 0x8780
878052ca:	2300      	movs	r3, #0
878052cc:	4634      	mov	r4, r6
878052ce:	f854 5b04 	ldr.w	r5, [r4], #4
878052d2:	42a8      	cmp	r0, r5
878052d4:	d002      	beq.n	878052dc <GPIO_PinInit+0x1c>
878052d6:	3301      	adds	r3, #1
878052d8:	2b06      	cmp	r3, #6
878052da:	d1f8      	bne.n	878052ce <GPIO_PinInit+0xe>
878052dc:	eb06 0383 	add.w	r3, r6, r3, lsl #2
878052e0:	f244 0568 	movw	r5, #16488	; 0x4068
878052e4:	f2c0 250c 	movt	r5, #524	; 0x20c
878052e8:	f8d2 e000 	ldr.w	lr, [r2]
878052ec:	699b      	ldr	r3, [r3, #24]
878052ee:	2603      	movs	r6, #3
878052f0:	2401      	movs	r4, #1
878052f2:	408c      	lsls	r4, r1
878052f4:	f003 070f 	and.w	r7, r3, #15
878052f8:	007f      	lsls	r7, r7, #1
878052fa:	0a1b      	lsrs	r3, r3, #8
878052fc:	40be      	lsls	r6, r7
878052fe:	f855 7023 	ldr.w	r7, [r5, r3, lsl #2]
87805302:	433e      	orrs	r6, r7
87805304:	f845 6023 	str.w	r6, [r5, r3, lsl #2]
87805308:	43e5      	mvns	r5, r4
8780530a:	6943      	ldr	r3, [r0, #20]
8780530c:	402b      	ands	r3, r5
8780530e:	6143      	str	r3, [r0, #20]
87805310:	f1be 0f00 	cmp.w	lr, #0
87805314:	d00c      	beq.n	87805330 <GPIO_PinInit+0x70>
87805316:	7913      	ldrb	r3, [r2, #4]
87805318:	b193      	cbz	r3, 87805340 <GPIO_PinInit+0x80>
8780531a:	6803      	ldr	r3, [r0, #0]
8780531c:	4323      	orrs	r3, r4
8780531e:	6003      	str	r3, [r0, #0]
87805320:	6843      	ldr	r3, [r0, #4]
87805322:	6892      	ldr	r2, [r2, #8]
87805324:	431c      	orrs	r4, r3
87805326:	6044      	str	r4, [r0, #4]
87805328:	e8bd 40f0 	ldmia.w	sp!, {r4, r5, r6, r7, lr}
8780532c:	f7ff bf88 	b.w	87805240 <GPIO_SetPinInterruptConfig>
87805330:	6843      	ldr	r3, [r0, #4]
87805332:	6892      	ldr	r2, [r2, #8]
87805334:	401d      	ands	r5, r3
87805336:	6045      	str	r5, [r0, #4]
87805338:	e8bd 40f0 	ldmia.w	sp!, {r4, r5, r6, r7, lr}
8780533c:	f7ff bf80 	b.w	87805240 <GPIO_SetPinInterruptConfig>
87805340:	6803      	ldr	r3, [r0, #0]
87805342:	401d      	ands	r5, r3
87805344:	6005      	str	r5, [r0, #0]
87805346:	e7eb      	b.n	87805320 <GPIO_PinInit+0x60>

87805348 <UART_TransferIsRxRingBufferFull>:
87805348:	8c42      	ldrh	r2, [r0, #34]	; 0x22
8780534a:	8c03      	ldrh	r3, [r0, #32]
8780534c:	b292      	uxth	r2, r2
8780534e:	b29b      	uxth	r3, r3
87805350:	429a      	cmp	r2, r3
87805352:	8c02      	ldrh	r2, [r0, #32]
87805354:	bf87      	ittee	hi
87805356:	69c1      	ldrhi	r1, [r0, #28]
87805358:	8c43      	ldrhhi	r3, [r0, #34]	; 0x22
8780535a:	8c43      	ldrhls	r3, [r0, #34]	; 0x22
8780535c:	69c1      	ldrls	r1, [r0, #28]
8780535e:	bf94      	ite	ls
87805360:	b292      	uxthls	r2, r2
87805362:	fa11 f282 	uxtahhi	r2, r1, r2
87805366:	b29b      	uxth	r3, r3
87805368:	1e48      	subs	r0, r1, #1
8780536a:	1ad3      	subs	r3, r2, r3
8780536c:	1ac0      	subs	r0, r0, r3
8780536e:	fab0 f080 	clz	r0, r0
87805372:	0940      	lsrs	r0, r0, #5
87805374:	4770      	bx	lr
87805376:	bf00      	nop

87805378 <UART_GetInstance>:
87805378:	4a05      	ldr	r2, [pc, #20]	; (87805390 <UART_GetInstance+0x18>)
8780537a:	2300      	movs	r3, #0
8780537c:	f852 1f04 	ldr.w	r1, [r2, #4]!
87805380:	4281      	cmp	r1, r0
87805382:	d002      	beq.n	8780538a <UART_GetInstance+0x12>
87805384:	3301      	adds	r3, #1
87805386:	2b09      	cmp	r3, #9
87805388:	d1f8      	bne.n	8780537c <UART_GetInstance+0x4>
8780538a:	4618      	mov	r0, r3
8780538c:	4770      	bx	lr
8780538e:	bf00      	nop
87805390:	8780e284 	strhi	lr, [r0, r4, lsl #5]

87805394 <UART_TransferGetRxRingBufferLength>:
87805394:	8c42      	ldrh	r2, [r0, #34]	; 0x22
87805396:	8c03      	ldrh	r3, [r0, #32]
87805398:	b292      	uxth	r2, r2
8780539a:	b29b      	uxth	r3, r3
8780539c:	429a      	cmp	r2, r3
8780539e:	8c03      	ldrh	r3, [r0, #32]
878053a0:	bf8b      	itete	hi
878053a2:	69c2      	ldrhi	r2, [r0, #28]
878053a4:	8c40      	ldrhls	r0, [r0, #34]	; 0x22
878053a6:	8c40      	ldrhhi	r0, [r0, #34]	; 0x22
878053a8:	b29b      	uxthls	r3, r3
878053aa:	bf88      	it	hi
878053ac:	fa12 f383 	uxtahhi	r3, r2, r3
878053b0:	b280      	uxth	r0, r0
878053b2:	1a18      	subs	r0, r3, r0
878053b4:	4770      	bx	lr
878053b6:	bf00      	nop

878053b8 <UART_Deinit>:
878053b8:	b410      	push	{r4}
878053ba:	f8d0 3098 	ldr.w	r3, [r0, #152]	; 0x98
878053be:	071b      	lsls	r3, r3, #28
878053c0:	d5fb      	bpl.n	878053ba <UART_Deinit+0x2>
878053c2:	f8d0 1080 	ldr.w	r1, [r0, #128]	; 0x80
878053c6:	2300      	movs	r3, #0
878053c8:	4a12      	ldr	r2, [pc, #72]	; (87805414 <UART_Deinit+0x5c>)
878053ca:	f021 0101 	bic.w	r1, r1, #1
878053ce:	f8c0 1080 	str.w	r1, [r0, #128]	; 0x80
878053d2:	f852 1f04 	ldr.w	r1, [r2, #4]!
878053d6:	4288      	cmp	r0, r1
878053d8:	d002      	beq.n	878053e0 <UART_Deinit+0x28>
878053da:	3301      	adds	r3, #1
878053dc:	2b09      	cmp	r3, #9
878053de:	d1f8      	bne.n	878053d2 <UART_Deinit+0x1a>
878053e0:	f24e 2288 	movw	r2, #57992	; 0xe288
878053e4:	f244 0168 	movw	r1, #16488	; 0x4068
878053e8:	f2c8 7280 	movt	r2, #34688	; 0x8780
878053ec:	f2c0 210c 	movt	r1, #524	; 0x20c
878053f0:	eb02 0383 	add.w	r3, r2, r3, lsl #2
878053f4:	2203      	movs	r2, #3
878053f6:	6a5b      	ldr	r3, [r3, #36]	; 0x24
878053f8:	f003 040f 	and.w	r4, r3, #15
878053fc:	0a1b      	lsrs	r3, r3, #8
878053fe:	0064      	lsls	r4, r4, #1
87805400:	f851 0023 	ldr.w	r0, [r1, r3, lsl #2]
87805404:	40a2      	lsls	r2, r4
87805406:	f85d 4b04 	ldr.w	r4, [sp], #4
8780540a:	ea20 0202 	bic.w	r2, r0, r2
8780540e:	f841 2023 	str.w	r2, [r1, r3, lsl #2]
87805412:	4770      	bx	lr
87805414:	8780e284 	strhi	lr, [r0, r4, lsl #5]

87805418 <UART_GetDefaultConfig>:
87805418:	2300      	movs	r3, #0
8780541a:	b410      	push	{r4}
8780541c:	2201      	movs	r2, #1
8780541e:	f44f 34e1 	mov.w	r4, #115200	; 0x1c200
87805422:	2102      	movs	r1, #2
87805424:	6004      	str	r4, [r0, #0]
87805426:	7401      	strb	r1, [r0, #16]
87805428:	6043      	str	r3, [r0, #4]
8780542a:	60c3      	str	r3, [r0, #12]
8780542c:	7483      	strb	r3, [r0, #18]
8780542e:	74c3      	strb	r3, [r0, #19]
87805430:	7503      	strb	r3, [r0, #20]
87805432:	6082      	str	r2, [r0, #8]
87805434:	7442      	strb	r2, [r0, #17]
87805436:	f85d 4b04 	ldr.w	r4, [sp], #4
8780543a:	4770      	bx	lr

8780543c <UART_SetBaudRate>:
8780543c:	e92d 4ff0 	stmdb	sp!, {r4, r5, r6, r7, r8, r9, sl, fp, lr}
87805440:	010d      	lsls	r5, r1, #4
87805442:	b085      	sub	sp, #20
87805444:	468a      	mov	sl, r1
87805446:	4683      	mov	fp, r0
87805448:	4617      	mov	r7, r2
8780544a:	f000 8106 	beq.w	8780565a <UART_SetBaudRate+0x21e>
8780544e:	462c      	mov	r4, r5
87805450:	4610      	mov	r0, r2
87805452:	e000      	b.n	87805456 <UART_SetBaudRate+0x1a>
87805454:	460c      	mov	r4, r1
87805456:	4621      	mov	r1, r4
87805458:	f003 f810 	bl	8780847c <__aeabi_uidivmod>
8780545c:	4620      	mov	r0, r4
8780545e:	2900      	cmp	r1, #0
87805460:	d1f8      	bne.n	87805454 <UART_SetBaudRate+0x18>
87805462:	4621      	mov	r1, r4
87805464:	4638      	mov	r0, r7
87805466:	f002 fedb 	bl	87808220 <__aeabi_uidiv>
8780546a:	4621      	mov	r1, r4
8780546c:	4606      	mov	r6, r0
8780546e:	4628      	mov	r0, r5
87805470:	f002 fed6 	bl	87808220 <__aeabi_uidiv>
87805474:	f64f 73f9 	movw	r3, #65529	; 0xfff9
87805478:	4605      	mov	r5, r0
8780547a:	f2c0 0306 	movt	r3, #6
8780547e:	429e      	cmp	r6, r3
87805480:	bf98      	it	ls
87805482:	f5b0 3f80 	cmpls.w	r0, #65536	; 0x10000
87805486:	bf2c      	ite	cs
87805488:	2301      	movcs	r3, #1
8780548a:	2300      	movcc	r3, #0
8780548c:	d25d      	bcs.n	8780554a <UART_SetBaudRate+0x10e>
8780548e:	f248 0101 	movw	r1, #32769	; 0x8001
87805492:	1e72      	subs	r2, r6, #1
87805494:	f2c8 0100 	movt	r1, #32768	; 0x8000
87805498:	9301      	str	r3, [sp, #4]
8780549a:	fba2 2301 	umull	r2, r3, r2, r1
8780549e:	ea4f 1906 	mov.w	r9, r6, lsl #4
878054a2:	4680      	mov	r8, r0
878054a4:	0bd9      	lsrs	r1, r3, #15
878054a6:	1e4a      	subs	r2, r1, #1
878054a8:	1c4b      	adds	r3, r1, #1
878054aa:	9303      	str	r3, [sp, #12]
878054ac:	2a05      	cmp	r2, #5
878054ae:	4638      	mov	r0, r7
878054b0:	bf96      	itet	ls
878054b2:	f24e 2388 	movwls	r3, #57992	; 0xe288
878054b6:	2305      	movhi	r3, #5
878054b8:	f2c8 7380 	movtls	r3, #34688	; 0x8780
878054bc:	f04f 0100 	mov.w	r1, #0
878054c0:	bf9c      	itt	ls
878054c2:	eb03 0382 	addls.w	r3, r3, r2, lsl #2
878054c6:	6c9b      	ldrls	r3, [r3, #72]	; 0x48
878054c8:	9302      	str	r3, [sp, #8]
878054ca:	f1b9 0f00 	cmp.w	r9, #0
878054ce:	f000 80c2 	beq.w	87805656 <UART_SetBaudRate+0x21a>
878054d2:	464c      	mov	r4, r9
878054d4:	e000      	b.n	878054d8 <UART_SetBaudRate+0x9c>
878054d6:	4614      	mov	r4, r2
878054d8:	4622      	mov	r2, r4
878054da:	2300      	movs	r3, #0
878054dc:	f003 f934 	bl	87808748 <__aeabi_uldivmod>
878054e0:	4620      	mov	r0, r4
878054e2:	2100      	movs	r1, #0
878054e4:	2a00      	cmp	r2, #0
878054e6:	d1f6      	bne.n	878054d6 <UART_SetBaudRate+0x9a>
878054e8:	4621      	mov	r1, r4
878054ea:	4638      	mov	r0, r7
878054ec:	f002 fe98 	bl	87808220 <__aeabi_uidiv>
878054f0:	4603      	mov	r3, r0
878054f2:	4648      	mov	r0, r9
878054f4:	fba3 8908 	umull	r8, r9, r3, r8
878054f8:	9a01      	ldr	r2, [sp, #4]
878054fa:	4621      	mov	r1, r4
878054fc:	fb03 9902 	mla	r9, r3, r2, r9
87805500:	f002 fe8e 	bl	87808220 <__aeabi_uidiv>
87805504:	2300      	movs	r3, #0
87805506:	4602      	mov	r2, r0
87805508:	4649      	mov	r1, r9
8780550a:	4640      	mov	r0, r8
8780550c:	f003 f91c 	bl	87808748 <__aeabi_uldivmod>
87805510:	2300      	movs	r3, #0
87805512:	4652      	mov	r2, sl
87805514:	4299      	cmp	r1, r3
87805516:	bf08      	it	eq
87805518:	4550      	cmpeq	r0, sl
8780551a:	d35a      	bcc.n	878055d2 <UART_SetBaudRate+0x196>
8780551c:	1a80      	subs	r0, r0, r2
8780551e:	eb61 0103 	sbc.w	r1, r1, r3
87805522:	f248 521f 	movw	r2, #34079	; 0x851f
87805526:	f2c5 12eb 	movt	r2, #20971	; 0x51eb
8780552a:	fbaa 2302 	umull	r2, r3, sl, r2
8780552e:	095a      	lsrs	r2, r3, #5
87805530:	2300      	movs	r3, #0
87805532:	4299      	cmp	r1, r3
87805534:	eb02 0242 	add.w	r2, r2, r2, lsl #1
87805538:	bf08      	it	eq
8780553a:	4290      	cmpeq	r0, r2
8780553c:	bf28      	it	cs
8780553e:	f640 20fd 	movwcs	r0, #2813	; 0xafd
87805542:	d357      	bcc.n	878055f4 <UART_SetBaudRate+0x1b8>
87805544:	b005      	add	sp, #20
87805546:	e8bd 8ff0 	ldmia.w	sp!, {r4, r5, r6, r7, r8, r9, sl, fp, pc}
8780554a:	f646 52b9 	movw	r2, #28089	; 0x6db9
8780554e:	1e71      	subs	r1, r6, #1
87805550:	f2c2 4293 	movt	r2, #9363	; 0x2493
87805554:	f248 0401 	movw	r4, #32769	; 0x8001
87805558:	fba1 2302 	umull	r2, r3, r1, r2
8780555c:	f100 38ff 	add.w	r8, r0, #4294967295	; 0xffffffff
87805560:	f2c8 0400 	movt	r4, #32768	; 0x8000
87805564:	4630      	mov	r0, r6
87805566:	fba8 8904 	umull	r8, r9, r8, r4
8780556a:	1ac9      	subs	r1, r1, r3
8780556c:	eb03 0351 	add.w	r3, r3, r1, lsr #1
87805570:	ea4f 38d9 	mov.w	r8, r9, lsr #15
87805574:	0c9b      	lsrs	r3, r3, #18
87805576:	f108 0801 	add.w	r8, r8, #1
8780557a:	3301      	adds	r3, #1
8780557c:	4598      	cmp	r8, r3
8780557e:	bf38      	it	cc
87805580:	4698      	movcc	r8, r3
87805582:	4641      	mov	r1, r8
87805584:	f002 fe4c 	bl	87808220 <__aeabi_uidiv>
87805588:	4606      	mov	r6, r0
8780558a:	4641      	mov	r1, r8
8780558c:	4628      	mov	r0, r5
8780558e:	f002 fe47 	bl	87808220 <__aeabi_uidiv>
87805592:	4605      	mov	r5, r0
87805594:	b97e      	cbnz	r6, 878055b6 <UART_SetBaudRate+0x17a>
87805596:	2800      	cmp	r0, #0
87805598:	d156      	bne.n	87805648 <UART_SetBaudRate+0x20c>
8780559a:	f04f 0801 	mov.w	r8, #1
8780559e:	2305      	movs	r3, #5
878055a0:	4601      	mov	r1, r0
878055a2:	9001      	str	r0, [sp, #4]
878055a4:	4646      	mov	r6, r8
878055a6:	f8cd 800c 	str.w	r8, [sp, #12]
878055aa:	4645      	mov	r5, r8
878055ac:	4638      	mov	r0, r7
878055ae:	f04f 0910 	mov.w	r9, #16
878055b2:	9302      	str	r3, [sp, #8]
878055b4:	e78d      	b.n	878054d2 <UART_SetBaudRate+0x96>
878055b6:	1e72      	subs	r2, r6, #1
878055b8:	b178      	cbz	r0, 878055da <UART_SetBaudRate+0x19e>
878055ba:	fba2 2304 	umull	r2, r3, r2, r4
878055be:	ea4f 1906 	mov.w	r9, r6, lsl #4
878055c2:	0bd9      	lsrs	r1, r3, #15
878055c4:	1e4a      	subs	r2, r1, #1
878055c6:	3101      	adds	r1, #1
878055c8:	2300      	movs	r3, #0
878055ca:	9103      	str	r1, [sp, #12]
878055cc:	46a8      	mov	r8, r5
878055ce:	9301      	str	r3, [sp, #4]
878055d0:	e76c      	b.n	878054ac <UART_SetBaudRate+0x70>
878055d2:	1a10      	subs	r0, r2, r0
878055d4:	eb63 0101 	sbc.w	r1, r3, r1
878055d8:	e7a3      	b.n	87805522 <UART_SetBaudRate+0xe6>
878055da:	fba2 2304 	umull	r2, r3, r2, r4
878055de:	f04f 0801 	mov.w	r8, #1
878055e2:	4645      	mov	r5, r8
878055e4:	9001      	str	r0, [sp, #4]
878055e6:	ea4f 1906 	mov.w	r9, r6, lsl #4
878055ea:	0bd9      	lsrs	r1, r3, #15
878055ec:	194b      	adds	r3, r1, r5
878055ee:	1e4a      	subs	r2, r1, #1
878055f0:	9303      	str	r3, [sp, #12]
878055f2:	e75b      	b.n	878054ac <UART_SetBaudRate+0x70>
878055f4:	9b02      	ldr	r3, [sp, #8]
878055f6:	3d01      	subs	r5, #1
878055f8:	f8db 1090 	ldr.w	r1, [fp, #144]	; 0x90
878055fc:	b2ad      	uxth	r5, r5
878055fe:	9c03      	ldr	r4, [sp, #12]
87805600:	4630      	mov	r0, r6
87805602:	01db      	lsls	r3, r3, #7
87805604:	f403 7260 	and.w	r2, r3, #896	; 0x380
87805608:	f421 7360 	bic.w	r3, r1, #896	; 0x380
8780560c:	f8cb 3090 	str.w	r3, [fp, #144]	; 0x90
87805610:	4621      	mov	r1, r4
87805612:	f8db 3090 	ldr.w	r3, [fp, #144]	; 0x90
87805616:	4313      	orrs	r3, r2
87805618:	f8cb 3090 	str.w	r3, [fp, #144]	; 0x90
8780561c:	f8cb 50a4 	str.w	r5, [fp, #164]	; 0xa4
87805620:	f002 fdfe 	bl	87808220 <__aeabi_uidiv>
87805624:	01e1      	lsls	r1, r4, #7
87805626:	3801      	subs	r0, #1
87805628:	b283      	uxth	r3, r0
8780562a:	4638      	mov	r0, r7
8780562c:	eba1 0184 	sub.w	r1, r1, r4, lsl #2
87805630:	f8cb 30a8 	str.w	r3, [fp, #168]	; 0xa8
87805634:	4421      	add	r1, r4
87805636:	00c9      	lsls	r1, r1, #3
87805638:	f002 fdf2 	bl	87808220 <__aeabi_uidiv>
8780563c:	f8cb 00b0 	str.w	r0, [fp, #176]	; 0xb0
87805640:	2000      	movs	r0, #0
87805642:	b005      	add	sp, #20
87805644:	e8bd 8ff0 	ldmia.w	sp!, {r4, r5, r6, r7, r8, r9, sl, fp, pc}
87805648:	2101      	movs	r1, #1
8780564a:	f04f 0910 	mov.w	r9, #16
8780564e:	460e      	mov	r6, r1
87805650:	f04f 32ff 	mov.w	r2, #4294967295	; 0xffffffff
87805654:	e7b8      	b.n	878055c8 <UART_SetBaudRate+0x18c>
87805656:	2401      	movs	r4, #1
87805658:	e746      	b.n	878054e8 <UART_SetBaudRate+0xac>
8780565a:	2401      	movs	r4, #1
8780565c:	e701      	b.n	87805462 <UART_SetBaudRate+0x26>
8780565e:	bf00      	nop

87805660 <UART_Init>:
87805660:	b5f8      	push	{r3, r4, r5, r6, r7, lr}
87805662:	4604      	mov	r4, r0
87805664:	4d59      	ldr	r5, [pc, #356]	; (878057cc <UART_Init+0x16c>)
87805666:	2300      	movs	r3, #0
87805668:	f855 0f04 	ldr.w	r0, [r5, #4]!
8780566c:	4284      	cmp	r4, r0
8780566e:	d002      	beq.n	87805676 <UART_Init+0x16>
87805670:	3301      	adds	r3, #1
87805672:	2b09      	cmp	r3, #9
87805674:	d1f8      	bne.n	87805668 <UART_Init+0x8>
87805676:	f24e 2088 	movw	r0, #57992	; 0xe288
8780567a:	f244 0568 	movw	r5, #16488	; 0x4068
8780567e:	f2c8 7080 	movt	r0, #34688	; 0x8780
87805682:	f2c0 250c 	movt	r5, #524	; 0x20c
87805686:	eb00 0383 	add.w	r3, r0, r3, lsl #2
8780568a:	2003      	movs	r0, #3
8780568c:	6a5b      	ldr	r3, [r3, #36]	; 0x24
8780568e:	f003 070f 	and.w	r7, r3, #15
87805692:	0a1b      	lsrs	r3, r3, #8
87805694:	007f      	lsls	r7, r7, #1
87805696:	f855 6023 	ldr.w	r6, [r5, r3, lsl #2]
8780569a:	40b8      	lsls	r0, r7
8780569c:	4330      	orrs	r0, r6
8780569e:	f845 0023 	str.w	r0, [r5, r3, lsl #2]
878056a2:	f8d4 3080 	ldr.w	r3, [r4, #128]	; 0x80
878056a6:	f023 0301 	bic.w	r3, r3, #1
878056aa:	f8c4 3080 	str.w	r3, [r4, #128]	; 0x80
878056ae:	f8d4 3084 	ldr.w	r3, [r4, #132]	; 0x84
878056b2:	f023 0301 	bic.w	r3, r3, #1
878056b6:	f8c4 3084 	str.w	r3, [r4, #132]	; 0x84
878056ba:	f8d4 3084 	ldr.w	r3, [r4, #132]	; 0x84
878056be:	07db      	lsls	r3, r3, #31
878056c0:	d5fb      	bpl.n	878056ba <UART_Init+0x5a>
878056c2:	688d      	ldr	r5, [r1, #8]
878056c4:	2700      	movs	r7, #0
878056c6:	2601      	movs	r6, #1
878056c8:	68cb      	ldr	r3, [r1, #12]
878056ca:	f44f 60e0 	mov.w	r0, #1792	; 0x700
878056ce:	f8c4 7080 	str.w	r7, [r4, #128]	; 0x80
878056d2:	f8c4 6084 	str.w	r6, [r4, #132]	; 0x84
878056d6:	f44f 4600 	mov.w	r6, #32768	; 0x8000
878056da:	f8c4 0088 	str.w	r0, [r4, #136]	; 0x88
878056de:	016d      	lsls	r5, r5, #5
878056e0:	f8c4 608c 	str.w	r6, [r4, #140]	; 0x8c
878056e4:	f640 0001 	movw	r0, #2049	; 0x801
878056e8:	262b      	movs	r6, #43	; 0x2b
878056ea:	f8c4 0090 	str.w	r0, [r4, #144]	; 0x90
878056ee:	f8c4 609c 	str.w	r6, [r4, #156]	; 0x9c
878056f2:	2060      	movs	r0, #96	; 0x60
878056f4:	684e      	ldr	r6, [r1, #4]
878056f6:	f005 0c20 	and.w	ip, r5, #32
878056fa:	f8c4 70a0 	str.w	r7, [r4, #160]	; 0xa0
878056fe:	ea4f 1e83 	mov.w	lr, r3, lsl #6
87805702:	f8c4 70b0 	str.w	r7, [r4, #176]	; 0xb0
87805706:	f8c4 00b4 	str.w	r0, [r4, #180]	; 0xb4
8780570a:	f00e 0e40 	and.w	lr, lr, #64	; 0x40
8780570e:	f8c4 70b8 	str.w	r7, [r4, #184]	; 0xb8
87805712:	01f6      	lsls	r6, r6, #7
87805714:	f8d4 5084 	ldr.w	r5, [r4, #132]	; 0x84
87805718:	7cc8      	ldrb	r0, [r1, #19]
8780571a:	f406 76c0 	and.w	r6, r6, #384	; 0x180
8780571e:	7d0b      	ldrb	r3, [r1, #20]
87805720:	f445 4580 	orr.w	r5, r5, #16384	; 0x4000
87805724:	ea45 050c 	orr.w	r5, r5, ip
87805728:	0080      	lsls	r0, r0, #2
8780572a:	ea45 050e 	orr.w	r5, r5, lr
8780572e:	005b      	lsls	r3, r3, #1
87805730:	4335      	orrs	r5, r6
87805732:	f000 0004 	and.w	r0, r0, #4
87805736:	7c8e      	ldrb	r6, [r1, #18]
87805738:	4328      	orrs	r0, r5
8780573a:	f003 0302 	and.w	r3, r3, #2
8780573e:	4303      	orrs	r3, r0
87805740:	f8c4 3084 	str.w	r3, [r4, #132]	; 0x84
87805744:	f8d4 3088 	ldr.w	r3, [r4, #136]	; 0x88
87805748:	f043 0304 	orr.w	r3, r3, #4
8780574c:	f8c4 3088 	str.w	r3, [r4, #136]	; 0x88
87805750:	7c0b      	ldrb	r3, [r1, #16]
87805752:	f8d4 0090 	ldr.w	r0, [r4, #144]	; 0x90
87805756:	029b      	lsls	r3, r3, #10
87805758:	f420 407c 	bic.w	r0, r0, #64512	; 0xfc00
8780575c:	b29b      	uxth	r3, r3
8780575e:	4303      	orrs	r3, r0
87805760:	f8c4 3090 	str.w	r3, [r4, #144]	; 0x90
87805764:	f8d4 3090 	ldr.w	r3, [r4, #144]	; 0x90
87805768:	7c4d      	ldrb	r5, [r1, #17]
8780576a:	f023 003f 	bic.w	r0, r3, #63	; 0x3f
8780576e:	f005 033f 	and.w	r3, r5, #63	; 0x3f
87805772:	4303      	orrs	r3, r0
87805774:	f8c4 3090 	str.w	r3, [r4, #144]	; 0x90
87805778:	b97e      	cbnz	r6, 8780579a <UART_Init+0x13a>
8780577a:	6809      	ldr	r1, [r1, #0]
8780577c:	f8d4 3080 	ldr.w	r3, [r4, #128]	; 0x80
87805780:	b9c1      	cbnz	r1, 878057b4 <UART_Init+0x154>
87805782:	f423 4380 	bic.w	r3, r3, #16384	; 0x4000
87805786:	f8c4 3080 	str.w	r3, [r4, #128]	; 0x80
8780578a:	f8d4 3080 	ldr.w	r3, [r4, #128]	; 0x80
8780578e:	2000      	movs	r0, #0
87805790:	f043 0301 	orr.w	r3, r3, #1
87805794:	f8c4 3080 	str.w	r3, [r4, #128]	; 0x80
87805798:	bdf8      	pop	{r3, r4, r5, r6, r7, pc}
8780579a:	f8d4 3080 	ldr.w	r3, [r4, #128]	; 0x80
8780579e:	f443 4380 	orr.w	r3, r3, #16384	; 0x4000
878057a2:	f8c4 3080 	str.w	r3, [r4, #128]	; 0x80
878057a6:	f8d4 3098 	ldr.w	r3, [r4, #152]	; 0x98
878057aa:	f443 4300 	orr.w	r3, r3, #32768	; 0x8000
878057ae:	f8c4 3098 	str.w	r3, [r4, #152]	; 0x98
878057b2:	e7ea      	b.n	8780578a <UART_Init+0x12a>
878057b4:	f423 4380 	bic.w	r3, r3, #16384	; 0x4000
878057b8:	4620      	mov	r0, r4
878057ba:	f8c4 3080 	str.w	r3, [r4, #128]	; 0x80
878057be:	f7ff fe3d 	bl	8780543c <UART_SetBaudRate>
878057c2:	2800      	cmp	r0, #0
878057c4:	d0e1      	beq.n	8780578a <UART_Init+0x12a>
878057c6:	f640 20fd 	movw	r0, #2813	; 0xafd
878057ca:	bdf8      	pop	{r3, r4, r5, r6, r7, pc}
878057cc:	8780e284 	strhi	lr, [r0, r4, lsl #5]

878057d0 <UART_EnableInterrupts>:
878057d0:	068b      	lsls	r3, r1, #26
878057d2:	b5f0      	push	{r4, r5, r6, r7, lr}
878057d4:	d019      	beq.n	8780580a <UART_EnableInterrupts+0x3a>
878057d6:	f8d0 2080 	ldr.w	r2, [r0, #128]	; 0x80
878057da:	03cf      	lsls	r7, r1, #15
878057dc:	f001 0620 	and.w	r6, r1, #32
878057e0:	030b      	lsls	r3, r1, #12
878057e2:	b2bf      	uxth	r7, r7
878057e4:	028d      	lsls	r5, r1, #10
878057e6:	018c      	lsls	r4, r1, #6
878057e8:	4316      	orrs	r6, r2
878057ea:	008a      	lsls	r2, r1, #2
878057ec:	433e      	orrs	r6, r7
878057ee:	f403 5300 	and.w	r3, r3, #8192	; 0x2000
878057f2:	f405 5580 	and.w	r5, r5, #4096	; 0x1000
878057f6:	4333      	orrs	r3, r6
878057f8:	f404 7400 	and.w	r4, r4, #512	; 0x200
878057fc:	432b      	orrs	r3, r5
878057fe:	f002 0240 	and.w	r2, r2, #64	; 0x40
87805802:	4323      	orrs	r3, r4
87805804:	4313      	orrs	r3, r2
87805806:	f8c0 3080 	str.w	r3, [r0, #128]	; 0x80
8780580a:	f411 6fe0 	tst.w	r1, #1792	; 0x700
8780580e:	d00f      	beq.n	87805830 <UART_EnableInterrupts+0x60>
87805810:	0a0b      	lsrs	r3, r1, #8
87805812:	094c      	lsrs	r4, r1, #5
87805814:	f8d0 5084 	ldr.w	r5, [r0, #132]	; 0x84
87805818:	09ca      	lsrs	r2, r1, #7
8780581a:	03db      	lsls	r3, r3, #15
8780581c:	f004 0410 	and.w	r4, r4, #16
87805820:	f002 0208 	and.w	r2, r2, #8
87805824:	b29b      	uxth	r3, r3
87805826:	4323      	orrs	r3, r4
87805828:	432b      	orrs	r3, r5
8780582a:	4313      	orrs	r3, r2
8780582c:	f8c0 3084 	str.w	r3, [r0, #132]	; 0x84
87805830:	f44f 4370 	mov.w	r3, #61440	; 0xf000
87805834:	f2c0 033f 	movt	r3, #63	; 0x3f
87805838:	400b      	ands	r3, r1
8780583a:	b353      	cbz	r3, 87805892 <UART_EnableInterrupts+0xc2>
8780583c:	f8d0 5088 	ldr.w	r5, [r0, #136]	; 0x88
87805840:	004a      	lsls	r2, r1, #1
87805842:	f3c1 5740 	ubfx	r7, r1, #21, #1
87805846:	084c      	lsrs	r4, r1, #1
87805848:	f402 5200 	and.w	r2, r2, #8192	; 0x2000
8780584c:	08ce      	lsrs	r6, r1, #3
8780584e:	432f      	orrs	r7, r5
87805850:	098b      	lsrs	r3, r1, #6
87805852:	4317      	orrs	r7, r2
87805854:	0a0d      	lsrs	r5, r1, #8
87805856:	f404 5480 	and.w	r4, r4, #4096	; 0x1000
8780585a:	0aca      	lsrs	r2, r1, #11
8780585c:	4327      	orrs	r7, r4
8780585e:	0b4c      	lsrs	r4, r1, #13
87805860:	f406 6600 	and.w	r6, r6, #2048	; 0x800
87805864:	433e      	orrs	r6, r7
87805866:	f403 7300 	and.w	r3, r3, #512	; 0x200
8780586a:	4333      	orrs	r3, r6
8780586c:	f405 7580 	and.w	r5, r5, #256	; 0x100
87805870:	431d      	orrs	r5, r3
87805872:	f002 0240 	and.w	r2, r2, #64	; 0x40
87805876:	0bcb      	lsrs	r3, r1, #15
87805878:	4315      	orrs	r5, r2
8780587a:	f004 0420 	and.w	r4, r4, #32
8780587e:	0c4a      	lsrs	r2, r1, #17
87805880:	432c      	orrs	r4, r5
87805882:	f003 0310 	and.w	r3, r3, #16
87805886:	f002 0208 	and.w	r2, r2, #8
8780588a:	4323      	orrs	r3, r4
8780588c:	4313      	orrs	r3, r2
8780588e:	f8c0 3088 	str.w	r3, [r0, #136]	; 0x88
87805892:	f011 5f7c 	tst.w	r1, #1056964608	; 0x3f000000
87805896:	d01c      	beq.n	878058d2 <UART_EnableInterrupts+0x102>
87805898:	0e4b      	lsrs	r3, r1, #25
8780589a:	f8d0 708c 	ldr.w	r7, [r0, #140]	; 0x8c
8780589e:	0c0e      	lsrs	r6, r1, #16
878058a0:	f3c1 7e40 	ubfx	lr, r1, #29, #1
878058a4:	01db      	lsls	r3, r3, #7
878058a6:	0dcd      	lsrs	r5, r1, #23
878058a8:	0e4c      	lsrs	r4, r1, #25
878058aa:	0ec9      	lsrs	r1, r1, #27
878058ac:	b2da      	uxtb	r2, r3
878058ae:	f406 7680 	and.w	r6, r6, #256	; 0x100
878058b2:	ea4e 0307 	orr.w	r3, lr, r7
878058b6:	f005 0508 	and.w	r5, r5, #8
878058ba:	4333      	orrs	r3, r6
878058bc:	f004 0404 	and.w	r4, r4, #4
878058c0:	4313      	orrs	r3, r2
878058c2:	f001 0202 	and.w	r2, r1, #2
878058c6:	ea43 0105 	orr.w	r1, r3, r5
878058ca:	4321      	orrs	r1, r4
878058cc:	4311      	orrs	r1, r2
878058ce:	f8c0 108c 	str.w	r1, [r0, #140]	; 0x8c
878058d2:	bdf0      	pop	{r4, r5, r6, r7, pc}

878058d4 <UART_DisableInterrupts>:
878058d4:	068b      	lsls	r3, r1, #26
878058d6:	b4f0      	push	{r4, r5, r6, r7}
878058d8:	d01a      	beq.n	87805910 <UART_DisableInterrupts+0x3c>
878058da:	03cb      	lsls	r3, r1, #15
878058dc:	030e      	lsls	r6, r1, #12
878058de:	028d      	lsls	r5, r1, #10
878058e0:	018c      	lsls	r4, r1, #6
878058e2:	b29f      	uxth	r7, r3
878058e4:	008a      	lsls	r2, r1, #2
878058e6:	f001 0320 	and.w	r3, r1, #32
878058ea:	f406 5600 	and.w	r6, r6, #8192	; 0x2000
878058ee:	433b      	orrs	r3, r7
878058f0:	f405 5580 	and.w	r5, r5, #4096	; 0x1000
878058f4:	4333      	orrs	r3, r6
878058f6:	f404 7400 	and.w	r4, r4, #512	; 0x200
878058fa:	432b      	orrs	r3, r5
878058fc:	f8d0 5080 	ldr.w	r5, [r0, #128]	; 0x80
87805900:	4323      	orrs	r3, r4
87805902:	f002 0240 	and.w	r2, r2, #64	; 0x40
87805906:	4313      	orrs	r3, r2
87805908:	ea25 0303 	bic.w	r3, r5, r3
8780590c:	f8c0 3080 	str.w	r3, [r0, #128]	; 0x80
87805910:	f411 6fe0 	tst.w	r1, #1792	; 0x700
87805914:	d010      	beq.n	87805938 <UART_DisableInterrupts+0x64>
87805916:	0a0a      	lsrs	r2, r1, #8
87805918:	094b      	lsrs	r3, r1, #5
8780591a:	09cc      	lsrs	r4, r1, #7
8780591c:	f8d0 5084 	ldr.w	r5, [r0, #132]	; 0x84
87805920:	03d2      	lsls	r2, r2, #15
87805922:	f003 0310 	and.w	r3, r3, #16
87805926:	f004 0408 	and.w	r4, r4, #8
8780592a:	b292      	uxth	r2, r2
8780592c:	4313      	orrs	r3, r2
8780592e:	4323      	orrs	r3, r4
87805930:	ea25 0303 	bic.w	r3, r5, r3
87805934:	f8c0 3084 	str.w	r3, [r0, #132]	; 0x84
87805938:	f44f 4370 	mov.w	r3, #61440	; 0xf000
8780593c:	f2c0 033f 	movt	r3, #63	; 0x3f
87805940:	400b      	ands	r3, r1
87805942:	b35b      	cbz	r3, 8780599c <UART_DisableInterrupts+0xc8>
87805944:	004f      	lsls	r7, r1, #1
87805946:	084e      	lsrs	r6, r1, #1
87805948:	08cd      	lsrs	r5, r1, #3
8780594a:	098c      	lsrs	r4, r1, #6
8780594c:	0a0a      	lsrs	r2, r1, #8
8780594e:	0acb      	lsrs	r3, r1, #11
87805950:	f407 5700 	and.w	r7, r7, #8192	; 0x2000
87805954:	f406 5680 	and.w	r6, r6, #4096	; 0x1000
87805958:	433e      	orrs	r6, r7
8780595a:	f3c1 5740 	ubfx	r7, r1, #21, #1
8780595e:	433e      	orrs	r6, r7
87805960:	f405 6500 	and.w	r5, r5, #2048	; 0x800
87805964:	4335      	orrs	r5, r6
87805966:	f404 7400 	and.w	r4, r4, #512	; 0x200
8780596a:	432c      	orrs	r4, r5
8780596c:	f402 7280 	and.w	r2, r2, #256	; 0x100
87805970:	0b4d      	lsrs	r5, r1, #13
87805972:	4322      	orrs	r2, r4
87805974:	f003 0340 	and.w	r3, r3, #64	; 0x40
87805978:	0bcc      	lsrs	r4, r1, #15
8780597a:	4313      	orrs	r3, r2
8780597c:	0c4a      	lsrs	r2, r1, #17
8780597e:	f005 0520 	and.w	r5, r5, #32
87805982:	f8d0 6088 	ldr.w	r6, [r0, #136]	; 0x88
87805986:	432b      	orrs	r3, r5
87805988:	f004 0410 	and.w	r4, r4, #16
8780598c:	4323      	orrs	r3, r4
8780598e:	f002 0208 	and.w	r2, r2, #8
87805992:	4313      	orrs	r3, r2
87805994:	ea26 0303 	bic.w	r3, r6, r3
87805998:	f8c0 3088 	str.w	r3, [r0, #136]	; 0x88
8780599c:	f011 5f7c 	tst.w	r1, #1056964608	; 0x3f000000
878059a0:	d01b      	beq.n	878059da <UART_DisableInterrupts+0x106>
878059a2:	0e4a      	lsrs	r2, r1, #25
878059a4:	0c0b      	lsrs	r3, r1, #16
878059a6:	0dcf      	lsrs	r7, r1, #23
878059a8:	0ecc      	lsrs	r4, r1, #27
878059aa:	f8d0 608c 	ldr.w	r6, [r0, #140]	; 0x8c
878059ae:	4615      	mov	r5, r2
878059b0:	01d2      	lsls	r2, r2, #7
878059b2:	f403 7380 	and.w	r3, r3, #256	; 0x100
878059b6:	b2d2      	uxtb	r2, r2
878059b8:	f3c1 7140 	ubfx	r1, r1, #29, #1
878059bc:	f007 0708 	and.w	r7, r7, #8
878059c0:	4313      	orrs	r3, r2
878059c2:	f005 0204 	and.w	r2, r5, #4
878059c6:	4319      	orrs	r1, r3
878059c8:	f004 0302 	and.w	r3, r4, #2
878059cc:	4339      	orrs	r1, r7
878059ce:	4311      	orrs	r1, r2
878059d0:	4319      	orrs	r1, r3
878059d2:	ea26 0101 	bic.w	r1, r6, r1
878059d6:	f8c0 108c 	str.w	r1, [r0, #140]	; 0x8c
878059da:	bcf0      	pop	{r4, r5, r6, r7}
878059dc:	4770      	bx	lr
878059de:	bf00      	nop

878059e0 <UART_TransferHandleIRQ>:
878059e0:	e92d 43f8 	stmdb	sp!, {r3, r4, r5, r6, r7, r8, r9, lr}
878059e4:	4605      	mov	r5, r0
878059e6:	f8d0 3094 	ldr.w	r3, [r0, #148]	; 0x94
878059ea:	460c      	mov	r4, r1
878059ec:	055b      	lsls	r3, r3, #21
878059ee:	d510      	bpl.n	87805a12 <UART_TransferHandleIRQ+0x32>
878059f0:	f8d0 3094 	ldr.w	r3, [r0, #148]	; 0x94
878059f4:	2704      	movs	r7, #4
878059f6:	6a4e      	ldr	r6, [r1, #36]	; 0x24
878059f8:	2200      	movs	r2, #0
878059fa:	f443 6380 	orr.w	r3, r3, #1024	; 0x400
878059fe:	f8c0 3094 	str.w	r3, [r0, #148]	; 0x94
87805a02:	f881 702d 	strb.w	r7, [r1, #45]	; 0x2d
87805a06:	610a      	str	r2, [r1, #16]
87805a08:	b11e      	cbz	r6, 87805a12 <UART_TransferHandleIRQ+0x32>
87805a0a:	6a8b      	ldr	r3, [r1, #40]	; 0x28
87805a0c:	f640 22fb 	movw	r2, #2811	; 0xafb
87805a10:	47b0      	blx	r6
87805a12:	f8d5 3094 	ldr.w	r3, [r5, #148]	; 0x94
87805a16:	041f      	lsls	r7, r3, #16
87805a18:	d512      	bpl.n	87805a40 <UART_TransferHandleIRQ+0x60>
87805a1a:	f8d5 3094 	ldr.w	r3, [r5, #148]	; 0x94
87805a1e:	2105      	movs	r1, #5
87805a20:	6a66      	ldr	r6, [r4, #36]	; 0x24
87805a22:	2200      	movs	r2, #0
87805a24:	f443 4300 	orr.w	r3, r3, #32768	; 0x8000
87805a28:	f8c5 3094 	str.w	r3, [r5, #148]	; 0x94
87805a2c:	f884 102d 	strb.w	r1, [r4, #45]	; 0x2d
87805a30:	6122      	str	r2, [r4, #16]
87805a32:	b12e      	cbz	r6, 87805a40 <UART_TransferHandleIRQ+0x60>
87805a34:	6aa3      	ldr	r3, [r4, #40]	; 0x28
87805a36:	f640 22fc 	movw	r2, #2812	; 0xafc
87805a3a:	4621      	mov	r1, r4
87805a3c:	4628      	mov	r0, r5
87805a3e:	47b0      	blx	r6
87805a40:	f8d5 3098 	ldr.w	r3, [r5, #152]	; 0x98
87805a44:	079e      	lsls	r6, r3, #30
87805a46:	d50d      	bpl.n	87805a64 <UART_TransferHandleIRQ+0x84>
87805a48:	f8d5 3098 	ldr.w	r3, [r5, #152]	; 0x98
87805a4c:	6a66      	ldr	r6, [r4, #36]	; 0x24
87805a4e:	f043 0302 	orr.w	r3, r3, #2
87805a52:	f8c5 3098 	str.w	r3, [r5, #152]	; 0x98
87805a56:	b12e      	cbz	r6, 87805a64 <UART_TransferHandleIRQ+0x84>
87805a58:	6aa3      	ldr	r3, [r4, #40]	; 0x28
87805a5a:	f640 22f9 	movw	r2, #2809	; 0xaf9
87805a5e:	4621      	mov	r1, r4
87805a60:	4628      	mov	r0, r5
87805a62:	47b0      	blx	r6
87805a64:	f8d5 3094 	ldr.w	r3, [r5, #148]	; 0x94
87805a68:	0598      	lsls	r0, r3, #22
87805a6a:	d576      	bpl.n	87805b5a <UART_TransferHandleIRQ+0x17a>
87805a6c:	f8d5 3080 	ldr.w	r3, [r5, #128]	; 0x80
87805a70:	0599      	lsls	r1, r3, #22
87805a72:	d572      	bpl.n	87805b5a <UART_TransferHandleIRQ+0x17a>
87805a74:	f8d5 3090 	ldr.w	r3, [r5, #144]	; 0x90
87805a78:	f013 083f 	ands.w	r8, r3, #63	; 0x3f
87805a7c:	f000 813b 	beq.w	87805cf6 <UART_TransferHandleIRQ+0x316>
87805a80:	6923      	ldr	r3, [r4, #16]
87805a82:	2b00      	cmp	r3, #0
87805a84:	d02f      	beq.n	87805ae6 <UART_TransferHandleIRQ+0x106>
87805a86:	2702      	movs	r7, #2
87805a88:	6923      	ldr	r3, [r4, #16]
87805a8a:	4640      	mov	r0, r8
87805a8c:	4543      	cmp	r3, r8
87805a8e:	f080 810a 	bcs.w	87805ca6 <UART_TransferHandleIRQ+0x2c6>
87805a92:	6920      	ldr	r0, [r4, #16]
87805a94:	68e3      	ldr	r3, [r4, #12]
87805a96:	ebc0 0608 	rsb	r6, r0, r8
87805a9a:	f010 00ff 	ands.w	r0, r0, #255	; 0xff
87805a9e:	b2f6      	uxtb	r6, r6
87805aa0:	d005      	beq.n	87805aae <UART_TransferHandleIRQ+0xce>
87805aa2:	1819      	adds	r1, r3, r0
87805aa4:	682a      	ldr	r2, [r5, #0]
87805aa6:	f803 2b01 	strb.w	r2, [r3], #1
87805aaa:	428b      	cmp	r3, r1
87805aac:	d1fa      	bne.n	87805aa4 <UART_TransferHandleIRQ+0xc4>
87805aae:	68e3      	ldr	r3, [r4, #12]
87805ab0:	46b0      	mov	r8, r6
87805ab2:	4403      	add	r3, r0
87805ab4:	60e3      	str	r3, [r4, #12]
87805ab6:	6923      	ldr	r3, [r4, #16]
87805ab8:	1a18      	subs	r0, r3, r0
87805aba:	6120      	str	r0, [r4, #16]
87805abc:	6923      	ldr	r3, [r4, #16]
87805abe:	b963      	cbnz	r3, 87805ada <UART_TransferHandleIRQ+0xfa>
87805ac0:	f8d4 9024 	ldr.w	r9, [r4, #36]	; 0x24
87805ac4:	f884 702d 	strb.w	r7, [r4, #45]	; 0x2d
87805ac8:	f1b9 0f00 	cmp.w	r9, #0
87805acc:	d005      	beq.n	87805ada <UART_TransferHandleIRQ+0xfa>
87805ace:	6aa3      	ldr	r3, [r4, #40]	; 0x28
87805ad0:	f640 22f3 	movw	r2, #2803	; 0xaf3
87805ad4:	4621      	mov	r1, r4
87805ad6:	4628      	mov	r0, r5
87805ad8:	47c8      	blx	r9
87805ada:	2e00      	cmp	r6, #0
87805adc:	f000 810b 	beq.w	87805cf6 <UART_TransferHandleIRQ+0x316>
87805ae0:	6923      	ldr	r3, [r4, #16]
87805ae2:	2b00      	cmp	r3, #0
87805ae4:	d1d0      	bne.n	87805a88 <UART_TransferHandleIRQ+0xa8>
87805ae6:	69a3      	ldr	r3, [r4, #24]
87805ae8:	2b00      	cmp	r3, #0
87805aea:	f000 8122 	beq.w	87805d32 <UART_TransferHandleIRQ+0x352>
87805aee:	2600      	movs	r6, #0
87805af0:	4637      	mov	r7, r6
87805af2:	e030      	b.n	87805b56 <UART_TransferHandleIRQ+0x176>
87805af4:	4620      	mov	r0, r4
87805af6:	f7ff fc27 	bl	87805348 <UART_TransferIsRxRingBufferFull>
87805afa:	b150      	cbz	r0, 87805b12 <UART_TransferHandleIRQ+0x132>
87805afc:	f8d4 9024 	ldr.w	r9, [r4, #36]	; 0x24
87805b00:	f1b9 0f00 	cmp.w	r9, #0
87805b04:	d005      	beq.n	87805b12 <UART_TransferHandleIRQ+0x132>
87805b06:	6aa3      	ldr	r3, [r4, #40]	; 0x28
87805b08:	f640 22f8 	movw	r2, #2808	; 0xaf8
87805b0c:	4621      	mov	r1, r4
87805b0e:	4628      	mov	r0, r5
87805b10:	47c8      	blx	r9
87805b12:	4620      	mov	r0, r4
87805b14:	f7ff fc18 	bl	87805348 <UART_TransferIsRxRingBufferFull>
87805b18:	b158      	cbz	r0, 87805b32 <UART_TransferHandleIRQ+0x152>
87805b1a:	8c63      	ldrh	r3, [r4, #34]	; 0x22
87805b1c:	69e2      	ldr	r2, [r4, #28]
87805b1e:	b29b      	uxth	r3, r3
87805b20:	3301      	adds	r3, #1
87805b22:	4293      	cmp	r3, r2
87805b24:	bf17      	itett	ne
87805b26:	8c63      	ldrhne	r3, [r4, #34]	; 0x22
87805b28:	8467      	strheq	r7, [r4, #34]	; 0x22
87805b2a:	3301      	addne	r3, #1
87805b2c:	b29b      	uxthne	r3, r3
87805b2e:	bf18      	it	ne
87805b30:	8463      	strhne	r3, [r4, #34]	; 0x22
87805b32:	8c23      	ldrh	r3, [r4, #32]
87805b34:	3601      	adds	r6, #1
87805b36:	6829      	ldr	r1, [r5, #0]
87805b38:	69a2      	ldr	r2, [r4, #24]
87805b3a:	b29b      	uxth	r3, r3
87805b3c:	54d1      	strb	r1, [r2, r3]
87805b3e:	8c23      	ldrh	r3, [r4, #32]
87805b40:	69e2      	ldr	r2, [r4, #28]
87805b42:	b29b      	uxth	r3, r3
87805b44:	3301      	adds	r3, #1
87805b46:	4293      	cmp	r3, r2
87805b48:	bf17      	itett	ne
87805b4a:	8c23      	ldrhne	r3, [r4, #32]
87805b4c:	8427      	strheq	r7, [r4, #32]
87805b4e:	3301      	addne	r3, #1
87805b50:	b29b      	uxthne	r3, r3
87805b52:	bf18      	it	ne
87805b54:	8423      	strhne	r3, [r4, #32]
87805b56:	4546      	cmp	r6, r8
87805b58:	d1cc      	bne.n	87805af4 <UART_TransferHandleIRQ+0x114>
87805b5a:	f8d5 3094 	ldr.w	r3, [r5, #148]	; 0x94
87805b5e:	05da      	lsls	r2, r3, #23
87805b60:	d552      	bpl.n	87805c08 <UART_TransferHandleIRQ+0x228>
87805b62:	f8d5 3084 	ldr.w	r3, [r5, #132]	; 0x84
87805b66:	071b      	lsls	r3, r3, #28
87805b68:	d54e      	bpl.n	87805c08 <UART_TransferHandleIRQ+0x228>
87805b6a:	2602      	movs	r6, #2
87805b6c:	e00e      	b.n	87805b8c <UART_TransferHandleIRQ+0x1ac>
87805b6e:	6923      	ldr	r3, [r4, #16]
87805b70:	b183      	cbz	r3, 87805b94 <UART_TransferHandleIRQ+0x1b4>
87805b72:	68e3      	ldr	r3, [r4, #12]
87805b74:	682a      	ldr	r2, [r5, #0]
87805b76:	701a      	strb	r2, [r3, #0]
87805b78:	68e3      	ldr	r3, [r4, #12]
87805b7a:	3301      	adds	r3, #1
87805b7c:	60e3      	str	r3, [r4, #12]
87805b7e:	6923      	ldr	r3, [r4, #16]
87805b80:	3b01      	subs	r3, #1
87805b82:	6123      	str	r3, [r4, #16]
87805b84:	6923      	ldr	r3, [r4, #16]
87805b86:	2b00      	cmp	r3, #0
87805b88:	f000 80b8 	beq.w	87805cfc <UART_TransferHandleIRQ+0x31c>
87805b8c:	f8d5 3098 	ldr.w	r3, [r5, #152]	; 0x98
87805b90:	07df      	lsls	r7, r3, #31
87805b92:	d4ec      	bmi.n	87805b6e <UART_TransferHandleIRQ+0x18e>
87805b94:	69a3      	ldr	r3, [r4, #24]
87805b96:	2600      	movs	r6, #0
87805b98:	2b00      	cmp	r3, #0
87805b9a:	d12d      	bne.n	87805bf8 <UART_TransferHandleIRQ+0x218>
87805b9c:	e0bd      	b.n	87805d1a <UART_TransferHandleIRQ+0x33a>
87805b9e:	4620      	mov	r0, r4
87805ba0:	f7ff fbd2 	bl	87805348 <UART_TransferIsRxRingBufferFull>
87805ba4:	b138      	cbz	r0, 87805bb6 <UART_TransferHandleIRQ+0x1d6>
87805ba6:	6a67      	ldr	r7, [r4, #36]	; 0x24
87805ba8:	b12f      	cbz	r7, 87805bb6 <UART_TransferHandleIRQ+0x1d6>
87805baa:	6aa3      	ldr	r3, [r4, #40]	; 0x28
87805bac:	f640 22f8 	movw	r2, #2808	; 0xaf8
87805bb0:	4621      	mov	r1, r4
87805bb2:	4628      	mov	r0, r5
87805bb4:	47b8      	blx	r7
87805bb6:	4620      	mov	r0, r4
87805bb8:	f7ff fbc6 	bl	87805348 <UART_TransferIsRxRingBufferFull>
87805bbc:	b158      	cbz	r0, 87805bd6 <UART_TransferHandleIRQ+0x1f6>
87805bbe:	8c63      	ldrh	r3, [r4, #34]	; 0x22
87805bc0:	69e2      	ldr	r2, [r4, #28]
87805bc2:	b29b      	uxth	r3, r3
87805bc4:	3301      	adds	r3, #1
87805bc6:	4293      	cmp	r3, r2
87805bc8:	bf17      	itett	ne
87805bca:	8c63      	ldrhne	r3, [r4, #34]	; 0x22
87805bcc:	8466      	strheq	r6, [r4, #34]	; 0x22
87805bce:	3301      	addne	r3, #1
87805bd0:	b29b      	uxthne	r3, r3
87805bd2:	bf18      	it	ne
87805bd4:	8463      	strhne	r3, [r4, #34]	; 0x22
87805bd6:	8c23      	ldrh	r3, [r4, #32]
87805bd8:	69a2      	ldr	r2, [r4, #24]
87805bda:	6829      	ldr	r1, [r5, #0]
87805bdc:	b29b      	uxth	r3, r3
87805bde:	54d1      	strb	r1, [r2, r3]
87805be0:	8c23      	ldrh	r3, [r4, #32]
87805be2:	69e2      	ldr	r2, [r4, #28]
87805be4:	b29b      	uxth	r3, r3
87805be6:	3301      	adds	r3, #1
87805be8:	4293      	cmp	r3, r2
87805bea:	bf17      	itett	ne
87805bec:	8c23      	ldrhne	r3, [r4, #32]
87805bee:	8426      	strheq	r6, [r4, #32]
87805bf0:	3301      	addne	r3, #1
87805bf2:	b29b      	uxthne	r3, r3
87805bf4:	bf18      	it	ne
87805bf6:	8423      	strhne	r3, [r4, #32]
87805bf8:	f8d5 3098 	ldr.w	r3, [r5, #152]	; 0x98
87805bfc:	07d8      	lsls	r0, r3, #31
87805bfe:	d4ce      	bmi.n	87805b9e <UART_TransferHandleIRQ+0x1be>
87805c00:	f44f 7380 	mov.w	r3, #256	; 0x100
87805c04:	f8c5 3094 	str.w	r3, [r5, #148]	; 0x94
87805c08:	f894 302d 	ldrb.w	r3, [r4, #45]	; 0x2d
87805c0c:	2b04      	cmp	r3, #4
87805c0e:	d04d      	beq.n	87805cac <UART_TransferHandleIRQ+0x2cc>
87805c10:	f894 302d 	ldrb.w	r3, [r4, #45]	; 0x2d
87805c14:	2b05      	cmp	r3, #5
87805c16:	d049      	beq.n	87805cac <UART_TransferHandleIRQ+0x2cc>
87805c18:	f8d5 3094 	ldr.w	r3, [r5, #148]	; 0x94
87805c1c:	0499      	lsls	r1, r3, #18
87805c1e:	d540      	bpl.n	87805ca2 <UART_TransferHandleIRQ+0x2c2>
87805c20:	f8d5 3080 	ldr.w	r3, [r5, #128]	; 0x80
87805c24:	049a      	lsls	r2, r3, #18
87805c26:	d53c      	bpl.n	87805ca2 <UART_TransferHandleIRQ+0x2c2>
87805c28:	f8d5 3090 	ldr.w	r3, [r5, #144]	; 0x90
87805c2c:	f413 4f7c 	tst.w	r3, #64512	; 0xfc00
87805c30:	d12a      	bne.n	87805c88 <UART_TransferHandleIRQ+0x2a8>
87805c32:	2701      	movs	r7, #1
87805c34:	6863      	ldr	r3, [r4, #4]
87805c36:	2b00      	cmp	r3, #0
87805c38:	d033      	beq.n	87805ca2 <UART_TransferHandleIRQ+0x2c2>
87805c3a:	f8d5 3090 	ldr.w	r3, [r5, #144]	; 0x90
87805c3e:	f413 4f7c 	tst.w	r3, #64512	; 0xfc00
87805c42:	d050      	beq.n	87805ce6 <UART_TransferHandleIRQ+0x306>
87805c44:	6863      	ldr	r3, [r4, #4]
87805c46:	4638      	mov	r0, r7
87805c48:	42bb      	cmp	r3, r7
87805c4a:	d251      	bcs.n	87805cf0 <UART_TransferHandleIRQ+0x310>
87805c4c:	6860      	ldr	r0, [r4, #4]
87805c4e:	6822      	ldr	r2, [r4, #0]
87805c50:	1a3e      	subs	r6, r7, r0
87805c52:	f010 00ff 	ands.w	r0, r0, #255	; 0xff
87805c56:	b2f6      	uxtb	r6, r6
87805c58:	d007      	beq.n	87805c6a <UART_TransferHandleIRQ+0x28a>
87805c5a:	3a01      	subs	r2, #1
87805c5c:	2300      	movs	r3, #0
87805c5e:	f812 1f01 	ldrb.w	r1, [r2, #1]!
87805c62:	3301      	adds	r3, #1
87805c64:	4283      	cmp	r3, r0
87805c66:	6429      	str	r1, [r5, #64]	; 0x40
87805c68:	d3f9      	bcc.n	87805c5e <UART_TransferHandleIRQ+0x27e>
87805c6a:	6823      	ldr	r3, [r4, #0]
87805c6c:	4637      	mov	r7, r6
87805c6e:	4403      	add	r3, r0
87805c70:	6023      	str	r3, [r4, #0]
87805c72:	6863      	ldr	r3, [r4, #4]
87805c74:	1a18      	subs	r0, r3, r0
87805c76:	6060      	str	r0, [r4, #4]
87805c78:	6863      	ldr	r3, [r4, #4]
87805c7a:	b313      	cbz	r3, 87805cc2 <UART_TransferHandleIRQ+0x2e2>
87805c7c:	b18e      	cbz	r6, 87805ca2 <UART_TransferHandleIRQ+0x2c2>
87805c7e:	6863      	ldr	r3, [r4, #4]
87805c80:	2b00      	cmp	r3, #0
87805c82:	d1da      	bne.n	87805c3a <UART_TransferHandleIRQ+0x25a>
87805c84:	e8bd 83f8 	ldmia.w	sp!, {r3, r4, r5, r6, r7, r8, r9, pc}
87805c88:	f8d5 30b4 	ldr.w	r3, [r5, #180]	; 0xb4
87805c8c:	065b      	lsls	r3, r3, #25
87805c8e:	d442      	bmi.n	87805d16 <UART_TransferHandleIRQ+0x336>
87805c90:	f8d5 7090 	ldr.w	r7, [r5, #144]	; 0x90
87805c94:	f3c7 2785 	ubfx	r7, r7, #10, #6
87805c98:	f1c7 0720 	rsb	r7, r7, #32
87805c9c:	f017 07ff 	ands.w	r7, r7, #255	; 0xff
87805ca0:	d1c8      	bne.n	87805c34 <UART_TransferHandleIRQ+0x254>
87805ca2:	e8bd 83f8 	ldmia.w	sp!, {r3, r4, r5, r6, r7, r8, r9, pc}
87805ca6:	2600      	movs	r6, #0
87805ca8:	68e3      	ldr	r3, [r4, #12]
87805caa:	e6fa      	b.n	87805aa2 <UART_TransferHandleIRQ+0xc2>
87805cac:	69a3      	ldr	r3, [r4, #24]
87805cae:	2b00      	cmp	r3, #0
87805cb0:	d1b2      	bne.n	87805c18 <UART_TransferHandleIRQ+0x238>
87805cb2:	f246 4108 	movw	r1, #25608	; 0x6408
87805cb6:	4628      	mov	r0, r5
87805cb8:	f2c1 0100 	movt	r1, #4096	; 0x1000
87805cbc:	f7ff fe0a 	bl	878058d4 <UART_DisableInterrupts>
87805cc0:	e7aa      	b.n	87805c18 <UART_TransferHandleIRQ+0x238>
87805cc2:	f884 302c 	strb.w	r3, [r4, #44]	; 0x2c
87805cc6:	2102      	movs	r1, #2
87805cc8:	4628      	mov	r0, r5
87805cca:	f7ff fe03 	bl	878058d4 <UART_DisableInterrupts>
87805cce:	f8d4 8024 	ldr.w	r8, [r4, #36]	; 0x24
87805cd2:	f1b8 0f00 	cmp.w	r8, #0
87805cd6:	d0d1      	beq.n	87805c7c <UART_TransferHandleIRQ+0x29c>
87805cd8:	6aa3      	ldr	r3, [r4, #40]	; 0x28
87805cda:	f640 22f2 	movw	r2, #2802	; 0xaf2
87805cde:	4621      	mov	r1, r4
87805ce0:	4628      	mov	r0, r5
87805ce2:	47c0      	blx	r8
87805ce4:	e7ca      	b.n	87805c7c <UART_TransferHandleIRQ+0x29c>
87805ce6:	1e7e      	subs	r6, r7, #1
87805ce8:	6822      	ldr	r2, [r4, #0]
87805cea:	b2f6      	uxtb	r6, r6
87805cec:	2001      	movs	r0, #1
87805cee:	e7b4      	b.n	87805c5a <UART_TransferHandleIRQ+0x27a>
87805cf0:	2600      	movs	r6, #0
87805cf2:	6822      	ldr	r2, [r4, #0]
87805cf4:	e7b1      	b.n	87805c5a <UART_TransferHandleIRQ+0x27a>
87805cf6:	f04f 0800 	mov.w	r8, #0
87805cfa:	e6f4      	b.n	87805ae6 <UART_TransferHandleIRQ+0x106>
87805cfc:	6a67      	ldr	r7, [r4, #36]	; 0x24
87805cfe:	f884 602d 	strb.w	r6, [r4, #45]	; 0x2d
87805d02:	2f00      	cmp	r7, #0
87805d04:	f43f af42 	beq.w	87805b8c <UART_TransferHandleIRQ+0x1ac>
87805d08:	6aa3      	ldr	r3, [r4, #40]	; 0x28
87805d0a:	f640 22f3 	movw	r2, #2803	; 0xaf3
87805d0e:	4621      	mov	r1, r4
87805d10:	4628      	mov	r0, r5
87805d12:	47b8      	blx	r7
87805d14:	e73a      	b.n	87805b8c <UART_TransferHandleIRQ+0x1ac>
87805d16:	2720      	movs	r7, #32
87805d18:	e78c      	b.n	87805c34 <UART_TransferHandleIRQ+0x254>
87805d1a:	6923      	ldr	r3, [r4, #16]
87805d1c:	2b00      	cmp	r3, #0
87805d1e:	f47f af6f 	bne.w	87805c00 <UART_TransferHandleIRQ+0x220>
87805d22:	f246 4108 	movw	r1, #25608	; 0x6408
87805d26:	4628      	mov	r0, r5
87805d28:	f2c1 0100 	movt	r1, #4096	; 0x1000
87805d2c:	f7ff fdd2 	bl	878058d4 <UART_DisableInterrupts>
87805d30:	e766      	b.n	87805c00 <UART_TransferHandleIRQ+0x220>
87805d32:	6923      	ldr	r3, [r4, #16]
87805d34:	2b00      	cmp	r3, #0
87805d36:	f47f af10 	bne.w	87805b5a <UART_TransferHandleIRQ+0x17a>
87805d3a:	f246 4108 	movw	r1, #25608	; 0x6408
87805d3e:	4628      	mov	r0, r5
87805d40:	f2c1 0100 	movt	r1, #4096	; 0x1000
87805d44:	f7ff fdc6 	bl	878058d4 <UART_DisableInterrupts>
87805d48:	e707      	b.n	87805b5a <UART_TransferHandleIRQ+0x17a>
87805d4a:	bf00      	nop

87805d4c <UART_GetEnabledInterrupts>:
87805d4c:	f8d0 3080 	ldr.w	r3, [r0, #128]	; 0x80
87805d50:	e92d 4ff0 	stmdb	sp!, {r4, r5, r6, r7, r8, r9, sl, fp, lr}
87805d54:	b08b      	sub	sp, #44	; 0x2c
87805d56:	f8d0 6080 	ldr.w	r6, [r0, #128]	; 0x80
87805d5a:	f3c3 32c0 	ubfx	r2, r3, #15, #1
87805d5e:	f8d0 5080 	ldr.w	r5, [r0, #128]	; 0x80
87805d62:	f8d0 4080 	ldr.w	r4, [r0, #128]	; 0x80
87805d66:	f3c6 3a40 	ubfx	sl, r6, #13, #1
87805d6a:	f8d0 1080 	ldr.w	r1, [r0, #128]	; 0x80
87805d6e:	f3c5 3500 	ubfx	r5, r5, #12, #1
87805d72:	f8d0 3080 	ldr.w	r3, [r0, #128]	; 0x80
87805d76:	9500      	str	r5, [sp, #0]
87805d78:	f3c4 2440 	ubfx	r4, r4, #9, #1
87805d7c:	f8d0 5084 	ldr.w	r5, [r0, #132]	; 0x84
87805d80:	f3c1 1180 	ubfx	r1, r1, #6, #1
87805d84:	9401      	str	r4, [sp, #4]
87805d86:	f003 0b20 	and.w	fp, r3, #32
87805d8a:	f8d0 4084 	ldr.w	r4, [r0, #132]	; 0x84
87805d8e:	9102      	str	r1, [sp, #8]
87805d90:	f3c5 36c0 	ubfx	r6, r5, #15, #1
87805d94:	f8d0 1084 	ldr.w	r1, [r0, #132]	; 0x84
87805d98:	f8d0 3088 	ldr.w	r3, [r0, #136]	; 0x88
87805d9c:	f3c4 1700 	ubfx	r7, r4, #4, #1
87805da0:	9603      	str	r6, [sp, #12]
87805da2:	f8d0 6088 	ldr.w	r6, [r0, #136]	; 0x88
87805da6:	f3c1 01c0 	ubfx	r1, r1, #3, #1
87805daa:	f3c3 3340 	ubfx	r3, r3, #13, #1
87805dae:	f8d0 4088 	ldr.w	r4, [r0, #136]	; 0x88
87805db2:	9306      	str	r3, [sp, #24]
87805db4:	f3c6 3300 	ubfx	r3, r6, #12, #1
87805db8:	9105      	str	r1, [sp, #20]
87805dba:	9307      	str	r3, [sp, #28]
87805dbc:	f3c4 24c0 	ubfx	r4, r4, #11, #1
87805dc0:	f8d0 1088 	ldr.w	r1, [r0, #136]	; 0x88
87805dc4:	f8d0 5088 	ldr.w	r5, [r0, #136]	; 0x88
87805dc8:	f8d0 3088 	ldr.w	r3, [r0, #136]	; 0x88
87805dcc:	9704      	str	r7, [sp, #16]
87805dce:	f3c1 2640 	ubfx	r6, r1, #9, #1
87805dd2:	9408      	str	r4, [sp, #32]
87805dd4:	f3c5 2900 	ubfx	r9, r5, #8, #1
87805dd8:	f8d0 4088 	ldr.w	r4, [r0, #136]	; 0x88
87805ddc:	f3c3 1880 	ubfx	r8, r3, #6, #1
87805de0:	f8d0 1088 	ldr.w	r1, [r0, #136]	; 0x88
87805de4:	f8d0 7088 	ldr.w	r7, [r0, #136]	; 0x88
87805de8:	f8d0 3088 	ldr.w	r3, [r0, #136]	; 0x88
87805dec:	f3c4 1c40 	ubfx	ip, r4, #5, #1
87805df0:	9609      	str	r6, [sp, #36]	; 0x24
87805df2:	f3c1 1e00 	ubfx	lr, r1, #4, #1
87805df6:	f8d0 608c 	ldr.w	r6, [r0, #140]	; 0x8c
87805dfa:	f3c7 07c0 	ubfx	r7, r7, #3, #1
87805dfe:	f003 0301 	and.w	r3, r3, #1
87805e02:	f8d0 508c 	ldr.w	r5, [r0, #140]	; 0x8c
87805e06:	ea42 5343 	orr.w	r3, r2, r3, lsl #21
87805e0a:	f8d0 408c 	ldr.w	r4, [r0, #140]	; 0x8c
87805e0e:	f8d0 108c 	ldr.w	r1, [r0, #140]	; 0x8c
87805e12:	f3c6 2600 	ubfx	r6, r6, #8, #1
87805e16:	f8d0 208c 	ldr.w	r2, [r0, #140]	; 0x8c
87805e1a:	ea43 030b 	orr.w	r3, r3, fp
87805e1e:	f8d0 008c 	ldr.w	r0, [r0, #140]	; 0x8c
87805e22:	f3c5 15c0 	ubfx	r5, r5, #7, #1
87805e26:	f3c4 04c0 	ubfx	r4, r4, #3, #1
87805e2a:	f3c1 0180 	ubfx	r1, r1, #2, #1
87805e2e:	f3c2 0240 	ubfx	r2, r2, #1, #1
87805e32:	f000 0001 	and.w	r0, r0, #1
87805e36:	ea43 7340 	orr.w	r3, r3, r0, lsl #29
87805e3a:	9800      	ldr	r0, [sp, #0]
87805e3c:	ea43 034a 	orr.w	r3, r3, sl, lsl #1
87805e40:	ea43 0380 	orr.w	r3, r3, r0, lsl #2
87805e44:	9801      	ldr	r0, [sp, #4]
87805e46:	ea43 03c0 	orr.w	r3, r3, r0, lsl #3
87805e4a:	9802      	ldr	r0, [sp, #8]
87805e4c:	ea43 1300 	orr.w	r3, r3, r0, lsl #4
87805e50:	9803      	ldr	r0, [sp, #12]
87805e52:	ea43 2300 	orr.w	r3, r3, r0, lsl #8
87805e56:	9804      	ldr	r0, [sp, #16]
87805e58:	ea43 2340 	orr.w	r3, r3, r0, lsl #9
87805e5c:	9805      	ldr	r0, [sp, #20]
87805e5e:	ea43 2380 	orr.w	r3, r3, r0, lsl #10
87805e62:	9806      	ldr	r0, [sp, #24]
87805e64:	ea43 3300 	orr.w	r3, r3, r0, lsl #12
87805e68:	9807      	ldr	r0, [sp, #28]
87805e6a:	ea43 3340 	orr.w	r3, r3, r0, lsl #13
87805e6e:	9808      	ldr	r0, [sp, #32]
87805e70:	ea43 3380 	orr.w	r3, r3, r0, lsl #14
87805e74:	9809      	ldr	r0, [sp, #36]	; 0x24
87805e76:	ea43 33c0 	orr.w	r3, r3, r0, lsl #15
87805e7a:	ea43 4909 	orr.w	r9, r3, r9, lsl #16
87805e7e:	ea49 4848 	orr.w	r8, r9, r8, lsl #17
87805e82:	ea48 4c8c 	orr.w	ip, r8, ip, lsl #18
87805e86:	ea4c 4ece 	orr.w	lr, ip, lr, lsl #19
87805e8a:	ea4e 5707 	orr.w	r7, lr, r7, lsl #20
87805e8e:	ea47 6606 	orr.w	r6, r7, r6, lsl #24
87805e92:	ea46 6545 	orr.w	r5, r6, r5, lsl #25
87805e96:	ea45 6484 	orr.w	r4, r5, r4, lsl #26
87805e9a:	ea44 60c1 	orr.w	r0, r4, r1, lsl #27
87805e9e:	ea40 7002 	orr.w	r0, r0, r2, lsl #28
87805ea2:	b00b      	add	sp, #44	; 0x2c
87805ea4:	e8bd 8ff0 	ldmia.w	sp!, {r4, r5, r6, r7, r8, r9, sl, fp, pc}

87805ea8 <UART_GetStatusFlag>:
87805ea8:	0c0b      	lsrs	r3, r1, #16
87805eaa:	f001 011f 	and.w	r1, r1, #31
87805eae:	58c0      	ldr	r0, [r0, r3]
87805eb0:	40c8      	lsrs	r0, r1
87805eb2:	f000 0001 	and.w	r0, r0, #1
87805eb6:	4770      	bx	lr

87805eb8 <UART_ClearStatusFlag>:
87805eb8:	f001 021f 	and.w	r2, r1, #31
87805ebc:	2301      	movs	r3, #1
87805ebe:	0c09      	lsrs	r1, r1, #16
87805ec0:	4093      	lsls	r3, r2
87805ec2:	5043      	str	r3, [r0, r1]
87805ec4:	4770      	bx	lr
87805ec6:	bf00      	nop

87805ec8 <UART_EnableDMA>:
87805ec8:	b410      	push	{r4}
87805eca:	2301      	movs	r3, #1
87805ecc:	f001 041f 	and.w	r4, r1, #31
87805ed0:	0c09      	lsrs	r1, r1, #16
87805ed2:	40a3      	lsls	r3, r4
87805ed4:	b932      	cbnz	r2, 87805ee4 <UART_EnableDMA+0x1c>
87805ed6:	5842      	ldr	r2, [r0, r1]
87805ed8:	f85d 4b04 	ldr.w	r4, [sp], #4
87805edc:	ea22 0303 	bic.w	r3, r2, r3
87805ee0:	5043      	str	r3, [r0, r1]
87805ee2:	4770      	bx	lr
87805ee4:	5842      	ldr	r2, [r0, r1]
87805ee6:	f85d 4b04 	ldr.w	r4, [sp], #4
87805eea:	4313      	orrs	r3, r2
87805eec:	5043      	str	r3, [r0, r1]
87805eee:	4770      	bx	lr

87805ef0 <UART_WriteBlocking>:
87805ef0:	b14a      	cbz	r2, 87805f06 <UART_WriteBlocking+0x16>
87805ef2:	440a      	add	r2, r1
87805ef4:	f8d0 3098 	ldr.w	r3, [r0, #152]	; 0x98
87805ef8:	071b      	lsls	r3, r3, #28
87805efa:	d5fb      	bpl.n	87805ef4 <UART_WriteBlocking+0x4>
87805efc:	f811 3b01 	ldrb.w	r3, [r1], #1
87805f00:	4291      	cmp	r1, r2
87805f02:	6403      	str	r3, [r0, #64]	; 0x40
87805f04:	d1f6      	bne.n	87805ef4 <UART_WriteBlocking+0x4>
87805f06:	4770      	bx	lr

87805f08 <UART_ReadBlocking>:
87805f08:	4603      	mov	r3, r0
87805f0a:	b962      	cbnz	r2, 87805f26 <UART_ReadBlocking+0x1e>
87805f0c:	e014      	b.n	87805f38 <UART_ReadBlocking+0x30>
87805f0e:	f8d3 0094 	ldr.w	r0, [r3, #148]	; 0x94
87805f12:	0400      	lsls	r0, r0, #16
87805f14:	d412      	bmi.n	87805f3c <UART_ReadBlocking+0x34>
87805f16:	f8d3 0094 	ldr.w	r0, [r3, #148]	; 0x94
87805f1a:	0540      	lsls	r0, r0, #21
87805f1c:	d415      	bmi.n	87805f4a <UART_ReadBlocking+0x42>
87805f1e:	f8d3 0098 	ldr.w	r0, [r3, #152]	; 0x98
87805f22:	0780      	lsls	r0, r0, #30
87805f24:	d418      	bmi.n	87805f58 <UART_ReadBlocking+0x50>
87805f26:	f8d3 0098 	ldr.w	r0, [r3, #152]	; 0x98
87805f2a:	07c0      	lsls	r0, r0, #31
87805f2c:	d5ef      	bpl.n	87805f0e <UART_ReadBlocking+0x6>
87805f2e:	6818      	ldr	r0, [r3, #0]
87805f30:	3a01      	subs	r2, #1
87805f32:	f801 0b01 	strb.w	r0, [r1], #1
87805f36:	d1f6      	bne.n	87805f26 <UART_ReadBlocking+0x1e>
87805f38:	2000      	movs	r0, #0
87805f3a:	4770      	bx	lr
87805f3c:	f44f 4200 	mov.w	r2, #32768	; 0x8000
87805f40:	f640 20fc 	movw	r0, #2812	; 0xafc
87805f44:	f8c3 2094 	str.w	r2, [r3, #148]	; 0x94
87805f48:	4770      	bx	lr
87805f4a:	f44f 6280 	mov.w	r2, #1024	; 0x400
87805f4e:	f640 20fb 	movw	r0, #2811	; 0xafb
87805f52:	f8c3 2094 	str.w	r2, [r3, #148]	; 0x94
87805f56:	4770      	bx	lr
87805f58:	2202      	movs	r2, #2
87805f5a:	f640 20f9 	movw	r0, #2809	; 0xaf9
87805f5e:	f8c3 2098 	str.w	r2, [r3, #152]	; 0x98
87805f62:	4770      	bx	lr

87805f64 <UART_TransferCreateHandle>:
87805f64:	e92d 41f0 	stmdb	sp!, {r4, r5, r6, r7, r8, lr}
87805f68:	460d      	mov	r5, r1
87805f6a:	4690      	mov	r8, r2
87805f6c:	4604      	mov	r4, r0
87805f6e:	2230      	movs	r2, #48	; 0x30
87805f70:	4608      	mov	r0, r1
87805f72:	2100      	movs	r1, #0
87805f74:	461f      	mov	r7, r3
87805f76:	f000 ff11 	bl	87806d9c <memset>
87805f7a:	491c      	ldr	r1, [pc, #112]	; (87805fec <UART_TransferCreateHandle+0x88>)
87805f7c:	2000      	movs	r0, #0
87805f7e:	4602      	mov	r2, r0
87805f80:	2602      	movs	r6, #2
87805f82:	f885 602d 	strb.w	r6, [r5, #45]	; 0x2d
87805f86:	f8c5 8024 	str.w	r8, [r5, #36]	; 0x24
87805f8a:	62af      	str	r7, [r5, #40]	; 0x28
87805f8c:	f885 002c 	strb.w	r0, [r5, #44]	; 0x2c
87805f90:	f851 3f04 	ldr.w	r3, [r1, #4]!
87805f94:	429c      	cmp	r4, r3
87805f96:	d027      	beq.n	87805fe8 <UART_TransferCreateHandle+0x84>
87805f98:	3201      	adds	r2, #1
87805f9a:	2a09      	cmp	r2, #9
87805f9c:	d1f8      	bne.n	87805f90 <UART_TransferCreateHandle+0x2c>
87805f9e:	2408      	movs	r4, #8
87805fa0:	f24e 2388 	movw	r3, #57992	; 0xe288
87805fa4:	f24e 5138 	movw	r1, #58680	; 0xe538
87805fa8:	f2c8 7380 	movt	r3, #34688	; 0x8780
87805fac:	f645 10e1 	movw	r0, #23009	; 0x59e1
87805fb0:	eb03 0282 	add.w	r2, r3, r2, lsl #2
87805fb4:	f2c8 7180 	movt	r1, #34688	; 0x8780
87805fb8:	f2c8 7080 	movt	r0, #34688	; 0x8780
87805fbc:	f841 5024 	str.w	r5, [r1, r4, lsl #2]
87805fc0:	6e13      	ldr	r3, [r2, #96]	; 0x60
87805fc2:	6208      	str	r0, [r1, #32]
87805fc4:	f113 0f80 	cmn.w	r3, #128	; 0x80
87805fc8:	d00c      	beq.n	87805fe4 <UART_TransferCreateHandle+0x80>
87805fca:	ee9f 2f10 	mrc	15, 4, r2, cr15, cr0, {0}
87805fce:	0c12      	lsrs	r2, r2, #16
87805fd0:	0959      	lsrs	r1, r3, #5
87805fd2:	2001      	movs	r0, #1
87805fd4:	f003 031f 	and.w	r3, r3, #31
87805fd8:	4098      	lsls	r0, r3
87805fda:	0412      	lsls	r2, r2, #16
87805fdc:	f501 6388 	add.w	r3, r1, #1088	; 0x440
87805fe0:	f842 0023 	str.w	r0, [r2, r3, lsl #2]
87805fe4:	e8bd 81f0 	ldmia.w	sp!, {r4, r5, r6, r7, r8, pc}
87805fe8:	1e54      	subs	r4, r2, #1
87805fea:	e7d9      	b.n	87805fa0 <UART_TransferCreateHandle+0x3c>
87805fec:	8780e284 	strhi	lr, [r0, r4, lsl #5]

87805ff0 <UART_TransferStartRingBuffer>:
87805ff0:	b430      	push	{r4, r5}
87805ff2:	460c      	mov	r4, r1
87805ff4:	2500      	movs	r5, #0
87805ff6:	f246 4108 	movw	r1, #25608	; 0x6408
87805ffa:	f2c1 0100 	movt	r1, #4096	; 0x1000
87805ffe:	8425      	strh	r5, [r4, #32]
87806000:	61a2      	str	r2, [r4, #24]
87806002:	61e3      	str	r3, [r4, #28]
87806004:	8465      	strh	r5, [r4, #34]	; 0x22
87806006:	bc30      	pop	{r4, r5}
87806008:	f7ff bbe2 	b.w	878057d0 <UART_EnableInterrupts>

8780600c <UART_TransferStopRingBuffer>:
8780600c:	b510      	push	{r4, lr}
8780600e:	460c      	mov	r4, r1
87806010:	f891 302d 	ldrb.w	r3, [r1, #45]	; 0x2d
87806014:	2b02      	cmp	r3, #2
87806016:	d005      	beq.n	87806024 <UART_TransferStopRingBuffer+0x18>
87806018:	2300      	movs	r3, #0
8780601a:	8423      	strh	r3, [r4, #32]
8780601c:	61a3      	str	r3, [r4, #24]
8780601e:	61e3      	str	r3, [r4, #28]
87806020:	8463      	strh	r3, [r4, #34]	; 0x22
87806022:	bd10      	pop	{r4, pc}
87806024:	f246 4108 	movw	r1, #25608	; 0x6408
87806028:	f2c1 0100 	movt	r1, #4096	; 0x1000
8780602c:	f7ff fc52 	bl	878058d4 <UART_DisableInterrupts>
87806030:	e7f2      	b.n	87806018 <UART_TransferStopRingBuffer+0xc>
87806032:	bf00      	nop

87806034 <UART_TransferSendNonBlocking>:
87806034:	b538      	push	{r3, r4, r5, lr}
87806036:	f891 302c 	ldrb.w	r3, [r1, #44]	; 0x2c
8780603a:	2b01      	cmp	r3, #1
8780603c:	d102      	bne.n	87806044 <UART_TransferSendNonBlocking+0x10>
8780603e:	f44f 602f 	mov.w	r0, #2800	; 0xaf0
87806042:	bd38      	pop	{r3, r4, r5, pc}
87806044:	6815      	ldr	r5, [r2, #0]
87806046:	460b      	mov	r3, r1
87806048:	6852      	ldr	r2, [r2, #4]
8780604a:	2401      	movs	r4, #1
8780604c:	2102      	movs	r1, #2
8780604e:	601d      	str	r5, [r3, #0]
87806050:	609a      	str	r2, [r3, #8]
87806052:	605a      	str	r2, [r3, #4]
87806054:	f883 402c 	strb.w	r4, [r3, #44]	; 0x2c
87806058:	f7ff fbba 	bl	878057d0 <UART_EnableInterrupts>
8780605c:	2000      	movs	r0, #0
8780605e:	bd38      	pop	{r3, r4, r5, pc}

87806060 <UART_TransferAbortSend>:
87806060:	b510      	push	{r4, lr}
87806062:	460c      	mov	r4, r1
87806064:	2110      	movs	r1, #16
87806066:	f7ff fc35 	bl	878058d4 <UART_DisableInterrupts>
8780606a:	2300      	movs	r3, #0
8780606c:	6063      	str	r3, [r4, #4]
8780606e:	f884 302c 	strb.w	r3, [r4, #44]	; 0x2c
87806072:	bd10      	pop	{r4, pc}

87806074 <UART_TransferGetSendCount>:
87806074:	f891 302c 	ldrb.w	r3, [r1, #44]	; 0x2c
87806078:	b90b      	cbnz	r3, 8780607e <UART_TransferGetSendCount+0xa>
8780607a:	2006      	movs	r0, #6
8780607c:	4770      	bx	lr
8780607e:	b410      	push	{r4}
87806080:	2000      	movs	r0, #0
87806082:	684c      	ldr	r4, [r1, #4]
87806084:	688b      	ldr	r3, [r1, #8]
87806086:	1b1b      	subs	r3, r3, r4
87806088:	f85d 4b04 	ldr.w	r4, [sp], #4
8780608c:	6013      	str	r3, [r2, #0]
8780608e:	4770      	bx	lr

87806090 <UART_TransferReceiveNonBlocking>:
87806090:	e92d 43f8 	stmdb	sp!, {r3, r4, r5, r6, r7, r8, r9, lr}
87806094:	f891 402d 	ldrb.w	r4, [r1, #45]	; 0x2d
87806098:	2c03      	cmp	r4, #3
8780609a:	d05b      	beq.n	87806154 <UART_TransferReceiveNonBlocking+0xc4>
8780609c:	698d      	ldr	r5, [r1, #24]
8780609e:	461e      	mov	r6, r3
878060a0:	4690      	mov	r8, r2
878060a2:	460c      	mov	r4, r1
878060a4:	f8d2 9004 	ldr.w	r9, [r2, #4]
878060a8:	2d00      	cmp	r5, #0
878060aa:	d068      	beq.n	8780617e <UART_TransferReceiveNonBlocking+0xee>
878060ac:	f44f 6181 	mov.w	r1, #1032	; 0x408
878060b0:	4607      	mov	r7, r0
878060b2:	f7ff fc0f 	bl	878058d4 <UART_DisableInterrupts>
878060b6:	8c62      	ldrh	r2, [r4, #34]	; 0x22
878060b8:	8c23      	ldrh	r3, [r4, #32]
878060ba:	b292      	uxth	r2, r2
878060bc:	b29b      	uxth	r3, r3
878060be:	429a      	cmp	r2, r3
878060c0:	bf91      	iteee	ls
878060c2:	8c25      	ldrhls	r5, [r4, #32]
878060c4:	8c23      	ldrhhi	r3, [r4, #32]
878060c6:	69e2      	ldrhi	r2, [r4, #28]
878060c8:	8c65      	ldrhhi	r5, [r4, #34]	; 0x22
878060ca:	bf99      	ittee	ls
878060cc:	8c62      	ldrhls	r2, [r4, #34]	; 0x22
878060ce:	b2ab      	uxthls	r3, r5
878060d0:	fa12 f383 	uxtahhi	r3, r2, r3
878060d4:	b2ad      	uxthhi	r5, r5
878060d6:	bf98      	it	ls
878060d8:	b295      	uxthls	r5, r2
878060da:	1b5d      	subs	r5, r3, r5
878060dc:	b315      	cbz	r5, 87806124 <UART_TransferReceiveNonBlocking+0x94>
878060de:	454d      	cmp	r5, r9
878060e0:	bf28      	it	cs
878060e2:	464d      	movcs	r5, r9
878060e4:	ebc5 0909 	rsb	r9, r5, r9
878060e8:	b1e5      	cbz	r5, 87806124 <UART_TransferReceiveNonBlocking+0x94>
878060ea:	2100      	movs	r1, #0
878060ec:	468e      	mov	lr, r1
878060ee:	f8b4 c022 	ldrh.w	ip, [r4, #34]	; 0x22
878060f2:	1c48      	adds	r0, r1, #1
878060f4:	69a2      	ldr	r2, [r4, #24]
878060f6:	f8d8 3000 	ldr.w	r3, [r8]
878060fa:	fa1f fc8c 	uxth.w	ip, ip
878060fe:	f812 200c 	ldrb.w	r2, [r2, ip]
87806102:	545a      	strb	r2, [r3, r1]
87806104:	8c61      	ldrh	r1, [r4, #34]	; 0x22
87806106:	69e3      	ldr	r3, [r4, #28]
87806108:	b289      	uxth	r1, r1
8780610a:	3101      	adds	r1, #1
8780610c:	4299      	cmp	r1, r3
8780610e:	4601      	mov	r1, r0
87806110:	bf17      	itett	ne
87806112:	8c63      	ldrhne	r3, [r4, #34]	; 0x22
87806114:	f8a4 e022 	strheq.w	lr, [r4, #34]	; 0x22
87806118:	3301      	addne	r3, #1
8780611a:	b29b      	uxthne	r3, r3
8780611c:	bf18      	it	ne
8780611e:	8463      	strhne	r3, [r4, #34]	; 0x22
87806120:	42a8      	cmp	r0, r5
87806122:	d1e4      	bne.n	878060ee <UART_TransferReceiveNonBlocking+0x5e>
87806124:	f1b9 0f00 	cmp.w	r9, #0
87806128:	d018      	beq.n	8780615c <UART_TransferReceiveNonBlocking+0xcc>
8780612a:	f8d8 3000 	ldr.w	r3, [r8]
8780612e:	2203      	movs	r2, #3
87806130:	f8c4 9014 	str.w	r9, [r4, #20]
87806134:	4638      	mov	r0, r7
87806136:	f44f 6181 	mov.w	r1, #1032	; 0x408
8780613a:	442b      	add	r3, r5
8780613c:	60e3      	str	r3, [r4, #12]
8780613e:	f8c4 9010 	str.w	r9, [r4, #16]
87806142:	f884 202d 	strb.w	r2, [r4, #45]	; 0x2d
87806146:	f7ff fb43 	bl	878057d0 <UART_EnableInterrupts>
8780614a:	b106      	cbz	r6, 8780614e <UART_TransferReceiveNonBlocking+0xbe>
8780614c:	6035      	str	r5, [r6, #0]
8780614e:	2000      	movs	r0, #0
87806150:	e8bd 83f8 	ldmia.w	sp!, {r3, r4, r5, r6, r7, r8, r9, pc}
87806154:	f640 20f1 	movw	r0, #2801	; 0xaf1
87806158:	e8bd 83f8 	ldmia.w	sp!, {r3, r4, r5, r6, r7, r8, r9, pc}
8780615c:	f44f 6181 	mov.w	r1, #1032	; 0x408
87806160:	4638      	mov	r0, r7
87806162:	f7ff fb35 	bl	878057d0 <UART_EnableInterrupts>
87806166:	f8d4 8024 	ldr.w	r8, [r4, #36]	; 0x24
8780616a:	f1b8 0f00 	cmp.w	r8, #0
8780616e:	d0ec      	beq.n	8780614a <UART_TransferReceiveNonBlocking+0xba>
87806170:	4638      	mov	r0, r7
87806172:	6aa3      	ldr	r3, [r4, #40]	; 0x28
87806174:	4621      	mov	r1, r4
87806176:	f640 22f3 	movw	r2, #2803	; 0xaf3
8780617a:	47c0      	blx	r8
8780617c:	e7e5      	b.n	8780614a <UART_TransferReceiveNonBlocking+0xba>
8780617e:	6812      	ldr	r2, [r2, #0]
87806180:	2303      	movs	r3, #3
87806182:	f246 4108 	movw	r1, #25608	; 0x6408
87806186:	f8c4 9014 	str.w	r9, [r4, #20]
8780618a:	f2c1 0100 	movt	r1, #4096	; 0x1000
8780618e:	60e2      	str	r2, [r4, #12]
87806190:	f8c4 9010 	str.w	r9, [r4, #16]
87806194:	f884 302d 	strb.w	r3, [r4, #45]	; 0x2d
87806198:	f7ff fb1a 	bl	878057d0 <UART_EnableInterrupts>
8780619c:	e7d5      	b.n	8780614a <UART_TransferReceiveNonBlocking+0xba>
8780619e:	bf00      	nop

878061a0 <UART_TransferAbortReceive>:
878061a0:	698b      	ldr	r3, [r1, #24]
878061a2:	b510      	push	{r4, lr}
878061a4:	460c      	mov	r4, r1
878061a6:	b12b      	cbz	r3, 878061b4 <UART_TransferAbortReceive+0x14>
878061a8:	2200      	movs	r2, #0
878061aa:	2302      	movs	r3, #2
878061ac:	6122      	str	r2, [r4, #16]
878061ae:	f884 302d 	strb.w	r3, [r4, #45]	; 0x2d
878061b2:	bd10      	pop	{r4, pc}
878061b4:	f246 4108 	movw	r1, #25608	; 0x6408
878061b8:	f2c1 0100 	movt	r1, #4096	; 0x1000
878061bc:	f7ff fb8a 	bl	878058d4 <UART_DisableInterrupts>
878061c0:	e7f2      	b.n	878061a8 <UART_TransferAbortReceive+0x8>
878061c2:	bf00      	nop

878061c4 <UART_TransferGetReceiveCount>:
878061c4:	f891 302d 	ldrb.w	r3, [r1, #45]	; 0x2d
878061c8:	2b02      	cmp	r3, #2
878061ca:	d009      	beq.n	878061e0 <UART_TransferGetReceiveCount+0x1c>
878061cc:	b152      	cbz	r2, 878061e4 <UART_TransferGetReceiveCount+0x20>
878061ce:	b410      	push	{r4}
878061d0:	2000      	movs	r0, #0
878061d2:	690c      	ldr	r4, [r1, #16]
878061d4:	694b      	ldr	r3, [r1, #20]
878061d6:	1b1b      	subs	r3, r3, r4
878061d8:	f85d 4b04 	ldr.w	r4, [sp], #4
878061dc:	6013      	str	r3, [r2, #0]
878061de:	4770      	bx	lr
878061e0:	2006      	movs	r0, #6
878061e2:	4770      	bx	lr
878061e4:	2004      	movs	r0, #4
878061e6:	4770      	bx	lr

878061e8 <UART1_DriverIRQHandler>:
878061e8:	f24e 5338 	movw	r3, #58680	; 0xe538
878061ec:	2000      	movs	r0, #0
878061ee:	f2c8 7380 	movt	r3, #34688	; 0x8780
878061f2:	f2c0 2002 	movt	r0, #514	; 0x202
878061f6:	6a1a      	ldr	r2, [r3, #32]
878061f8:	6819      	ldr	r1, [r3, #0]
878061fa:	4710      	bx	r2

878061fc <UART2_DriverIRQHandler>:
878061fc:	f24e 5338 	movw	r3, #58680	; 0xe538
87806200:	f44f 4000 	mov.w	r0, #32768	; 0x8000
87806204:	f2c8 7380 	movt	r3, #34688	; 0x8780
87806208:	f2c0 201e 	movt	r0, #542	; 0x21e
8780620c:	6a1a      	ldr	r2, [r3, #32]
8780620e:	6859      	ldr	r1, [r3, #4]
87806210:	4710      	bx	r2
87806212:	bf00      	nop

87806214 <UART3_DriverIRQHandler>:
87806214:	f24e 5338 	movw	r3, #58680	; 0xe538
87806218:	f44f 4040 	mov.w	r0, #49152	; 0xc000
8780621c:	f2c8 7380 	movt	r3, #34688	; 0x8780
87806220:	f2c0 201e 	movt	r0, #542	; 0x21e
87806224:	6a1a      	ldr	r2, [r3, #32]
87806226:	6899      	ldr	r1, [r3, #8]
87806228:	4710      	bx	r2
8780622a:	bf00      	nop

8780622c <UART4_DriverIRQHandler>:
8780622c:	f24e 5338 	movw	r3, #58680	; 0xe538
87806230:	2000      	movs	r0, #0
87806232:	f2c8 7380 	movt	r3, #34688	; 0x8780
87806236:	f2c0 201f 	movt	r0, #543	; 0x21f
8780623a:	6a1a      	ldr	r2, [r3, #32]
8780623c:	68d9      	ldr	r1, [r3, #12]
8780623e:	4710      	bx	r2

87806240 <UART5_DriverIRQHandler>:
87806240:	f24e 5338 	movw	r3, #58680	; 0xe538
87806244:	f44f 4080 	mov.w	r0, #16384	; 0x4000
87806248:	f2c8 7380 	movt	r3, #34688	; 0x8780
8780624c:	f2c0 201f 	movt	r0, #543	; 0x21f
87806250:	6a1a      	ldr	r2, [r3, #32]
87806252:	6919      	ldr	r1, [r3, #16]
87806254:	4710      	bx	r2
87806256:	bf00      	nop

87806258 <UART6_DriverIRQHandler>:
87806258:	f24e 5338 	movw	r3, #58680	; 0xe538
8780625c:	f44f 4040 	mov.w	r0, #49152	; 0xc000
87806260:	f2c8 7380 	movt	r3, #34688	; 0x8780
87806264:	f2c0 201f 	movt	r0, #543	; 0x21f
87806268:	6a1a      	ldr	r2, [r3, #32]
8780626a:	6959      	ldr	r1, [r3, #20]
8780626c:	4710      	bx	r2
8780626e:	bf00      	nop

87806270 <UART7_DriverIRQHandler>:
87806270:	f24e 5338 	movw	r3, #58680	; 0xe538
87806274:	f44f 4000 	mov.w	r0, #32768	; 0x8000
87806278:	f2c8 7380 	movt	r3, #34688	; 0x8780
8780627c:	f2c0 2001 	movt	r0, #513	; 0x201
87806280:	6a1a      	ldr	r2, [r3, #32]
87806282:	6999      	ldr	r1, [r3, #24]
87806284:	4710      	bx	r2
87806286:	bf00      	nop

87806288 <UART8_DriverIRQHandler>:
87806288:	f24e 5338 	movw	r3, #58680	; 0xe538
8780628c:	f44f 4000 	mov.w	r0, #32768	; 0x8000
87806290:	f2c8 7380 	movt	r3, #34688	; 0x8780
87806294:	f2c0 2028 	movt	r0, #552	; 0x228
87806298:	6a1a      	ldr	r2, [r3, #32]
8780629a:	69d9      	ldr	r1, [r3, #28]
8780629c:	4710      	bx	r2
8780629e:	bf00      	nop

878062a0 <CAN1_DriverIRQHandler>:
878062a0:	e7fe      	b.n	878062a0 <CAN1_DriverIRQHandler>
878062a2:	bf00      	nop

878062a4 <SystemInit>:
878062a4:	e92d 4ff0 	stmdb	sp!, {r4, r5, r6, r7, r8, r9, sl, fp, lr}
878062a8:	f04f 0900 	mov.w	r9, #0
878062ac:	ee07 9f15 	mcr	15, 0, r9, cr7, cr5, {0}
878062b0:	ee07 9fd5 	mcr	15, 0, r9, cr7, cr5, {6}
878062b4:	f3bf 8f4f 	dsb	sy
878062b8:	f3bf 8f6f 	isb	sy
878062bc:	ee30 af30 	mrc	15, 1, sl, cr0, cr0, {1}
878062c0:	f3ca 6b02 	ubfx	fp, sl, #24, #3
878062c4:	f04f 0801 	mov.w	r8, #1
878062c8:	46cc      	mov	ip, r9
878062ca:	f1bb 0f00 	cmp.w	fp, #0
878062ce:	d037      	beq.n	87806340 <SystemInit+0x9c>
878062d0:	fa2a f309 	lsr.w	r3, sl, r9
878062d4:	f003 0307 	and.w	r3, r3, #7
878062d8:	3b02      	subs	r3, #2
878062da:	2b02      	cmp	r3, #2
878062dc:	d82a      	bhi.n	87806334 <SystemInit+0x90>
878062de:	ea4f 0e4c 	mov.w	lr, ip, lsl #1
878062e2:	ee40 ef10 	mcr	15, 2, lr, cr0, cr0, {0}
878062e6:	ee30 3f10 	mrc	15, 1, r3, cr0, cr0, {0}
878062ea:	f3c3 344e 	ubfx	r4, r3, #13, #15
878062ee:	f3c3 07c9 	ubfx	r7, r3, #3, #10
878062f2:	f003 0307 	and.w	r3, r3, #7
878062f6:	3401      	adds	r4, #1
878062f8:	3701      	adds	r7, #1
878062fa:	1d18      	adds	r0, r3, #4
878062fc:	2601      	movs	r6, #1
878062fe:	fa08 f306 	lsl.w	r3, r8, r6
87806302:	429f      	cmp	r7, r3
87806304:	d942      	bls.n	8780638c <SystemInit+0xe8>
87806306:	3601      	adds	r6, #1
87806308:	2e0a      	cmp	r6, #10
8780630a:	d1f8      	bne.n	878062fe <SystemInit+0x5a>
8780630c:	2616      	movs	r6, #22
8780630e:	2500      	movs	r5, #0
87806310:	fa05 f106 	lsl.w	r1, r5, r6
87806314:	2300      	movs	r3, #0
87806316:	ea41 010e 	orr.w	r1, r1, lr
8780631a:	fa03 f200 	lsl.w	r2, r3, r0
8780631e:	430a      	orrs	r2, r1
87806320:	ee07 2f56 	mcr	15, 0, r2, cr7, cr6, {2}
87806324:	3301      	adds	r3, #1
87806326:	429c      	cmp	r4, r3
87806328:	d1f7      	bne.n	8780631a <SystemInit+0x76>
8780632a:	3501      	adds	r5, #1
8780632c:	42af      	cmp	r7, r5
8780632e:	d1ef      	bne.n	87806310 <SystemInit+0x6c>
87806330:	f3bf 8f4f 	dsb	sy
87806334:	f10c 0c01 	add.w	ip, ip, #1
87806338:	f109 0903 	add.w	r9, r9, #3
8780633c:	45dc      	cmp	ip, fp
8780633e:	d1c7      	bne.n	878062d0 <SystemInit+0x2c>
87806340:	f3bf 8f4f 	dsb	sy
87806344:	ee11 3f30 	mrc	15, 0, r3, cr1, cr0, {1}
87806348:	f043 0340 	orr.w	r3, r3, #64	; 0x40
8780634c:	ee01 3f30 	mcr	15, 0, r3, cr1, cr0, {1}
87806350:	ee11 3f10 	mrc	15, 0, r3, cr1, cr0, {0}
87806354:	f423 5360 	bic.w	r3, r3, #14336	; 0x3800
87806358:	f023 0327 	bic.w	r3, r3, #39	; 0x27
8780635c:	f443 53c1 	orr.w	r3, r3, #6176	; 0x1820
87806360:	f043 0304 	orr.w	r3, r3, #4
87806364:	ee01 3f10 	mcr	15, 0, r3, cr1, cr0, {0}
87806368:	ee11 3f50 	mrc	15, 0, r3, cr1, cr0, {2}
8780636c:	f023 4340 	bic.w	r3, r3, #3221225472	; 0xc0000000
87806370:	f423 0370 	bic.w	r3, r3, #15728640	; 0xf00000
87806374:	f443 0370 	orr.w	r3, r3, #15728640	; 0xf00000
87806378:	ee01 3f50 	mcr	15, 0, r3, cr1, cr0, {2}
8780637c:	eef8 3a10 	vmrs	r3, fpexc
87806380:	f043 4380 	orr.w	r3, r3, #1073741824	; 0x40000000
87806384:	eee8 3a10 	vmsr	fpexc, r3
87806388:	e8bd 8ff0 	ldmia.w	sp!, {r4, r5, r6, r7, r8, r9, sl, fp, pc}
8780638c:	f1c6 0620 	rsb	r6, r6, #32
87806390:	e7bd      	b.n	8780630e <SystemInit+0x6a>
87806392:	bf00      	nop

87806394 <SystemCoreClockUpdate>:
87806394:	f44f 4380 	mov.w	r3, #16384	; 0x4000
87806398:	b510      	push	{r4, lr}
8780639a:	f2c0 230c 	movt	r3, #524	; 0x20c
8780639e:	68da      	ldr	r2, [r3, #12]
878063a0:	0752      	lsls	r2, r2, #29
878063a2:	d545      	bpl.n	87806430 <SystemCoreClockUpdate+0x9c>
878063a4:	68db      	ldr	r3, [r3, #12]
878063a6:	05db      	lsls	r3, r3, #23
878063a8:	bf5c      	itt	pl
878063aa:	f44f 5158 	movpl.w	r1, #13824	; 0x3600
878063ae:	f2c0 116e 	movtpl	r1, #366	; 0x16e
878063b2:	d52c      	bpl.n	8780640e <SystemCoreClockUpdate+0x7a>
878063b4:	f44f 4200 	mov.w	r2, #32768	; 0x8000
878063b8:	f44f 5158 	mov.w	r1, #13824	; 0x3600
878063bc:	f2c0 220c 	movt	r2, #524	; 0x20c
878063c0:	f2c0 116e 	movt	r1, #366	; 0x16e
878063c4:	6b13      	ldr	r3, [r2, #48]	; 0x30
878063c6:	6d10      	ldr	r0, [r2, #80]	; 0x50
878063c8:	6e12      	ldr	r2, [r2, #96]	; 0x60
878063ca:	f013 0301 	ands.w	r3, r3, #1
878063ce:	d13e      	bne.n	8780644e <SystemCoreClockUpdate+0xba>
878063d0:	fba0 0101 	umull	r0, r1, r0, r1
878063d4:	f002 f9b8 	bl	87808748 <__aeabi_uldivmod>
878063d8:	f44f 5160 	mov.w	r1, #14336	; 0x3800
878063dc:	f6c1 419c 	movt	r1, #7324	; 0x1c9c
878063e0:	4401      	add	r1, r0
878063e2:	f44f 4380 	mov.w	r3, #16384	; 0x4000
878063e6:	f2c0 230c 	movt	r3, #524	; 0x20c
878063ea:	68db      	ldr	r3, [r3, #12]
878063ec:	f013 0308 	ands.w	r3, r3, #8
878063f0:	d10d      	bne.n	8780640e <SystemCoreClockUpdate+0x7a>
878063f2:	f44f 4200 	mov.w	r2, #32768	; 0x8000
878063f6:	2012      	movs	r0, #18
878063f8:	f2c0 220c 	movt	r2, #524	; 0x20c
878063fc:	fba1 0100 	umull	r0, r1, r1, r0
87806400:	f8d2 2100 	ldr.w	r2, [r2, #256]	; 0x100
87806404:	f3c2 4205 	ubfx	r2, r2, #16, #6
87806408:	f002 f99e 	bl	87808748 <__aeabi_uldivmod>
8780640c:	4601      	mov	r1, r0
8780640e:	f44f 4380 	mov.w	r3, #16384	; 0x4000
87806412:	4608      	mov	r0, r1
87806414:	f2c0 230c 	movt	r3, #524	; 0x20c
87806418:	f24e 34f0 	movw	r4, #58352	; 0xe3f0
8780641c:	6919      	ldr	r1, [r3, #16]
8780641e:	f2c8 7480 	movt	r4, #34688	; 0x8780
87806422:	f001 0107 	and.w	r1, r1, #7
87806426:	3101      	adds	r1, #1
87806428:	f001 fefa 	bl	87808220 <__aeabi_uidiv>
8780642c:	6020      	str	r0, [r4, #0]
8780642e:	bd10      	pop	{r4, pc}
87806430:	f44f 4200 	mov.w	r2, #32768	; 0x8000
87806434:	f44f 5358 	mov.w	r3, #13824	; 0x3600
87806438:	f2c0 220c 	movt	r2, #524	; 0x20c
8780643c:	f2c0 136e 	movt	r3, #366	; 0x16e
87806440:	6811      	ldr	r1, [r2, #0]
87806442:	f001 017f 	and.w	r1, r1, #127	; 0x7f
87806446:	fb03 f101 	mul.w	r1, r3, r1
8780644a:	0849      	lsrs	r1, r1, #1
8780644c:	e7df      	b.n	8780640e <SystemCoreClockUpdate+0x7a>
8780644e:	2300      	movs	r3, #0
87806450:	fba0 0101 	umull	r0, r1, r0, r1
87806454:	f002 f978 	bl	87808748 <__aeabi_uldivmod>
87806458:	f44f 4124 	mov.w	r1, #41984	; 0xa400
8780645c:	f6c1 7178 	movt	r1, #8056	; 0x1f78
87806460:	4401      	add	r1, r0
87806462:	e7be      	b.n	878063e2 <SystemCoreClockUpdate+0x4e>

87806464 <SystemInitIrqTable>:
87806464:	e92d 41f0 	stmdb	sp!, {r4, r5, r6, r7, r8, lr}
87806468:	f24e 555c 	movw	r5, #58716	; 0xe55c
8780646c:	f2c8 7580 	movt	r5, #34688	; 0x8780
87806470:	f246 21a1 	movw	r1, #25249	; 0x62a1
87806474:	f2c8 7180 	movt	r1, #34688	; 0x8780
87806478:	462b      	mov	r3, r5
8780647a:	f505 64a0 	add.w	r4, r5, #1280	; 0x500
8780647e:	2000      	movs	r0, #0
87806480:	6019      	str	r1, [r3, #0]
87806482:	3308      	adds	r3, #8
87806484:	f843 0c04 	str.w	r0, [r3, #-4]
87806488:	42a3      	cmp	r3, r4
8780648a:	f04f 0200 	mov.w	r2, #0
8780648e:	d1f7      	bne.n	87806480 <SystemInitIrqTable+0x1c>
87806490:	f246 23a1 	movw	r3, #25249	; 0x62a1
87806494:	f246 24a1 	movw	r4, #25249	; 0x62a1
87806498:	f2c8 7380 	movt	r3, #34688	; 0x8780
8780649c:	f246 20a1 	movw	r0, #25249	; 0x62a1
878064a0:	f8c5 31f8 	str.w	r3, [r5, #504]	; 0x1f8
878064a4:	f246 21a1 	movw	r1, #25249	; 0x62a1
878064a8:	f246 23a1 	movw	r3, #25249	; 0x62a1
878064ac:	f2c8 7480 	movt	r4, #34688	; 0x8780
878064b0:	f2c8 7080 	movt	r0, #34688	; 0x8780
878064b4:	f2c8 7180 	movt	r1, #34688	; 0x8780
878064b8:	f2c8 7380 	movt	r3, #34688	; 0x8780
878064bc:	f8c5 4470 	str.w	r4, [r5, #1136]	; 0x470
878064c0:	f8c5 0208 	str.w	r0, [r5, #520]	; 0x208
878064c4:	f246 27a1 	movw	r7, #25249	; 0x62a1
878064c8:	f8c5 14b0 	str.w	r1, [r5, #1200]	; 0x4b0
878064cc:	f246 26a1 	movw	r6, #25249	; 0x62a1
878064d0:	f8c5 34c8 	str.w	r3, [r5, #1224]	; 0x4c8
878064d4:	f246 24a1 	movw	r4, #25249	; 0x62a1
878064d8:	f246 20a1 	movw	r0, #25249	; 0x62a1
878064dc:	f246 21a1 	movw	r1, #25249	; 0x62a1
878064e0:	f246 23a1 	movw	r3, #25249	; 0x62a1
878064e4:	f2c8 7780 	movt	r7, #34688	; 0x8780
878064e8:	f2c8 7680 	movt	r6, #34688	; 0x8780
878064ec:	f2c8 7480 	movt	r4, #34688	; 0x8780
878064f0:	f2c8 7080 	movt	r0, #34688	; 0x8780
878064f4:	f2c8 7180 	movt	r1, #34688	; 0x8780
878064f8:	f2c8 7380 	movt	r3, #34688	; 0x8780
878064fc:	f8c5 7210 	str.w	r7, [r5, #528]	; 0x210
87806500:	f8c5 64b8 	str.w	r6, [r5, #1208]	; 0x4b8
87806504:	f246 2ca1 	movw	ip, #25249	; 0x62a1
87806508:	f8c5 44c0 	str.w	r4, [r5, #1216]	; 0x4c0
8780650c:	f246 2ea1 	movw	lr, #25249	; 0x62a1
87806510:	f8c5 0220 	str.w	r0, [r5, #544]	; 0x220
87806514:	f246 27a1 	movw	r7, #25249	; 0x62a1
87806518:	f8c5 1230 	str.w	r1, [r5, #560]	; 0x230
8780651c:	f246 26a1 	movw	r6, #25249	; 0x62a1
87806520:	f8c5 3410 	str.w	r3, [r5, #1040]	; 0x410
87806524:	f246 24a1 	movw	r4, #25249	; 0x62a1
87806528:	f246 20a1 	movw	r0, #25249	; 0x62a1
8780652c:	f246 11e9 	movw	r1, #25065	; 0x61e9
87806530:	f246 232d 	movw	r3, #25133	; 0x622d
87806534:	f2c8 7c80 	movt	ip, #34688	; 0x8780
87806538:	f2c8 7e80 	movt	lr, #34688	; 0x8780
8780653c:	f2c8 7780 	movt	r7, #34688	; 0x8780
87806540:	f2c8 7680 	movt	r6, #34688	; 0x8780
87806544:	f2c8 7480 	movt	r4, #34688	; 0x8780
87806548:	f2c8 7080 	movt	r0, #34688	; 0x8780
8780654c:	f2c8 7180 	movt	r1, #34688	; 0x8780
87806550:	f2c8 7380 	movt	r3, #34688	; 0x8780
87806554:	f8c5 2474 	str.w	r2, [r5, #1140]	; 0x474
87806558:	f8c5 247c 	str.w	r2, [r5, #1148]	; 0x47c
8780655c:	f246 28a1 	movw	r8, #25249	; 0x62a1
87806560:	f8c5 21fc 	str.w	r2, [r5, #508]	; 0x1fc
87806564:	f2c8 7880 	movt	r8, #34688	; 0x8780
87806568:	f8c5 2204 	str.w	r2, [r5, #516]	; 0x204
8780656c:	f8c5 220c 	str.w	r2, [r5, #524]	; 0x20c
87806570:	f8c5 2214 	str.w	r2, [r5, #532]	; 0x214
87806574:	f8c5 24b4 	str.w	r2, [r5, #1204]	; 0x4b4
87806578:	f8c5 24bc 	str.w	r2, [r5, #1212]	; 0x4bc
8780657c:	f8c5 24c4 	str.w	r2, [r5, #1220]	; 0x4c4
87806580:	f8c5 24cc 	str.w	r2, [r5, #1228]	; 0x4cc
87806584:	f8c5 2224 	str.w	r2, [r5, #548]	; 0x224
87806588:	f8c5 222c 	str.w	r2, [r5, #556]	; 0x22c
8780658c:	f8c5 2234 	str.w	r2, [r5, #564]	; 0x234
87806590:	f8c5 221c 	str.w	r2, [r5, #540]	; 0x21c
87806594:	f8c5 240c 	str.w	r2, [r5, #1036]	; 0x40c
87806598:	f8c5 2414 	str.w	r2, [r5, #1044]	; 0x414
8780659c:	f8c5 c478 	str.w	ip, [r5, #1144]	; 0x478
878065a0:	f246 1cfd 	movw	ip, #25085	; 0x61fd
878065a4:	f8c5 e200 	str.w	lr, [r5, #512]	; 0x200
878065a8:	f246 2e15 	movw	lr, #25109	; 0x6215
878065ac:	f8c5 7228 	str.w	r7, [r5, #552]	; 0x228
878065b0:	f246 2741 	movw	r7, #25153	; 0x6241
878065b4:	f8c5 6218 	str.w	r6, [r5, #536]	; 0x218
878065b8:	f246 2659 	movw	r6, #25177	; 0x6259
878065bc:	f8c5 4408 	str.w	r4, [r5, #1032]	; 0x408
878065c0:	f246 2471 	movw	r4, #25201	; 0x6271
878065c4:	f8c5 01c8 	str.w	r0, [r5, #456]	; 0x1c8
878065c8:	f246 2089 	movw	r0, #25225	; 0x6289
878065cc:	f8c5 21cc 	str.w	r2, [r5, #460]	; 0x1cc
878065d0:	f2c8 7c80 	movt	ip, #34688	; 0x8780
878065d4:	f8c5 21c4 	str.w	r2, [r5, #452]	; 0x1c4
878065d8:	f2c8 7e80 	movt	lr, #34688	; 0x8780
878065dc:	f8c5 21d4 	str.w	r2, [r5, #468]	; 0x1d4
878065e0:	f2c8 7780 	movt	r7, #34688	; 0x8780
878065e4:	f8c5 21dc 	str.w	r2, [r5, #476]	; 0x1dc
878065e8:	f2c8 7680 	movt	r6, #34688	; 0x8780
878065ec:	f8c5 21e4 	str.w	r2, [r5, #484]	; 0x1e4
878065f0:	f2c8 7480 	movt	r4, #34688	; 0x8780
878065f4:	f8c5 21ec 	str.w	r2, [r5, #492]	; 0x1ec
878065f8:	f2c8 7080 	movt	r0, #34688	; 0x8780
878065fc:	f8c5 21f4 	str.w	r2, [r5, #500]	; 0x1f4
87806600:	f8c5 218c 	str.w	r2, [r5, #396]	; 0x18c
87806604:	f8c5 223c 	str.w	r2, [r5, #572]	; 0x23c
87806608:	f8c5 2244 	str.w	r2, [r5, #580]	; 0x244
8780660c:	f8c5 21b4 	str.w	r2, [r5, #436]	; 0x1b4
87806610:	f8c5 21bc 	str.w	r2, [r5, #444]	; 0x1bc
87806614:	f8c5 2114 	str.w	r2, [r5, #276]	; 0x114
87806618:	f246 22a1 	movw	r2, #25249	; 0x62a1
8780661c:	f8c5 11d0 	str.w	r1, [r5, #464]	; 0x1d0
87806620:	f246 21a1 	movw	r1, #25249	; 0x62a1
87806624:	f8c5 31e8 	str.w	r3, [r5, #488]	; 0x1e8
87806628:	f246 23a1 	movw	r3, #25249	; 0x62a1
8780662c:	f2c8 7180 	movt	r1, #34688	; 0x8780
87806630:	f2c8 7280 	movt	r2, #34688	; 0x8780
87806634:	f2c8 7380 	movt	r3, #34688	; 0x8780
87806638:	f8c5 81c0 	str.w	r8, [r5, #448]	; 0x1c0
8780663c:	f8c5 c1d8 	str.w	ip, [r5, #472]	; 0x1d8
87806640:	f8c5 e1e0 	str.w	lr, [r5, #480]	; 0x1e0
87806644:	f8c5 71f0 	str.w	r7, [r5, #496]	; 0x1f0
87806648:	f8c5 6188 	str.w	r6, [r5, #392]	; 0x188
8780664c:	f8c5 4238 	str.w	r4, [r5, #568]	; 0x238
87806650:	f8c5 0240 	str.w	r0, [r5, #576]	; 0x240
87806654:	f8c5 11b0 	str.w	r1, [r5, #432]	; 0x1b0
87806658:	f8c5 21b8 	str.w	r2, [r5, #440]	; 0x1b8
8780665c:	f8c5 3110 	str.w	r3, [r5, #272]	; 0x110
87806660:	e8bd 81f0 	ldmia.w	sp!, {r4, r5, r6, r7, r8, pc}

87806664 <SystemInstallIrqHandler>:
87806664:	f24e 535c 	movw	r3, #58716	; 0xe55c
87806668:	b410      	push	{r4}
8780666a:	f2c8 7380 	movt	r3, #34688	; 0x8780
8780666e:	eb03 04c0 	add.w	r4, r3, r0, lsl #3
87806672:	f843 1030 	str.w	r1, [r3, r0, lsl #3]
87806676:	6062      	str	r2, [r4, #4]
87806678:	f85d 4b04 	ldr.w	r4, [sp], #4
8780667c:	4770      	bx	lr
8780667e:	bf00      	nop

87806680 <SystemIrqHandler>:
87806680:	f3c0 0309 	ubfx	r3, r0, #0, #10
87806684:	2b9f      	cmp	r3, #159	; 0x9f
87806686:	d900      	bls.n	8780668a <SystemIrqHandler+0xa>
87806688:	4770      	bx	lr
8780668a:	b510      	push	{r4, lr}
8780668c:	f24e 545c 	movw	r4, #58716	; 0xe55c
87806690:	f2c8 7480 	movt	r4, #34688	; 0x8780
87806694:	f8d4 2500 	ldr.w	r2, [r4, #1280]	; 0x500
87806698:	3201      	adds	r2, #1
8780669a:	f8c4 2500 	str.w	r2, [r4, #1280]	; 0x500
8780669e:	b662      	cpsie	i
878066a0:	eb04 02c3 	add.w	r2, r4, r3, lsl #3
878066a4:	f854 3033 	ldr.w	r3, [r4, r3, lsl #3]
878066a8:	6851      	ldr	r1, [r2, #4]
878066aa:	4798      	blx	r3
878066ac:	b672      	cpsid	i
878066ae:	f8d4 3500 	ldr.w	r3, [r4, #1280]	; 0x500
878066b2:	3b01      	subs	r3, #1
878066b4:	f8c4 3500 	str.w	r3, [r4, #1280]	; 0x500
878066b8:	bd10      	pop	{r4, pc}
878066ba:	bf00      	nop

878066bc <SystemGetIRQNestingLevel>:
878066bc:	f24e 535c 	movw	r3, #58716	; 0xe55c
878066c0:	f2c8 7380 	movt	r3, #34688	; 0x8780
878066c4:	f8d3 0500 	ldr.w	r0, [r3, #1280]	; 0x500
878066c8:	4770      	bx	lr
878066ca:	bf00      	nop

878066cc <SystemSetupSystick>:
878066cc:	b5f8      	push	{r3, r4, r5, r6, r7, lr}
878066ce:	f44f 4780 	mov.w	r7, #16384	; 0x4000
878066d2:	f2c0 270c 	movt	r7, #524	; 0x20c
878066d6:	f44f 4600 	mov.w	r6, #32768	; 0x8000
878066da:	f2c0 2609 	movt	r6, #521	; 0x209
878066de:	f24e 535c 	movw	r3, #58716	; 0xe55c
878066e2:	f8d7 e06c 	ldr.w	lr, [r7, #108]	; 0x6c
878066e6:	f2c8 7380 	movt	r3, #34688	; 0x8780
878066ea:	4605      	mov	r5, r0
878066ec:	4630      	mov	r0, r6
878066ee:	f8c3 12b8 	str.w	r1, [r3, #696]	; 0x2b8
878066f2:	4614      	mov	r4, r2
878066f4:	f44f 4100 	mov.w	r1, #32768	; 0x8000
878066f8:	f44e 0270 	orr.w	r2, lr, #15728640	; 0xf00000
878066fc:	f04f 0e00 	mov.w	lr, #0
87806700:	f8c3 e2bc 	str.w	lr, [r3, #700]	; 0x2bc
87806704:	66fa      	str	r2, [r7, #108]	; 0x6c
87806706:	6031      	str	r1, [r6, #0]
87806708:	6802      	ldr	r2, [r0, #0]
8780670a:	f44f 4300 	mov.w	r3, #32768	; 0x8000
8780670e:	f2c0 2309 	movt	r3, #521	; 0x209
87806712:	f5b2 4f00 	cmp.w	r2, #32768	; 0x8000
87806716:	d0f7      	beq.n	87806708 <SystemSetupSystick+0x3c>
87806718:	f44f 4280 	mov.w	r2, #16384	; 0x4000
8780671c:	207e      	movs	r0, #126	; 0x7e
8780671e:	f2c0 220c 	movt	r2, #524	; 0x20c
87806722:	2100      	movs	r1, #0
87806724:	6018      	str	r0, [r3, #0]
87806726:	6059      	str	r1, [r3, #4]
87806728:	6953      	ldr	r3, [r2, #20]
8780672a:	f013 7300 	ands.w	r3, r3, #33554432	; 0x2000000
8780672e:	d04a      	beq.n	878067c6 <SystemSetupSystick+0xfa>
87806730:	6993      	ldr	r3, [r2, #24]
87806732:	f413 5340 	ands.w	r3, r3, #12288	; 0x3000
87806736:	f000 8092 	beq.w	8780685e <SystemSetupSystick+0x192>
8780673a:	f44f 5058 	mov.w	r0, #13824	; 0x3600
8780673e:	f5b3 5f80 	cmp.w	r3, #4096	; 0x1000
87806742:	f2c0 106e 	movt	r0, #366	; 0x16e
87806746:	bf18      	it	ne
87806748:	4608      	movne	r0, r1
8780674a:	f44f 4380 	mov.w	r3, #16384	; 0x4000
8780674e:	f2c0 230c 	movt	r3, #524	; 0x20c
87806752:	6959      	ldr	r1, [r3, #20]
87806754:	f3c1 61c2 	ubfx	r1, r1, #27, #3
87806758:	3101      	adds	r1, #1
8780675a:	f001 fd61 	bl	87808220 <__aeabi_uidiv>
8780675e:	4603      	mov	r3, r0
87806760:	f44f 4680 	mov.w	r6, #16384	; 0x4000
87806764:	4618      	mov	r0, r3
87806766:	f2c0 260c 	movt	r6, #524	; 0x20c
8780676a:	6971      	ldr	r1, [r6, #20]
8780676c:	f3c1 2182 	ubfx	r1, r1, #10, #3
87806770:	3101      	adds	r1, #1
87806772:	f001 fd55 	bl	87808220 <__aeabi_uidiv>
87806776:	6971      	ldr	r1, [r6, #20]
87806778:	f3c1 2101 	ubfx	r1, r1, #8, #2
8780677c:	3101      	adds	r1, #1
8780677e:	f001 fd4f 	bl	87808220 <__aeabi_uidiv>
87806782:	4629      	mov	r1, r5
87806784:	f001 fd4c 	bl	87808220 <__aeabi_uidiv>
87806788:	f44f 4300 	mov.w	r3, #32768	; 0x8000
8780678c:	3801      	subs	r0, #1
8780678e:	f2c0 2309 	movt	r3, #521	; 0x209
87806792:	2201      	movs	r2, #1
87806794:	6118      	str	r0, [r3, #16]
87806796:	60da      	str	r2, [r3, #12]
87806798:	ee9f 1f10 	mrc	15, 4, r1, cr15, cr0, {0}
8780679c:	0c09      	lsrs	r1, r1, #16
8780679e:	00e4      	lsls	r4, r4, #3
878067a0:	0409      	lsls	r1, r1, #16
878067a2:	b2e4      	uxtb	r4, r4
878067a4:	f241 4257 	movw	r2, #5207	; 0x1457
878067a8:	548c      	strb	r4, [r1, r2]
878067aa:	ee9f 2f10 	mrc	15, 4, r2, cr15, cr0, {0}
878067ae:	0c12      	lsrs	r2, r2, #16
878067b0:	f241 1108 	movw	r1, #4360	; 0x1108
878067b4:	f44f 0000 	mov.w	r0, #8388608	; 0x800000
878067b8:	0412      	lsls	r2, r2, #16
878067ba:	5050      	str	r0, [r2, r1]
878067bc:	681a      	ldr	r2, [r3, #0]
878067be:	f042 0201 	orr.w	r2, r2, #1
878067c2:	601a      	str	r2, [r3, #0]
878067c4:	bdf8      	pop	{r3, r4, r5, r6, r7, pc}
878067c6:	f44f 4200 	mov.w	r2, #32768	; 0x8000
878067ca:	f2c0 220c 	movt	r2, #524	; 0x20c
878067ce:	6b11      	ldr	r1, [r2, #48]	; 0x30
878067d0:	f011 0101 	ands.w	r1, r1, #1
878067d4:	d133      	bne.n	8780683e <SystemSetupSystick+0x172>
878067d6:	6d16      	ldr	r6, [r2, #80]	; 0x50
878067d8:	f44f 5058 	mov.w	r0, #13824	; 0x3600
878067dc:	f2c0 106e 	movt	r0, #366	; 0x16e
878067e0:	460b      	mov	r3, r1
878067e2:	6e12      	ldr	r2, [r2, #96]	; 0x60
878067e4:	fba6 0100 	umull	r0, r1, r6, r0
878067e8:	f001 ffae 	bl	87808748 <__aeabi_uldivmod>
878067ec:	f44f 5360 	mov.w	r3, #14336	; 0x3800
878067f0:	f6c1 439c 	movt	r3, #7324	; 0x1c9c
878067f4:	4403      	add	r3, r0
878067f6:	f44f 4280 	mov.w	r2, #16384	; 0x4000
878067fa:	f2c0 220c 	movt	r2, #524	; 0x20c
878067fe:	6992      	ldr	r2, [r2, #24]
87806800:	f402 2240 	and.w	r2, r2, #786432	; 0xc0000
87806804:	f5b2 2f80 	cmp.w	r2, #262144	; 0x40000
87806808:	d050      	beq.n	878068ac <SystemSetupSystick+0x1e0>
8780680a:	d94a      	bls.n	878068a2 <SystemSetupSystick+0x1d6>
8780680c:	f5b2 2f00 	cmp.w	r2, #524288	; 0x80000
87806810:	d037      	beq.n	87806882 <SystemSetupSystick+0x1b6>
87806812:	f5b2 2f40 	cmp.w	r2, #786432	; 0xc0000
87806816:	d147      	bne.n	878068a8 <SystemSetupSystick+0x1dc>
87806818:	f44f 4200 	mov.w	r2, #32768	; 0x8000
8780681c:	2012      	movs	r0, #18
8780681e:	f2c0 220c 	movt	r2, #524	; 0x20c
87806822:	fba3 0100 	umull	r0, r1, r3, r0
87806826:	f8d2 2100 	ldr.w	r2, [r2, #256]	; 0x100
8780682a:	2300      	movs	r3, #0
8780682c:	f3c2 4205 	ubfx	r2, r2, #16, #6
87806830:	f001 ff8a 	bl	87808748 <__aeabi_uldivmod>
87806834:	0849      	lsrs	r1, r1, #1
87806836:	ea4f 0030 	mov.w	r0, r0, rrx
8780683a:	4603      	mov	r3, r0
8780683c:	e790      	b.n	87806760 <SystemSetupSystick+0x94>
8780683e:	6d10      	ldr	r0, [r2, #80]	; 0x50
87806840:	f44f 5158 	mov.w	r1, #13824	; 0x3600
87806844:	f2c0 116e 	movt	r1, #366	; 0x16e
87806848:	6e12      	ldr	r2, [r2, #96]	; 0x60
8780684a:	fba0 0101 	umull	r0, r1, r0, r1
8780684e:	f001 ff7b 	bl	87808748 <__aeabi_uldivmod>
87806852:	f44f 4324 	mov.w	r3, #41984	; 0xa400
87806856:	f6c1 7378 	movt	r3, #8056	; 0x1f78
8780685a:	4403      	add	r3, r0
8780685c:	e7cb      	b.n	878067f6 <SystemSetupSystick+0x12a>
8780685e:	f44f 4200 	mov.w	r2, #32768	; 0x8000
87806862:	f44f 4324 	mov.w	r3, #41984	; 0xa400
87806866:	f2c0 220c 	movt	r2, #524	; 0x20c
8780686a:	f44f 5060 	mov.w	r0, #14336	; 0x3800
8780686e:	6912      	ldr	r2, [r2, #16]
87806870:	f6c1 7378 	movt	r3, #8056	; 0x1f78
87806874:	f6c1 409c 	movt	r0, #7324	; 0x1c9c
87806878:	f012 0f03 	tst.w	r2, #3
8780687c:	bf18      	it	ne
8780687e:	4618      	movne	r0, r3
87806880:	e763      	b.n	8780674a <SystemSetupSystick+0x7e>
87806882:	f44f 4200 	mov.w	r2, #32768	; 0x8000
87806886:	2012      	movs	r0, #18
87806888:	f2c0 220c 	movt	r2, #524	; 0x20c
8780688c:	fba3 0100 	umull	r0, r1, r3, r0
87806890:	f8d2 2100 	ldr.w	r2, [r2, #256]	; 0x100
87806894:	2300      	movs	r3, #0
87806896:	f002 023f 	and.w	r2, r2, #63	; 0x3f
8780689a:	f001 ff55 	bl	87808748 <__aeabi_uldivmod>
8780689e:	4603      	mov	r3, r0
878068a0:	e75e      	b.n	87806760 <SystemSetupSystick+0x94>
878068a2:	2a00      	cmp	r2, #0
878068a4:	f43f af5c 	beq.w	87806760 <SystemSetupSystick+0x94>
878068a8:	2300      	movs	r3, #0
878068aa:	e759      	b.n	87806760 <SystemSetupSystick+0x94>
878068ac:	f44f 4200 	mov.w	r2, #32768	; 0x8000
878068b0:	2012      	movs	r0, #18
878068b2:	f2c0 220c 	movt	r2, #524	; 0x20c
878068b6:	fba3 0100 	umull	r0, r1, r3, r0
878068ba:	f8d2 2100 	ldr.w	r2, [r2, #256]	; 0x100
878068be:	2300      	movs	r3, #0
878068c0:	f3c2 4205 	ubfx	r2, r2, #16, #6
878068c4:	f001 ff40 	bl	87808748 <__aeabi_uldivmod>
878068c8:	4603      	mov	r3, r0
878068ca:	e749      	b.n	87806760 <SystemSetupSystick+0x94>

878068cc <SystemClearSystickFlag>:
878068cc:	f44f 4300 	mov.w	r3, #32768	; 0x8000
878068d0:	2201      	movs	r2, #1
878068d2:	f2c0 2309 	movt	r3, #521	; 0x209
878068d6:	609a      	str	r2, [r3, #8]
878068d8:	4770      	bx	lr
878068da:	bf00      	nop

878068dc <__div64_32>:
878068dc:	e92d 4ff8 	stmdb	sp!, {r3, r4, r5, r6, r7, r8, r9, sl, fp, lr}
878068e0:	4688      	mov	r8, r1
878068e2:	e9d0 6700 	ldrd	r6, r7, [r0]
878068e6:	f04f 0b00 	mov.w	fp, #0
878068ea:	4681      	mov	r9, r0
878068ec:	468a      	mov	sl, r1
878068ee:	4644      	mov	r4, r8
878068f0:	465d      	mov	r5, fp
878068f2:	42b9      	cmp	r1, r7
878068f4:	bf84      	itt	hi
878068f6:	2200      	movhi	r2, #0
878068f8:	2300      	movhi	r3, #0
878068fa:	d80b      	bhi.n	87806914 <__div64_32+0x38>
878068fc:	4638      	mov	r0, r7
878068fe:	f001 fc8f 	bl	87808220 <__aeabi_uidiv>
87806902:	4686      	mov	lr, r0
87806904:	2000      	movs	r0, #0
87806906:	fb08 f10e 	mul.w	r1, r8, lr
8780690a:	4602      	mov	r2, r0
8780690c:	4673      	mov	r3, lr
8780690e:	1a36      	subs	r6, r6, r0
87806910:	eb67 0701 	sbc.w	r7, r7, r1
87806914:	45bb      	cmp	fp, r7
87806916:	bf08      	it	eq
87806918:	45b2      	cmpeq	sl, r6
8780691a:	bf34      	ite	cc
8780691c:	2101      	movcc	r1, #1
8780691e:	2100      	movcs	r1, #0
87806920:	f1ba 0f01 	cmp.w	sl, #1
87806924:	f001 0101 	and.w	r1, r1, #1
87806928:	f17b 0000 	sbcs.w	r0, fp, #0
8780692c:	f04f 0001 	mov.w	r0, #1
87806930:	bfb8      	it	lt
87806932:	2100      	movlt	r1, #0
87806934:	b371      	cbz	r1, 87806994 <__div64_32+0xb8>
87806936:	2100      	movs	r1, #0
87806938:	1924      	adds	r4, r4, r4
8780693a:	416d      	adcs	r5, r5
8780693c:	1800      	adds	r0, r0, r0
8780693e:	4149      	adcs	r1, r1
87806940:	2c01      	cmp	r4, #1
87806942:	f175 0e00 	sbcs.w	lr, r5, #0
87806946:	bfac      	ite	ge
87806948:	f04f 0e01 	movge.w	lr, #1
8780694c:	f04f 0e00 	movlt.w	lr, #0
87806950:	42bd      	cmp	r5, r7
87806952:	f00e 0e01 	and.w	lr, lr, #1
87806956:	bf08      	it	eq
87806958:	42b4      	cmpeq	r4, r6
8780695a:	bf28      	it	cs
8780695c:	f04f 0e00 	movcs.w	lr, #0
87806960:	f1be 0f00 	cmp.w	lr, #0
87806964:	d1e8      	bne.n	87806938 <__div64_32+0x5c>
87806966:	42af      	cmp	r7, r5
87806968:	bf08      	it	eq
8780696a:	42a6      	cmpeq	r6, r4
8780696c:	d304      	bcc.n	87806978 <__div64_32+0x9c>
8780696e:	1b36      	subs	r6, r6, r4
87806970:	eb67 0705 	sbc.w	r7, r7, r5
87806974:	1812      	adds	r2, r2, r0
87806976:	414b      	adcs	r3, r1
87806978:	0849      	lsrs	r1, r1, #1
8780697a:	ea4f 0030 	mov.w	r0, r0, rrx
8780697e:	086d      	lsrs	r5, r5, #1
87806980:	ea4f 0434 	mov.w	r4, r4, rrx
87806984:	ea50 0e01 	orrs.w	lr, r0, r1
87806988:	d1ed      	bne.n	87806966 <__div64_32+0x8a>
8780698a:	e9c9 2300 	strd	r2, r3, [r9]
8780698e:	4630      	mov	r0, r6
87806990:	e8bd 8ff8 	ldmia.w	sp!, {r3, r4, r5, r6, r7, r8, r9, sl, fp, pc}
87806994:	2100      	movs	r1, #0
87806996:	e7e6      	b.n	87806966 <__div64_32+0x8a>

87806998 <__muldi3>:
87806998:	fb02 f101 	mul.w	r1, r2, r1
8780699c:	b4f0      	push	{r4, r5, r6, r7}
8780699e:	4604      	mov	r4, r0
878069a0:	ea4f 4610 	mov.w	r6, r0, lsr #16
878069a4:	ea4f 4512 	mov.w	r5, r2, lsr #16
878069a8:	ea20 4706 	bic.w	r7, r0, r6, lsl #16
878069ac:	ea22 4205 	bic.w	r2, r2, r5, lsl #16
878069b0:	fb07 f002 	mul.w	r0, r7, r2
878069b4:	fb06 f202 	mul.w	r2, r6, r2
878069b8:	fb05 f707 	mul.w	r7, r5, r7
878069bc:	fb06 f505 	mul.w	r5, r6, r5
878069c0:	19d7      	adds	r7, r2, r7
878069c2:	bf28      	it	cs
878069c4:	f505 3580 	addcs.w	r5, r5, #65536	; 0x10000
878069c8:	eb10 4007 	adds.w	r0, r0, r7, lsl #16
878069cc:	eb45 4517 	adc.w	r5, r5, r7, lsr #16
878069d0:	fb03 1104 	mla	r1, r3, r4, r1
878069d4:	4429      	add	r1, r5
878069d6:	bcf0      	pop	{r4, r5, r6, r7}
878069d8:	4770      	bx	lr
878069da:	bf00      	nop

878069dc <printf>:
878069dc:	b40f      	push	{r0, r1, r2, r3}
878069de:	f64e 2060 	movw	r0, #60000	; 0xea60
878069e2:	b570      	push	{r4, r5, r6, lr}
878069e4:	f2c8 7080 	movt	r0, #34688	; 0x8780
878069e8:	aa05      	add	r2, sp, #20
878069ea:	2400      	movs	r4, #0
878069ec:	9904      	ldr	r1, [sp, #16]
878069ee:	f001 f92d 	bl	87807c4c <vsprintf>
878069f2:	4d0d      	ldr	r5, [pc, #52]	; (87806a28 <printf+0x4c>)
878069f4:	4606      	mov	r6, r0
878069f6:	e003      	b.n	87806a00 <printf+0x24>
878069f8:	f815 1f01 	ldrb.w	r1, [r5, #1]!
878069fc:	f7fd fdaa 	bl	87804554 <uart_write_byte>
87806a00:	f64e 2060 	movw	r0, #60000	; 0xea60
87806a04:	f2c8 7080 	movt	r0, #34688	; 0x8780
87806a08:	f000 f906 	bl	87806c18 <strlen>
87806a0c:	4284      	cmp	r4, r0
87806a0e:	f04f 0000 	mov.w	r0, #0
87806a12:	f104 0401 	add.w	r4, r4, #1
87806a16:	f2c0 2002 	movt	r0, #514	; 0x202
87806a1a:	d3ed      	bcc.n	878069f8 <printf+0x1c>
87806a1c:	4630      	mov	r0, r6
87806a1e:	e8bd 4070 	ldmia.w	sp!, {r4, r5, r6, lr}
87806a22:	b004      	add	sp, #16
87806a24:	4770      	bx	lr
87806a26:	bf00      	nop
87806a28:	8780ea5f 			; <UNDEFINED> instruction: 0x8780ea5f

87806a2c <scanf>:
87806a2c:	b40f      	push	{r0, r1, r2, r3}
87806a2e:	b570      	push	{r4, r5, r6, lr}
87806a30:	2500      	movs	r5, #0
87806a32:	4e13      	ldr	r6, [pc, #76]	; (87806a80 <scanf+0x54>)
87806a34:	e002      	b.n	87806a3c <scanf+0x10>
87806a36:	3501      	adds	r5, #1
87806a38:	f806 4f01 	strb.w	r4, [r6, #1]!
87806a3c:	2000      	movs	r0, #0
87806a3e:	f2c0 2002 	movt	r0, #514	; 0x202
87806a42:	f7fd fda9 	bl	87804598 <uart_read_byte>
87806a46:	4604      	mov	r4, r0
87806a48:	4601      	mov	r1, r0
87806a4a:	2000      	movs	r0, #0
87806a4c:	f2c0 2002 	movt	r0, #514	; 0x202
87806a50:	f7fd fd80 	bl	87804554 <uart_write_byte>
87806a54:	2c0d      	cmp	r4, #13
87806a56:	bf18      	it	ne
87806a58:	2c0a      	cmpne	r4, #10
87806a5a:	d1ec      	bne.n	87806a36 <scanf+0xa>
87806a5c:	f64e 2060 	movw	r0, #60000	; 0xea60
87806a60:	2300      	movs	r3, #0
87806a62:	f2c8 7080 	movt	r0, #34688	; 0x8780
87806a66:	aa05      	add	r2, sp, #20
87806a68:	4405      	add	r5, r0
87806a6a:	9904      	ldr	r1, [sp, #16]
87806a6c:	f500 6080 	add.w	r0, r0, #1024	; 0x400
87806a70:	f885 3400 	strb.w	r3, [r5, #1024]	; 0x400
87806a74:	f001 f8fc 	bl	87807c70 <vsscanf>
87806a78:	e8bd 4070 	ldmia.w	sp!, {r4, r5, r6, lr}
87806a7c:	b004      	add	sp, #16
87806a7e:	4770      	bx	lr
87806a80:	8780ee5f 			; <UNDEFINED> instruction: 0x8780ee5f

87806a84 <strnicmp>:
87806a84:	b322      	cbz	r2, 87806ad0 <strnicmp+0x4c>
87806a86:	b5f0      	push	{r4, r5, r6, r7, lr}
87806a88:	f24e 35f4 	movw	r5, #58356	; 0xe3f4
87806a8c:	3801      	subs	r0, #1
87806a8e:	f2c8 7580 	movt	r5, #34688	; 0x8780
87806a92:	e008      	b.n	87806aa6 <strnicmp+0x22>
87806a94:	07f6      	lsls	r6, r6, #31
87806a96:	fa5f f38e 	uxtb.w	r3, lr
87806a9a:	d500      	bpl.n	87806a9e <strnicmp+0x1a>
87806a9c:	b2fc      	uxtb	r4, r7
87806a9e:	42a3      	cmp	r3, r4
87806aa0:	d114      	bne.n	87806acc <strnicmp+0x48>
87806aa2:	3a01      	subs	r2, #1
87806aa4:	d01a      	beq.n	87806adc <strnicmp+0x58>
87806aa6:	f810 3f01 	ldrb.w	r3, [r0, #1]!
87806aaa:	f811 4b01 	ldrb.w	r4, [r1], #1
87806aae:	b18b      	cbz	r3, 87806ad4 <strnicmp+0x50>
87806ab0:	b194      	cbz	r4, 87806ad8 <strnicmp+0x54>
87806ab2:	42a3      	cmp	r3, r4
87806ab4:	d0f5      	beq.n	87806aa2 <strnicmp+0x1e>
87806ab6:	5cee      	ldrb	r6, [r5, r3]
87806ab8:	f104 0720 	add.w	r7, r4, #32
87806abc:	f103 0e20 	add.w	lr, r3, #32
87806ac0:	f016 0f01 	tst.w	r6, #1
87806ac4:	5d2e      	ldrb	r6, [r5, r4]
87806ac6:	d1e5      	bne.n	87806a94 <strnicmp+0x10>
87806ac8:	07f6      	lsls	r6, r6, #31
87806aca:	d4e7      	bmi.n	87806a9c <strnicmp+0x18>
87806acc:	1b18      	subs	r0, r3, r4
87806ace:	bdf0      	pop	{r4, r5, r6, r7, pc}
87806ad0:	4610      	mov	r0, r2
87806ad2:	4770      	bx	lr
87806ad4:	4260      	negs	r0, r4
87806ad6:	bdf0      	pop	{r4, r5, r6, r7, pc}
87806ad8:	4618      	mov	r0, r3
87806ada:	bdf0      	pop	{r4, r5, r6, r7, pc}
87806adc:	4610      	mov	r0, r2
87806ade:	bdf0      	pop	{r4, r5, r6, r7, pc}

87806ae0 <strcpy>:
87806ae0:	1e42      	subs	r2, r0, #1
87806ae2:	f811 3b01 	ldrb.w	r3, [r1], #1
87806ae6:	f802 3f01 	strb.w	r3, [r2, #1]!
87806aea:	2b00      	cmp	r3, #0
87806aec:	d1f9      	bne.n	87806ae2 <strcpy+0x2>
87806aee:	4770      	bx	lr

87806af0 <strncpy>:
87806af0:	b410      	push	{r4}
87806af2:	440a      	add	r2, r1
87806af4:	1e44      	subs	r4, r0, #1
87806af6:	e004      	b.n	87806b02 <strncpy+0x12>
87806af8:	f811 3b01 	ldrb.w	r3, [r1], #1
87806afc:	f804 3f01 	strb.w	r3, [r4, #1]!
87806b00:	b10b      	cbz	r3, 87806b06 <strncpy+0x16>
87806b02:	4291      	cmp	r1, r2
87806b04:	d1f8      	bne.n	87806af8 <strncpy+0x8>
87806b06:	f85d 4b04 	ldr.w	r4, [sp], #4
87806b0a:	4770      	bx	lr

87806b0c <strcat>:
87806b0c:	7803      	ldrb	r3, [r0, #0]
87806b0e:	b163      	cbz	r3, 87806b2a <strcat+0x1e>
87806b10:	4603      	mov	r3, r0
87806b12:	f813 2f01 	ldrb.w	r2, [r3, #1]!
87806b16:	2a00      	cmp	r2, #0
87806b18:	d1fb      	bne.n	87806b12 <strcat+0x6>
87806b1a:	3b01      	subs	r3, #1
87806b1c:	f811 2b01 	ldrb.w	r2, [r1], #1
87806b20:	f803 2f01 	strb.w	r2, [r3, #1]!
87806b24:	2a00      	cmp	r2, #0
87806b26:	d1f9      	bne.n	87806b1c <strcat+0x10>
87806b28:	4770      	bx	lr
87806b2a:	4603      	mov	r3, r0
87806b2c:	e7f5      	b.n	87806b1a <strcat+0xe>
87806b2e:	bf00      	nop

87806b30 <strncat>:
87806b30:	b1ba      	cbz	r2, 87806b62 <strncat+0x32>
87806b32:	7803      	ldrb	r3, [r0, #0]
87806b34:	b430      	push	{r4, r5}
87806b36:	b1bb      	cbz	r3, 87806b68 <strncat+0x38>
87806b38:	4603      	mov	r3, r0
87806b3a:	f813 4f01 	ldrb.w	r4, [r3, #1]!
87806b3e:	2c00      	cmp	r4, #0
87806b40:	d1fb      	bne.n	87806b3a <strncat+0xa>
87806b42:	f811 4b01 	ldrb.w	r4, [r1], #1
87806b46:	461d      	mov	r5, r3
87806b48:	f803 4b01 	strb.w	r4, [r3], #1
87806b4c:	b144      	cbz	r4, 87806b60 <strncat+0x30>
87806b4e:	3a01      	subs	r2, #1
87806b50:	d008      	beq.n	87806b64 <strncat+0x34>
87806b52:	f811 4b01 	ldrb.w	r4, [r1], #1
87806b56:	461d      	mov	r5, r3
87806b58:	f803 4b01 	strb.w	r4, [r3], #1
87806b5c:	2c00      	cmp	r4, #0
87806b5e:	d1f6      	bne.n	87806b4e <strncat+0x1e>
87806b60:	bc30      	pop	{r4, r5}
87806b62:	4770      	bx	lr
87806b64:	706a      	strb	r2, [r5, #1]
87806b66:	e7fb      	b.n	87806b60 <strncat+0x30>
87806b68:	4603      	mov	r3, r0
87806b6a:	e7f2      	b.n	87806b52 <strncat+0x22>

87806b6c <strcmp>:
87806b6c:	1e42      	subs	r2, r0, #1
87806b6e:	e000      	b.n	87806b72 <strcmp+0x6>
87806b70:	b148      	cbz	r0, 87806b86 <strcmp+0x1a>
87806b72:	f812 0f01 	ldrb.w	r0, [r2, #1]!
87806b76:	f811 3b01 	ldrb.w	r3, [r1], #1
87806b7a:	1ac3      	subs	r3, r0, r3
87806b7c:	f013 03ff 	ands.w	r3, r3, #255	; 0xff
87806b80:	d0f6      	beq.n	87806b70 <strcmp+0x4>
87806b82:	b258      	sxtb	r0, r3
87806b84:	4770      	bx	lr
87806b86:	4770      	bx	lr

87806b88 <strncmp>:
87806b88:	b302      	cbz	r2, 87806bcc <strncmp+0x44>
87806b8a:	b470      	push	{r4, r5, r6}
87806b8c:	1c4d      	adds	r5, r1, #1
87806b8e:	7803      	ldrb	r3, [r0, #0]
87806b90:	780e      	ldrb	r6, [r1, #0]
87806b92:	1b9e      	subs	r6, r3, r6
87806b94:	f016 06ff 	ands.w	r6, r6, #255	; 0xff
87806b98:	bf18      	it	ne
87806b9a:	b270      	sxtbne	r0, r6
87806b9c:	d10e      	bne.n	87806bbc <strncmp+0x34>
87806b9e:	b1bb      	cbz	r3, 87806bd0 <strncmp+0x48>
87806ba0:	440a      	add	r2, r1
87806ba2:	e008      	b.n	87806bb6 <strncmp+0x2e>
87806ba4:	f810 4f01 	ldrb.w	r4, [r0, #1]!
87806ba8:	f815 3b01 	ldrb.w	r3, [r5], #1
87806bac:	1ae3      	subs	r3, r4, r3
87806bae:	f013 03ff 	ands.w	r3, r3, #255	; 0xff
87806bb2:	d105      	bne.n	87806bc0 <strncmp+0x38>
87806bb4:	b13c      	cbz	r4, 87806bc6 <strncmp+0x3e>
87806bb6:	4295      	cmp	r5, r2
87806bb8:	d1f4      	bne.n	87806ba4 <strncmp+0x1c>
87806bba:	2000      	movs	r0, #0
87806bbc:	bc70      	pop	{r4, r5, r6}
87806bbe:	4770      	bx	lr
87806bc0:	b258      	sxtb	r0, r3
87806bc2:	bc70      	pop	{r4, r5, r6}
87806bc4:	4770      	bx	lr
87806bc6:	4620      	mov	r0, r4
87806bc8:	bc70      	pop	{r4, r5, r6}
87806bca:	4770      	bx	lr
87806bcc:	4610      	mov	r0, r2
87806bce:	4770      	bx	lr
87806bd0:	4618      	mov	r0, r3
87806bd2:	e7f3      	b.n	87806bbc <strncmp+0x34>

87806bd4 <strchr>:
87806bd4:	7803      	ldrb	r3, [r0, #0]
87806bd6:	b2c9      	uxtb	r1, r1
87806bd8:	428b      	cmp	r3, r1
87806bda:	d006      	beq.n	87806bea <strchr+0x16>
87806bdc:	b123      	cbz	r3, 87806be8 <strchr+0x14>
87806bde:	f810 3f01 	ldrb.w	r3, [r0, #1]!
87806be2:	428b      	cmp	r3, r1
87806be4:	d1fa      	bne.n	87806bdc <strchr+0x8>
87806be6:	4770      	bx	lr
87806be8:	4618      	mov	r0, r3
87806bea:	4770      	bx	lr

87806bec <strrchr>:
87806bec:	7803      	ldrb	r3, [r0, #0]
87806bee:	b18b      	cbz	r3, 87806c14 <strrchr+0x28>
87806bf0:	4603      	mov	r3, r0
87806bf2:	f813 2f01 	ldrb.w	r2, [r3, #1]!
87806bf6:	2a00      	cmp	r2, #0
87806bf8:	d1fb      	bne.n	87806bf2 <strrchr+0x6>
87806bfa:	b2c9      	uxtb	r1, r1
87806bfc:	2200      	movs	r2, #0
87806bfe:	e003      	b.n	87806c08 <strrchr+0x1c>
87806c00:	3b01      	subs	r3, #1
87806c02:	4298      	cmp	r0, r3
87806c04:	d804      	bhi.n	87806c10 <strrchr+0x24>
87806c06:	781a      	ldrb	r2, [r3, #0]
87806c08:	428a      	cmp	r2, r1
87806c0a:	d1f9      	bne.n	87806c00 <strrchr+0x14>
87806c0c:	4618      	mov	r0, r3
87806c0e:	4770      	bx	lr
87806c10:	2000      	movs	r0, #0
87806c12:	4770      	bx	lr
87806c14:	4603      	mov	r3, r0
87806c16:	e7f0      	b.n	87806bfa <strrchr+0xe>

87806c18 <strlen>:
87806c18:	7802      	ldrb	r2, [r0, #0]
87806c1a:	b132      	cbz	r2, 87806c2a <strlen+0x12>
87806c1c:	4603      	mov	r3, r0
87806c1e:	f813 1f01 	ldrb.w	r1, [r3, #1]!
87806c22:	2900      	cmp	r1, #0
87806c24:	d1fb      	bne.n	87806c1e <strlen+0x6>
87806c26:	1a18      	subs	r0, r3, r0
87806c28:	4770      	bx	lr
87806c2a:	4610      	mov	r0, r2
87806c2c:	4770      	bx	lr
87806c2e:	bf00      	nop

87806c30 <strnlen>:
87806c30:	b199      	cbz	r1, 87806c5a <strnlen+0x2a>
87806c32:	7803      	ldrb	r3, [r0, #0]
87806c34:	b19b      	cbz	r3, 87806c5e <strnlen+0x2e>
87806c36:	b410      	push	{r4}
87806c38:	4401      	add	r1, r0
87806c3a:	1c43      	adds	r3, r0, #1
87806c3c:	e002      	b.n	87806c44 <strnlen+0x14>
87806c3e:	781c      	ldrb	r4, [r3, #0]
87806c40:	3301      	adds	r3, #1
87806c42:	b134      	cbz	r4, 87806c52 <strnlen+0x22>
87806c44:	428b      	cmp	r3, r1
87806c46:	461a      	mov	r2, r3
87806c48:	d1f9      	bne.n	87806c3e <strnlen+0xe>
87806c4a:	1a18      	subs	r0, r3, r0
87806c4c:	f85d 4b04 	ldr.w	r4, [sp], #4
87806c50:	4770      	bx	lr
87806c52:	1a10      	subs	r0, r2, r0
87806c54:	f85d 4b04 	ldr.w	r4, [sp], #4
87806c58:	4770      	bx	lr
87806c5a:	4608      	mov	r0, r1
87806c5c:	4770      	bx	lr
87806c5e:	4618      	mov	r0, r3
87806c60:	4770      	bx	lr
87806c62:	bf00      	nop

87806c64 <strspn>:
87806c64:	b470      	push	{r4, r5, r6}
87806c66:	4605      	mov	r5, r0
87806c68:	7804      	ldrb	r4, [r0, #0]
87806c6a:	b1ac      	cbz	r4, 87806c98 <strspn+0x34>
87806c6c:	780e      	ldrb	r6, [r1, #0]
87806c6e:	2000      	movs	r0, #0
87806c70:	b14e      	cbz	r6, 87806c86 <strspn+0x22>
87806c72:	42a6      	cmp	r6, r4
87806c74:	d009      	beq.n	87806c8a <strspn+0x26>
87806c76:	460a      	mov	r2, r1
87806c78:	e001      	b.n	87806c7e <strspn+0x1a>
87806c7a:	429c      	cmp	r4, r3
87806c7c:	d005      	beq.n	87806c8a <strspn+0x26>
87806c7e:	f812 3f01 	ldrb.w	r3, [r2, #1]!
87806c82:	2b00      	cmp	r3, #0
87806c84:	d1f9      	bne.n	87806c7a <strspn+0x16>
87806c86:	bc70      	pop	{r4, r5, r6}
87806c88:	4770      	bx	lr
87806c8a:	f815 4f01 	ldrb.w	r4, [r5, #1]!
87806c8e:	3001      	adds	r0, #1
87806c90:	2c00      	cmp	r4, #0
87806c92:	d1ed      	bne.n	87806c70 <strspn+0xc>
87806c94:	bc70      	pop	{r4, r5, r6}
87806c96:	4770      	bx	lr
87806c98:	4620      	mov	r0, r4
87806c9a:	e7f4      	b.n	87806c86 <strspn+0x22>

87806c9c <strpbrk>:
87806c9c:	b430      	push	{r4, r5}
87806c9e:	7804      	ldrb	r4, [r0, #0]
87806ca0:	b17c      	cbz	r4, 87806cc2 <strpbrk+0x26>
87806ca2:	780d      	ldrb	r5, [r1, #0]
87806ca4:	b14d      	cbz	r5, 87806cba <strpbrk+0x1e>
87806ca6:	42a5      	cmp	r5, r4
87806ca8:	d00c      	beq.n	87806cc4 <strpbrk+0x28>
87806caa:	460a      	mov	r2, r1
87806cac:	e001      	b.n	87806cb2 <strpbrk+0x16>
87806cae:	429c      	cmp	r4, r3
87806cb0:	d008      	beq.n	87806cc4 <strpbrk+0x28>
87806cb2:	f812 3f01 	ldrb.w	r3, [r2, #1]!
87806cb6:	2b00      	cmp	r3, #0
87806cb8:	d1f9      	bne.n	87806cae <strpbrk+0x12>
87806cba:	f810 4f01 	ldrb.w	r4, [r0, #1]!
87806cbe:	2c00      	cmp	r4, #0
87806cc0:	d1f0      	bne.n	87806ca4 <strpbrk+0x8>
87806cc2:	4620      	mov	r0, r4
87806cc4:	bc30      	pop	{r4, r5}
87806cc6:	4770      	bx	lr

87806cc8 <strtok>:
87806cc8:	b5f0      	push	{r4, r5, r6, r7, lr}
87806cca:	f24f 3e44 	movw	lr, #62276	; 0xf344
87806cce:	f2c8 7e80 	movt	lr, #34688	; 0x8780
87806cd2:	2800      	cmp	r0, #0
87806cd4:	d03e      	beq.n	87806d54 <strtok+0x8c>
87806cd6:	7804      	ldrb	r4, [r0, #0]
87806cd8:	2c00      	cmp	r4, #0
87806cda:	d037      	beq.n	87806d4c <strtok+0x84>
87806cdc:	780d      	ldrb	r5, [r1, #0]
87806cde:	4607      	mov	r7, r0
87806ce0:	2600      	movs	r6, #0
87806ce2:	b14d      	cbz	r5, 87806cf8 <strtok+0x30>
87806ce4:	42a5      	cmp	r5, r4
87806ce6:	d01e      	beq.n	87806d26 <strtok+0x5e>
87806ce8:	460a      	mov	r2, r1
87806cea:	e001      	b.n	87806cf0 <strtok+0x28>
87806cec:	429c      	cmp	r4, r3
87806cee:	d01a      	beq.n	87806d26 <strtok+0x5e>
87806cf0:	f812 3f01 	ldrb.w	r3, [r2, #1]!
87806cf4:	2b00      	cmp	r3, #0
87806cf6:	d1f9      	bne.n	87806cec <strtok+0x24>
87806cf8:	5d84      	ldrb	r4, [r0, r6]
87806cfa:	4430      	add	r0, r6
87806cfc:	4606      	mov	r6, r0
87806cfe:	b32c      	cbz	r4, 87806d4c <strtok+0x84>
87806d00:	b14d      	cbz	r5, 87806d16 <strtok+0x4e>
87806d02:	42a5      	cmp	r5, r4
87806d04:	d01a      	beq.n	87806d3c <strtok+0x74>
87806d06:	460a      	mov	r2, r1
87806d08:	e001      	b.n	87806d0e <strtok+0x46>
87806d0a:	429c      	cmp	r4, r3
87806d0c:	d016      	beq.n	87806d3c <strtok+0x74>
87806d0e:	f812 3f01 	ldrb.w	r3, [r2, #1]!
87806d12:	2b00      	cmp	r3, #0
87806d14:	d1f9      	bne.n	87806d0a <strtok+0x42>
87806d16:	f816 4f01 	ldrb.w	r4, [r6, #1]!
87806d1a:	2c00      	cmp	r4, #0
87806d1c:	d1f0      	bne.n	87806d00 <strtok+0x38>
87806d1e:	4626      	mov	r6, r4
87806d20:	f8ce 6000 	str.w	r6, [lr]
87806d24:	bdf0      	pop	{r4, r5, r6, r7, pc}
87806d26:	f817 4f01 	ldrb.w	r4, [r7, #1]!
87806d2a:	3601      	adds	r6, #1
87806d2c:	2c00      	cmp	r4, #0
87806d2e:	d1d8      	bne.n	87806ce2 <strtok+0x1a>
87806d30:	5d84      	ldrb	r4, [r0, r6]
87806d32:	4430      	add	r0, r6
87806d34:	4606      	mov	r6, r0
87806d36:	2c00      	cmp	r4, #0
87806d38:	d1e2      	bne.n	87806d00 <strtok+0x38>
87806d3a:	e007      	b.n	87806d4c <strtok+0x84>
87806d3c:	7833      	ldrb	r3, [r6, #0]
87806d3e:	4632      	mov	r2, r6
87806d40:	2b00      	cmp	r3, #0
87806d42:	d0ed      	beq.n	87806d20 <strtok+0x58>
87806d44:	2300      	movs	r3, #0
87806d46:	3601      	adds	r6, #1
87806d48:	7013      	strb	r3, [r2, #0]
87806d4a:	e7e9      	b.n	87806d20 <strtok+0x58>
87806d4c:	2000      	movs	r0, #0
87806d4e:	f8ce 0000 	str.w	r0, [lr]
87806d52:	bdf0      	pop	{r4, r5, r6, r7, pc}
87806d54:	f8de 0000 	ldr.w	r0, [lr]
87806d58:	2800      	cmp	r0, #0
87806d5a:	d1bc      	bne.n	87806cd6 <strtok+0xe>
87806d5c:	e7e2      	b.n	87806d24 <strtok+0x5c>
87806d5e:	bf00      	nop

87806d60 <strsep>:
87806d60:	b4f0      	push	{r4, r5, r6, r7}
87806d62:	4607      	mov	r7, r0
87806d64:	6800      	ldr	r0, [r0, #0]
87806d66:	b198      	cbz	r0, 87806d90 <strsep+0x30>
87806d68:	7804      	ldrb	r4, [r0, #0]
87806d6a:	b184      	cbz	r4, 87806d8e <strsep+0x2e>
87806d6c:	780e      	ldrb	r6, [r1, #0]
87806d6e:	4605      	mov	r5, r0
87806d70:	b14e      	cbz	r6, 87806d86 <strsep+0x26>
87806d72:	42a6      	cmp	r6, r4
87806d74:	d00e      	beq.n	87806d94 <strsep+0x34>
87806d76:	460a      	mov	r2, r1
87806d78:	e001      	b.n	87806d7e <strsep+0x1e>
87806d7a:	429c      	cmp	r4, r3
87806d7c:	d00a      	beq.n	87806d94 <strsep+0x34>
87806d7e:	f812 3f01 	ldrb.w	r3, [r2, #1]!
87806d82:	2b00      	cmp	r3, #0
87806d84:	d1f9      	bne.n	87806d7a <strsep+0x1a>
87806d86:	f815 4f01 	ldrb.w	r4, [r5, #1]!
87806d8a:	2c00      	cmp	r4, #0
87806d8c:	d1f0      	bne.n	87806d70 <strsep+0x10>
87806d8e:	603c      	str	r4, [r7, #0]
87806d90:	bcf0      	pop	{r4, r5, r6, r7}
87806d92:	4770      	bx	lr
87806d94:	2300      	movs	r3, #0
87806d96:	1c6c      	adds	r4, r5, #1
87806d98:	702b      	strb	r3, [r5, #0]
87806d9a:	e7f8      	b.n	87806d8e <strsep+0x2e>

87806d9c <memset>:
87806d9c:	b132      	cbz	r2, 87806dac <memset+0x10>
87806d9e:	b2c9      	uxtb	r1, r1
87806da0:	4402      	add	r2, r0
87806da2:	4603      	mov	r3, r0
87806da4:	f803 1b01 	strb.w	r1, [r3], #1
87806da8:	4293      	cmp	r3, r2
87806daa:	d1fb      	bne.n	87806da4 <memset+0x8>
87806dac:	4770      	bx	lr
87806dae:	bf00      	nop

87806db0 <bcopy>:
87806db0:	b13a      	cbz	r2, 87806dc2 <bcopy+0x12>
87806db2:	3901      	subs	r1, #1
87806db4:	4402      	add	r2, r0
87806db6:	f810 3b01 	ldrb.w	r3, [r0], #1
87806dba:	4290      	cmp	r0, r2
87806dbc:	f801 3f01 	strb.w	r3, [r1, #1]!
87806dc0:	d1f9      	bne.n	87806db6 <bcopy+0x6>
87806dc2:	4770      	bx	lr

87806dc4 <memcpy>:
87806dc4:	b152      	cbz	r2, 87806ddc <memcpy+0x18>
87806dc6:	440a      	add	r2, r1
87806dc8:	1e43      	subs	r3, r0, #1
87806dca:	b410      	push	{r4}
87806dcc:	f811 4b01 	ldrb.w	r4, [r1], #1
87806dd0:	4291      	cmp	r1, r2
87806dd2:	f803 4f01 	strb.w	r4, [r3, #1]!
87806dd6:	d1f9      	bne.n	87806dcc <memcpy+0x8>
87806dd8:	f85d 4b04 	ldr.w	r4, [sp], #4
87806ddc:	4770      	bx	lr
87806dde:	bf00      	nop

87806de0 <memmove>:
87806de0:	4288      	cmp	r0, r1
87806de2:	b410      	push	{r4}
87806de4:	d80b      	bhi.n	87806dfe <memmove+0x1e>
87806de6:	b13a      	cbz	r2, 87806df8 <memmove+0x18>
87806de8:	440a      	add	r2, r1
87806dea:	1e43      	subs	r3, r0, #1
87806dec:	f811 4b01 	ldrb.w	r4, [r1], #1
87806df0:	4291      	cmp	r1, r2
87806df2:	f803 4f01 	strb.w	r4, [r3, #1]!
87806df6:	d1f9      	bne.n	87806dec <memmove+0xc>
87806df8:	f85d 4b04 	ldr.w	r4, [sp], #4
87806dfc:	4770      	bx	lr
87806dfe:	4411      	add	r1, r2
87806e00:	1883      	adds	r3, r0, r2
87806e02:	2a00      	cmp	r2, #0
87806e04:	d0f8      	beq.n	87806df8 <memmove+0x18>
87806e06:	1a8a      	subs	r2, r1, r2
87806e08:	f811 4d01 	ldrb.w	r4, [r1, #-1]!
87806e0c:	4291      	cmp	r1, r2
87806e0e:	f803 4d01 	strb.w	r4, [r3, #-1]!
87806e12:	d1f9      	bne.n	87806e08 <memmove+0x28>
87806e14:	f85d 4b04 	ldr.w	r4, [sp], #4
87806e18:	4770      	bx	lr
87806e1a:	bf00      	nop

87806e1c <memcmp>:
87806e1c:	b1aa      	cbz	r2, 87806e4a <memcmp+0x2e>
87806e1e:	b430      	push	{r4, r5}
87806e20:	4604      	mov	r4, r0
87806e22:	7803      	ldrb	r3, [r0, #0]
87806e24:	7808      	ldrb	r0, [r1, #0]
87806e26:	1a18      	subs	r0, r3, r0
87806e28:	d10a      	bne.n	87806e40 <memcmp+0x24>
87806e2a:	4422      	add	r2, r4
87806e2c:	3401      	adds	r4, #1
87806e2e:	e005      	b.n	87806e3c <memcmp+0x20>
87806e30:	f814 3b01 	ldrb.w	r3, [r4], #1
87806e34:	f811 5f01 	ldrb.w	r5, [r1, #1]!
87806e38:	1b5b      	subs	r3, r3, r5
87806e3a:	d103      	bne.n	87806e44 <memcmp+0x28>
87806e3c:	4294      	cmp	r4, r2
87806e3e:	d1f7      	bne.n	87806e30 <memcmp+0x14>
87806e40:	bc30      	pop	{r4, r5}
87806e42:	4770      	bx	lr
87806e44:	4618      	mov	r0, r3
87806e46:	bc30      	pop	{r4, r5}
87806e48:	4770      	bx	lr
87806e4a:	4610      	mov	r0, r2
87806e4c:	4770      	bx	lr
87806e4e:	bf00      	nop

87806e50 <memscan>:
87806e50:	b182      	cbz	r2, 87806e74 <memscan+0x24>
87806e52:	7803      	ldrb	r3, [r0, #0]
87806e54:	428b      	cmp	r3, r1
87806e56:	d00d      	beq.n	87806e74 <memscan+0x24>
87806e58:	b410      	push	{r4}
87806e5a:	4402      	add	r2, r0
87806e5c:	1c43      	adds	r3, r0, #1
87806e5e:	e002      	b.n	87806e66 <memscan+0x16>
87806e60:	7804      	ldrb	r4, [r0, #0]
87806e62:	428c      	cmp	r4, r1
87806e64:	d004      	beq.n	87806e70 <memscan+0x20>
87806e66:	4293      	cmp	r3, r2
87806e68:	4618      	mov	r0, r3
87806e6a:	f103 0301 	add.w	r3, r3, #1
87806e6e:	d1f7      	bne.n	87806e60 <memscan+0x10>
87806e70:	f85d 4b04 	ldr.w	r4, [sp], #4
87806e74:	4770      	bx	lr
87806e76:	bf00      	nop

87806e78 <strstr>:
87806e78:	b5f0      	push	{r4, r5, r6, r7, lr}
87806e7a:	468e      	mov	lr, r1
87806e7c:	f891 c000 	ldrb.w	ip, [r1]
87806e80:	f1bc 0f00 	cmp.w	ip, #0
87806e84:	d028      	beq.n	87806ed8 <strstr+0x60>
87806e86:	460e      	mov	r6, r1
87806e88:	f816 3f01 	ldrb.w	r3, [r6, #1]!
87806e8c:	2b00      	cmp	r3, #0
87806e8e:	d1fb      	bne.n	87806e88 <strstr+0x10>
87806e90:	ebb6 010e 	subs.w	r1, r6, lr
87806e94:	d020      	beq.n	87806ed8 <strstr+0x60>
87806e96:	7807      	ldrb	r7, [r0, #0]
87806e98:	b12f      	cbz	r7, 87806ea6 <strstr+0x2e>
87806e9a:	4607      	mov	r7, r0
87806e9c:	f817 3f01 	ldrb.w	r3, [r7, #1]!
87806ea0:	2b00      	cmp	r3, #0
87806ea2:	d1fb      	bne.n	87806e9c <strstr+0x24>
87806ea4:	1a3f      	subs	r7, r7, r0
87806ea6:	42b9      	cmp	r1, r7
87806ea8:	dc15      	bgt.n	87806ed6 <strstr+0x5e>
87806eaa:	3f01      	subs	r7, #1
87806eac:	b1a1      	cbz	r1, 87806ed8 <strstr+0x60>
87806eae:	7803      	ldrb	r3, [r0, #0]
87806eb0:	4563      	cmp	r3, ip
87806eb2:	d10c      	bne.n	87806ece <strstr+0x56>
87806eb4:	4602      	mov	r2, r0
87806eb6:	f10e 0301 	add.w	r3, lr, #1
87806eba:	e005      	b.n	87806ec8 <strstr+0x50>
87806ebc:	f813 4b01 	ldrb.w	r4, [r3], #1
87806ec0:	f812 5f01 	ldrb.w	r5, [r2, #1]!
87806ec4:	42a5      	cmp	r5, r4
87806ec6:	d102      	bne.n	87806ece <strstr+0x56>
87806ec8:	42b3      	cmp	r3, r6
87806eca:	d1f7      	bne.n	87806ebc <strstr+0x44>
87806ecc:	bdf0      	pop	{r4, r5, r6, r7, pc}
87806ece:	428f      	cmp	r7, r1
87806ed0:	f100 0001 	add.w	r0, r0, #1
87806ed4:	dae9      	bge.n	87806eaa <strstr+0x32>
87806ed6:	2000      	movs	r0, #0
87806ed8:	bdf0      	pop	{r4, r5, r6, r7, pc}
87806eda:	bf00      	nop

87806edc <memchr>:
87806edc:	b410      	push	{r4}
87806ede:	b2c9      	uxtb	r1, r1
87806ee0:	4402      	add	r2, r0
87806ee2:	e004      	b.n	87806eee <memchr+0x12>
87806ee4:	f813 4b01 	ldrb.w	r4, [r3], #1
87806ee8:	428c      	cmp	r4, r1
87806eea:	d004      	beq.n	87806ef6 <memchr+0x1a>
87806eec:	4618      	mov	r0, r3
87806eee:	4290      	cmp	r0, r2
87806ef0:	4603      	mov	r3, r0
87806ef2:	d1f7      	bne.n	87806ee4 <memchr+0x8>
87806ef4:	2000      	movs	r0, #0
87806ef6:	f85d 4b04 	ldr.w	r4, [sp], #4
87806efa:	4770      	bx	lr

87806efc <number>:
87806efc:	e92d 4ff0 	stmdb	sp!, {r4, r5, r6, r7, r8, r9, sl, fp, lr}
87806f00:	b0a7      	sub	sp, #156	; 0x9c
87806f02:	460e      	mov	r6, r1
87806f04:	9930      	ldr	r1, [sp, #192]	; 0xc0
87806f06:	4604      	mov	r4, r0
87806f08:	f8dd 80cc 	ldr.w	r8, [sp, #204]	; 0xcc
87806f0c:	390a      	subs	r1, #10
87806f0e:	bf18      	it	ne
87806f10:	2101      	movne	r1, #1
87806f12:	f008 0520 	and.w	r5, r8, #32
87806f16:	ea01 1058 	and.w	r0, r1, r8, lsr #5
87806f1a:	b2ed      	uxtb	r5, r5
87806f1c:	9000      	str	r0, [sp, #0]
87806f1e:	f018 0010 	ands.w	r0, r8, #16
87806f22:	bf18      	it	ne
87806f24:	f028 0801 	bicne.w	r8, r8, #1
87806f28:	9006      	str	r0, [sp, #24]
87806f2a:	f018 0002 	ands.w	r0, r8, #2
87806f2e:	d011      	beq.n	87806f54 <number+0x58>
87806f30:	2a00      	cmp	r2, #0
87806f32:	f173 0000 	sbcs.w	r0, r3, #0
87806f36:	f2c0 80e6 	blt.w	87807106 <number+0x20a>
87806f3a:	f018 0f04 	tst.w	r8, #4
87806f3e:	f040 80c7 	bne.w	878070d0 <number+0x1d4>
87806f42:	f018 0008 	ands.w	r0, r8, #8
87806f46:	d005      	beq.n	87806f54 <number+0x58>
87806f48:	9831      	ldr	r0, [sp, #196]	; 0xc4
87806f4a:	3801      	subs	r0, #1
87806f4c:	9031      	str	r0, [sp, #196]	; 0xc4
87806f4e:	2020      	movs	r0, #32
87806f50:	9001      	str	r0, [sp, #4]
87806f52:	e000      	b.n	87806f56 <number+0x5a>
87806f54:	9001      	str	r0, [sp, #4]
87806f56:	9800      	ldr	r0, [sp, #0]
87806f58:	b130      	cbz	r0, 87806f68 <number+0x6c>
87806f5a:	9830      	ldr	r0, [sp, #192]	; 0xc0
87806f5c:	2810      	cmp	r0, #16
87806f5e:	f000 80c6 	beq.w	878070ee <number+0x1f2>
87806f62:	9831      	ldr	r0, [sp, #196]	; 0xc4
87806f64:	3801      	subs	r0, #1
87806f66:	9031      	str	r0, [sp, #196]	; 0xc4
87806f68:	ea52 0003 	orrs.w	r0, r2, r3
87806f6c:	d17c      	bne.n	87807068 <number+0x16c>
87806f6e:	2200      	movs	r2, #0
87806f70:	2701      	movs	r7, #1
87806f72:	2330      	movs	r3, #48	; 0x30
87806f74:	f88d 3034 	strb.w	r3, [sp, #52]	; 0x34
87806f78:	9b32      	ldr	r3, [sp, #200]	; 0xc8
87806f7a:	9931      	ldr	r1, [sp, #196]	; 0xc4
87806f7c:	42bb      	cmp	r3, r7
87806f7e:	bfb8      	it	lt
87806f80:	463b      	movlt	r3, r7
87806f82:	f018 0f11 	tst.w	r8, #17
87806f86:	eba1 0003 	sub.w	r0, r1, r3
87806f8a:	d110      	bne.n	87806fae <number+0xb2>
87806f8c:	f1b0 0c01 	subs.w	ip, r0, #1
87806f90:	f100 81d0 	bmi.w	87807334 <number+0x438>
87806f94:	1821      	adds	r1, r4, r0
87806f96:	f04f 0e20 	mov.w	lr, #32
87806f9a:	42a6      	cmp	r6, r4
87806f9c:	f104 0401 	add.w	r4, r4, #1
87806fa0:	bf88      	it	hi
87806fa2:	f804 ec01 	strbhi.w	lr, [r4, #-1]
87806fa6:	428c      	cmp	r4, r1
87806fa8:	d1f7      	bne.n	87806f9a <number+0x9e>
87806faa:	ebc0 000c 	rsb	r0, r0, ip
87806fae:	9901      	ldr	r1, [sp, #4]
87806fb0:	b139      	cbz	r1, 87806fc2 <number+0xc6>
87806fb2:	42b4      	cmp	r4, r6
87806fb4:	f104 0401 	add.w	r4, r4, #1
87806fb8:	bf3c      	itt	cc
87806fba:	f89d 1004 	ldrbcc.w	r1, [sp, #4]
87806fbe:	f804 1c01 	strbcc.w	r1, [r4, #-1]
87806fc2:	9900      	ldr	r1, [sp, #0]
87806fc4:	b151      	cbz	r1, 87806fdc <number+0xe0>
87806fc6:	42b4      	cmp	r4, r6
87806fc8:	f104 0e01 	add.w	lr, r4, #1
87806fcc:	bf3c      	itt	cc
87806fce:	2130      	movcc	r1, #48	; 0x30
87806fd0:	7021      	strbcc	r1, [r4, #0]
87806fd2:	9930      	ldr	r1, [sp, #192]	; 0xc0
87806fd4:	2910      	cmp	r1, #16
87806fd6:	bf18      	it	ne
87806fd8:	4674      	movne	r4, lr
87806fda:	d07f      	beq.n	878070dc <number+0x1e0>
87806fdc:	9906      	ldr	r1, [sp, #24]
87806fde:	b991      	cbnz	r1, 87807006 <number+0x10a>
87806fe0:	f018 0f01 	tst.w	r8, #1
87806fe4:	bf14      	ite	ne
87806fe6:	2130      	movne	r1, #48	; 0x30
87806fe8:	2120      	moveq	r1, #32
87806fea:	1e45      	subs	r5, r0, #1
87806fec:	f100 81a4 	bmi.w	87807338 <number+0x43c>
87806ff0:	4420      	add	r0, r4
87806ff2:	42a6      	cmp	r6, r4
87806ff4:	f104 0401 	add.w	r4, r4, #1
87806ff8:	bf88      	it	hi
87806ffa:	f804 1c01 	strbhi.w	r1, [r4, #-1]
87806ffe:	4284      	cmp	r4, r0
87807000:	d1f7      	bne.n	87806ff2 <number+0xf6>
87807002:	f04f 30ff 	mov.w	r0, #4294967295	; 0xffffffff
87807006:	429f      	cmp	r7, r3
87807008:	f280 8122 	bge.w	87807250 <number+0x354>
8780700c:	1bdb      	subs	r3, r3, r7
8780700e:	2130      	movs	r1, #48	; 0x30
87807010:	4423      	add	r3, r4
87807012:	42a6      	cmp	r6, r4
87807014:	f104 0401 	add.w	r4, r4, #1
87807018:	bf88      	it	hi
8780701a:	f804 1c01 	strbhi.w	r1, [r4, #-1]
8780701e:	429c      	cmp	r4, r3
87807020:	d1f7      	bne.n	87807012 <number+0x116>
87807022:	2a00      	cmp	r2, #0
87807024:	f2c0 8110 	blt.w	87807248 <number+0x34c>
87807028:	1c51      	adds	r1, r2, #1
8780702a:	ac0d      	add	r4, sp, #52	; 0x34
8780702c:	4422      	add	r2, r4
8780702e:	4419      	add	r1, r3
87807030:	429e      	cmp	r6, r3
87807032:	f103 0301 	add.w	r3, r3, #1
87807036:	bf88      	it	hi
87807038:	7814      	ldrbhi	r4, [r2, #0]
8780703a:	f102 32ff 	add.w	r2, r2, #4294967295	; 0xffffffff
8780703e:	bf88      	it	hi
87807040:	f803 4c01 	strbhi.w	r4, [r3, #-1]
87807044:	428b      	cmp	r3, r1
87807046:	d1f3      	bne.n	87807030 <number+0x134>
87807048:	2800      	cmp	r0, #0
8780704a:	f340 80ff 	ble.w	8780724c <number+0x350>
8780704e:	4408      	add	r0, r1
87807050:	2320      	movs	r3, #32
87807052:	428e      	cmp	r6, r1
87807054:	f101 0101 	add.w	r1, r1, #1
87807058:	bf88      	it	hi
8780705a:	f801 3c01 	strbhi.w	r3, [r1, #-1]
8780705e:	4281      	cmp	r1, r0
87807060:	d1f7      	bne.n	87807052 <number+0x156>
87807062:	b027      	add	sp, #156	; 0x9c
87807064:	e8bd 8ff0 	ldmia.w	sp!, {r4, r5, r6, r7, r8, r9, sl, fp, pc}
87807068:	2900      	cmp	r1, #0
8780706a:	d055      	beq.n	87807118 <number+0x21c>
8780706c:	9930      	ldr	r1, [sp, #192]	; 0xc0
8780706e:	2910      	cmp	r1, #16
87807070:	f101 3eff 	add.w	lr, r1, #4294967295	; 0xffffffff
87807074:	bf12      	itee	ne
87807076:	f04f 0903 	movne.w	r9, #3
8780707a:	f04f 0e0f 	moveq.w	lr, #15
8780707e:	f04f 0904 	moveq.w	r9, #4
87807082:	f24e 3c0c 	movw	ip, #58124	; 0xe30c
87807086:	f10d 0033 	add.w	r0, sp, #51	; 0x33
8780708a:	f2c8 7c80 	movt	ip, #34688	; 0x8780
8780708e:	2700      	movs	r7, #0
87807090:	b2d1      	uxtb	r1, r2
87807092:	f1c9 0a20 	rsb	sl, r9, #32
87807096:	f1b9 0b20 	subs.w	fp, r9, #32
8780709a:	fa03 fa0a 	lsl.w	sl, r3, sl
8780709e:	ea01 010e 	and.w	r1, r1, lr
878070a2:	fa22 f209 	lsr.w	r2, r2, r9
878070a6:	f81c 1001 	ldrb.w	r1, [ip, r1]
878070aa:	bf58      	it	pl
878070ac:	fa43 fb0b 	asrpl.w	fp, r3, fp
878070b0:	ea42 020a 	orr.w	r2, r2, sl
878070b4:	fa43 f309 	asr.w	r3, r3, r9
878070b8:	bf58      	it	pl
878070ba:	ea42 020b 	orrpl.w	r2, r2, fp
878070be:	4329      	orrs	r1, r5
878070c0:	3701      	adds	r7, #1
878070c2:	f800 1f01 	strb.w	r1, [r0, #1]!
878070c6:	ea52 0103 	orrs.w	r1, r2, r3
878070ca:	d1e1      	bne.n	87807090 <number+0x194>
878070cc:	1e7a      	subs	r2, r7, #1
878070ce:	e753      	b.n	87806f78 <number+0x7c>
878070d0:	9831      	ldr	r0, [sp, #196]	; 0xc4
878070d2:	3801      	subs	r0, #1
878070d4:	9031      	str	r0, [sp, #196]	; 0xc4
878070d6:	202b      	movs	r0, #43	; 0x2b
878070d8:	9001      	str	r0, [sp, #4]
878070da:	e73c      	b.n	87806f56 <number+0x5a>
878070dc:	4576      	cmp	r6, lr
878070de:	f104 0402 	add.w	r4, r4, #2
878070e2:	bf84      	itt	hi
878070e4:	f045 0558 	orrhi.w	r5, r5, #88	; 0x58
878070e8:	f804 5c01 	strbhi.w	r5, [r4, #-1]
878070ec:	e776      	b.n	87806fdc <number+0xe0>
878070ee:	9931      	ldr	r1, [sp, #196]	; 0xc4
878070f0:	3902      	subs	r1, #2
878070f2:	9131      	str	r1, [sp, #196]	; 0xc4
878070f4:	ea52 0103 	orrs.w	r1, r2, r3
878070f8:	bf1c      	itt	ne
878070fa:	f04f 0e0f 	movne.w	lr, #15
878070fe:	f04f 0904 	movne.w	r9, #4
87807102:	d1be      	bne.n	87807082 <number+0x186>
87807104:	e733      	b.n	87806f6e <number+0x72>
87807106:	9831      	ldr	r0, [sp, #196]	; 0xc4
87807108:	4252      	negs	r2, r2
8780710a:	eb63 0343 	sbc.w	r3, r3, r3, lsl #1
8780710e:	3801      	subs	r0, #1
87807110:	9031      	str	r0, [sp, #196]	; 0xc4
87807112:	202d      	movs	r0, #45	; 0x2d
87807114:	9001      	str	r0, [sp, #4]
87807116:	e71e      	b.n	87806f56 <number+0x5a>
87807118:	4610      	mov	r0, r2
8780711a:	4619      	mov	r1, r3
8780711c:	f248 629f 	movw	r2, #34463	; 0x869f
87807120:	2300      	movs	r3, #0
87807122:	f2c0 0201 	movt	r2, #1
87807126:	428b      	cmp	r3, r1
87807128:	bf08      	it	eq
8780712a:	4282      	cmpeq	r2, r0
8780712c:	e9cd 0104 	strd	r0, r1, [sp, #16]
87807130:	e9cd 010a 	strd	r0, r1, [sp, #40]	; 0x28
87807134:	f080 8102 	bcs.w	8780733c <number+0x440>
87807138:	f248 61a0 	movw	r1, #34464	; 0x86a0
8780713c:	f645 20c5 	movw	r0, #23237	; 0x5ac5
87807140:	f2c0 0101 	movt	r1, #1
87807144:	f6c0 207c 	movt	r0, #2684	; 0xa7c
87807148:	9507      	str	r5, [sp, #28]
8780714a:	f10d 0939 	add.w	r9, sp, #57	; 0x39
8780714e:	9609      	str	r6, [sp, #36]	; 0x24
87807150:	4605      	mov	r5, r0
87807152:	f8cd 80cc 	str.w	r8, [sp, #204]	; 0xcc
87807156:	4688      	mov	r8, r1
87807158:	e9cd 2302 	strd	r2, r3, [sp, #8]
8780715c:	9408      	str	r4, [sp, #32]
8780715e:	e9dd 6704 	ldrd	r6, r7, [sp, #16]
87807162:	e05f      	b.n	87807224 <number+0x328>
87807164:	09d8      	lsrs	r0, r3, #7
87807166:	2700      	movs	r7, #0
87807168:	4603      	mov	r3, r0
8780716a:	fb08 6010 	mls	r0, r8, r0, r6
8780716e:	461e      	mov	r6, r3
87807170:	e9cd 670a 	strd	r6, r7, [sp, #40]	; 0x28
87807174:	f3c0 1a03 	ubfx	sl, r0, #4, #4
87807178:	f3c0 2303 	ubfx	r3, r0, #8, #4
8780717c:	0b02      	lsrs	r2, r0, #12
8780717e:	eb0a 0103 	add.w	r1, sl, r3
87807182:	f000 0e0f 	and.w	lr, r0, #15
87807186:	eb03 0c83 	add.w	ip, r3, r3, lsl #2
8780718a:	4411      	add	r1, r2
8780718c:	eb02 00c2 	add.w	r0, r2, r2, lsl #3
87807190:	00cc      	lsls	r4, r1, #3
87807192:	46cb      	mov	fp, r9
87807194:	4450      	add	r0, sl
87807196:	eba4 0141 	sub.w	r1, r4, r1, lsl #1
8780719a:	24cd      	movs	r4, #205	; 0xcd
8780719c:	4460      	add	r0, ip
8780719e:	4471      	add	r1, lr
878071a0:	f109 0905 	add.w	r9, r9, #5
878071a4:	fb04 fa01 	mul.w	sl, r4, r1
878071a8:	ea4f 2ada 	mov.w	sl, sl, lsr #11
878071ac:	4450      	add	r0, sl
878071ae:	ea4f 0eca 	mov.w	lr, sl, lsl #3
878071b2:	fb04 fc00 	mul.w	ip, r4, r0
878071b6:	eb0e 0e4a 	add.w	lr, lr, sl, lsl #1
878071ba:	ebce 0101 	rsb	r1, lr, r1
878071be:	ea4f 2cdc 	mov.w	ip, ip, lsr #11
878071c2:	3130      	adds	r1, #48	; 0x30
878071c4:	f809 1c0a 	strb.w	r1, [r9, #-10]
878071c8:	eb0c 0343 	add.w	r3, ip, r3, lsl #1
878071cc:	ea4f 0ecc 	mov.w	lr, ip, lsl #3
878071d0:	0119      	lsls	r1, r3, #4
878071d2:	eb0e 0c4c 	add.w	ip, lr, ip, lsl #1
878071d6:	eba1 0183 	sub.w	r1, r1, r3, lsl #2
878071da:	ebcc 0c00 	rsb	ip, ip, r0
878071de:	f10c 0030 	add.w	r0, ip, #48	; 0x30
878071e2:	4419      	add	r1, r3
878071e4:	f809 0c09 	strb.w	r0, [r9, #-9]
878071e8:	09c9      	lsrs	r1, r1, #7
878071ea:	eb01 0282 	add.w	r2, r1, r2, lsl #2
878071ee:	00c8      	lsls	r0, r1, #3
878071f0:	fb04 f402 	mul.w	r4, r4, r2
878071f4:	eb00 0141 	add.w	r1, r0, r1, lsl #1
878071f8:	1a5b      	subs	r3, r3, r1
878071fa:	3330      	adds	r3, #48	; 0x30
878071fc:	0ae4      	lsrs	r4, r4, #11
878071fe:	f809 3c08 	strb.w	r3, [r9, #-8]
87807202:	00e3      	lsls	r3, r4, #3
87807204:	f104 0130 	add.w	r1, r4, #48	; 0x30
87807208:	f809 1c06 	strb.w	r1, [r9, #-6]
8780720c:	eb03 0444 	add.w	r4, r3, r4, lsl #1
87807210:	1b12      	subs	r2, r2, r4
87807212:	e9dd 3402 	ldrd	r3, r4, [sp, #8]
87807216:	3230      	adds	r2, #48	; 0x30
87807218:	f809 2c07 	strb.w	r2, [r9, #-7]
8780721c:	42bc      	cmp	r4, r7
8780721e:	bf08      	it	eq
87807220:	42b3      	cmpeq	r3, r6
87807222:	d217      	bcs.n	87807254 <number+0x358>
87807224:	0038      	movs	r0, r7
87807226:	2100      	movs	r1, #0
87807228:	0972      	lsrs	r2, r6, #5
8780722a:	ea50 0301 	orrs.w	r3, r0, r1
8780722e:	fba2 2305 	umull	r2, r3, r2, r5
87807232:	d097      	beq.n	87807164 <number+0x268>
87807234:	f248 61a0 	movw	r1, #34464	; 0x86a0
87807238:	a80a      	add	r0, sp, #40	; 0x28
8780723a:	f2c0 0101 	movt	r1, #1
8780723e:	f7ff fb4d 	bl	878068dc <__div64_32>
87807242:	e9dd 670a 	ldrd	r6, r7, [sp, #40]	; 0x28
87807246:	e795      	b.n	87807174 <number+0x278>
87807248:	4619      	mov	r1, r3
8780724a:	e6fd      	b.n	87807048 <number+0x14c>
8780724c:	4608      	mov	r0, r1
8780724e:	e708      	b.n	87807062 <number+0x166>
87807250:	4623      	mov	r3, r4
87807252:	e6e6      	b.n	87807022 <number+0x126>
87807254:	e9cd 6704 	strd	r6, r7, [sp, #16]
87807258:	f10d 0e34 	add.w	lr, sp, #52	; 0x34
8780725c:	9d07      	ldr	r5, [sp, #28]
8780725e:	9c08      	ldr	r4, [sp, #32]
87807260:	9e09      	ldr	r6, [sp, #36]	; 0x24
87807262:	f8dd 80cc 	ldr.w	r8, [sp, #204]	; 0xcc
87807266:	e9dd 0104 	ldrd	r0, r1, [sp, #16]
8780726a:	f04f 0acd 	mov.w	sl, #205	; 0xcd
8780726e:	f3c0 1303 	ubfx	r3, r0, #4, #4
87807272:	f3c0 2903 	ubfx	r9, r0, #8, #4
87807276:	ea4f 3c10 	mov.w	ip, r0, lsr #12
8780727a:	eb03 0209 	add.w	r2, r3, r9
8780727e:	f000 010f 	and.w	r1, r0, #15
87807282:	eb09 0789 	add.w	r7, r9, r9, lsl #2
87807286:	4462      	add	r2, ip
87807288:	9102      	str	r1, [sp, #8]
8780728a:	00d1      	lsls	r1, r2, #3
8780728c:	eb0c 00cc 	add.w	r0, ip, ip, lsl #3
87807290:	eba1 0142 	sub.w	r1, r1, r2, lsl #1
87807294:	9a02      	ldr	r2, [sp, #8]
87807296:	4403      	add	r3, r0
87807298:	443b      	add	r3, r7
8780729a:	4411      	add	r1, r2
8780729c:	fb0a f201 	mul.w	r2, sl, r1
878072a0:	0ad2      	lsrs	r2, r2, #11
878072a2:	00d0      	lsls	r0, r2, #3
878072a4:	eb00 0042 	add.w	r0, r0, r2, lsl #1
878072a8:	189a      	adds	r2, r3, r2
878072aa:	bf08      	it	eq
878072ac:	f10b 0701 	addeq.w	r7, fp, #1
878072b0:	eba1 0100 	sub.w	r1, r1, r0
878072b4:	f101 0130 	add.w	r1, r1, #48	; 0x30
878072b8:	f88b 1000 	strb.w	r1, [fp]
878072bc:	d037      	beq.n	8780732e <number+0x432>
878072be:	fb0a f102 	mul.w	r1, sl, r2
878072c2:	0ac9      	lsrs	r1, r1, #11
878072c4:	00c8      	lsls	r0, r1, #3
878072c6:	eb01 0349 	add.w	r3, r1, r9, lsl #1
878072ca:	eb00 0141 	add.w	r1, r0, r1, lsl #1
878072ce:	1a52      	subs	r2, r2, r1
878072d0:	3230      	adds	r2, #48	; 0x30
878072d2:	f88b 2001 	strb.w	r2, [fp, #1]
878072d6:	ea53 020c 	orrs.w	r2, r3, ip
878072da:	bf08      	it	eq
878072dc:	f10b 0702 	addeq.w	r7, fp, #2
878072e0:	d025      	beq.n	8780732e <number+0x432>
878072e2:	011a      	lsls	r2, r3, #4
878072e4:	eba2 0283 	sub.w	r2, r2, r3, lsl #2
878072e8:	441a      	add	r2, r3
878072ea:	09d2      	lsrs	r2, r2, #7
878072ec:	00d1      	lsls	r1, r2, #3
878072ee:	eb01 0142 	add.w	r1, r1, r2, lsl #1
878072f2:	eb12 028c 	adds.w	r2, r2, ip, lsl #2
878072f6:	eba3 0301 	sub.w	r3, r3, r1
878072fa:	bf08      	it	eq
878072fc:	f10b 0703 	addeq.w	r7, fp, #3
87807300:	f103 0330 	add.w	r3, r3, #48	; 0x30
87807304:	f88b 3002 	strb.w	r3, [fp, #2]
87807308:	d011      	beq.n	8780732e <number+0x432>
8780730a:	fb0a f302 	mul.w	r3, sl, r2
8780730e:	f10b 0704 	add.w	r7, fp, #4
87807312:	0adb      	lsrs	r3, r3, #11
87807314:	00d9      	lsls	r1, r3, #3
87807316:	eb01 0143 	add.w	r1, r1, r3, lsl #1
8780731a:	1a52      	subs	r2, r2, r1
8780731c:	3230      	adds	r2, #48	; 0x30
8780731e:	f88b 2003 	strb.w	r2, [fp, #3]
87807322:	b123      	cbz	r3, 8780732e <number+0x432>
87807324:	f10b 0705 	add.w	r7, fp, #5
87807328:	3330      	adds	r3, #48	; 0x30
8780732a:	f88b 3004 	strb.w	r3, [fp, #4]
8780732e:	ebce 0707 	rsb	r7, lr, r7
87807332:	e6cb      	b.n	878070cc <number+0x1d0>
87807334:	4660      	mov	r0, ip
87807336:	e63a      	b.n	87806fae <number+0xb2>
87807338:	4628      	mov	r0, r5
8780733a:	e664      	b.n	87807006 <number+0x10a>
8780733c:	f10d 0e34 	add.w	lr, sp, #52	; 0x34
87807340:	46f3      	mov	fp, lr
87807342:	e790      	b.n	87807266 <number+0x36a>

87807344 <simple_strtoul>:
87807344:	b5f0      	push	{r4, r5, r6, r7, lr}
87807346:	4606      	mov	r6, r0
87807348:	b96a      	cbnz	r2, 87807366 <simple_strtoul+0x22>
8780734a:	7804      	ldrb	r4, [r0, #0]
8780734c:	2c30      	cmp	r4, #48	; 0x30
8780734e:	d043      	beq.n	878073d8 <simple_strtoul+0x94>
87807350:	f24e 37f4 	movw	r7, #58356	; 0xe3f4
87807354:	4623      	mov	r3, r4
87807356:	f2c8 7780 	movt	r7, #34688	; 0x8780
8780735a:	220a      	movs	r2, #10
8780735c:	f817 e004 	ldrb.w	lr, [r7, r4]
87807360:	f00e 0544 	and.w	r5, lr, #68	; 0x44
87807364:	e00b      	b.n	8780737e <simple_strtoul+0x3a>
87807366:	2a10      	cmp	r2, #16
87807368:	d029      	beq.n	878073be <simple_strtoul+0x7a>
8780736a:	7803      	ldrb	r3, [r0, #0]
8780736c:	f24e 37f4 	movw	r7, #58356	; 0xe3f4
87807370:	f2c8 7780 	movt	r7, #34688	; 0x8780
87807374:	f817 e003 	ldrb.w	lr, [r7, r3]
87807378:	461c      	mov	r4, r3
8780737a:	f00e 0544 	and.w	r5, lr, #68	; 0x44
8780737e:	4628      	mov	r0, r5
87807380:	b1d5      	cbz	r5, 878073b8 <simple_strtoul+0x74>
87807382:	2000      	movs	r0, #0
87807384:	e009      	b.n	8780739a <simple_strtoul+0x56>
87807386:	f816 3f01 	ldrb.w	r3, [r6, #1]!
8780738a:	fb02 4000 	mla	r0, r2, r0, r4
8780738e:	f817 e003 	ldrb.w	lr, [r7, r3]
87807392:	461c      	mov	r4, r3
87807394:	f01e 0f44 	tst.w	lr, #68	; 0x44
87807398:	d00e      	beq.n	878073b8 <simple_strtoul+0x74>
8780739a:	f01e 0f04 	tst.w	lr, #4
8780739e:	f1a4 0430 	sub.w	r4, r4, #48	; 0x30
878073a2:	d107      	bne.n	878073b4 <simple_strtoul+0x70>
878073a4:	f1a3 0420 	sub.w	r4, r3, #32
878073a8:	f01e 0f02 	tst.w	lr, #2
878073ac:	bf18      	it	ne
878073ae:	b2e3      	uxtbne	r3, r4
878073b0:	f1a3 0437 	sub.w	r4, r3, #55	; 0x37
878073b4:	4294      	cmp	r4, r2
878073b6:	d3e6      	bcc.n	87807386 <simple_strtoul+0x42>
878073b8:	b101      	cbz	r1, 878073bc <simple_strtoul+0x78>
878073ba:	600e      	str	r6, [r1, #0]
878073bc:	bdf0      	pop	{r4, r5, r6, r7, pc}
878073be:	7804      	ldrb	r4, [r0, #0]
878073c0:	2c30      	cmp	r4, #48	; 0x30
878073c2:	d020      	beq.n	87807406 <simple_strtoul+0xc2>
878073c4:	f24e 37f4 	movw	r7, #58356	; 0xe3f4
878073c8:	4623      	mov	r3, r4
878073ca:	f2c8 7780 	movt	r7, #34688	; 0x8780
878073ce:	f817 e004 	ldrb.w	lr, [r7, r4]
878073d2:	f00e 0544 	and.w	r5, lr, #68	; 0x44
878073d6:	e7d2      	b.n	8780737e <simple_strtoul+0x3a>
878073d8:	7843      	ldrb	r3, [r0, #1]
878073da:	f24e 37f4 	movw	r7, #58356	; 0xe3f4
878073de:	f2c8 7780 	movt	r7, #34688	; 0x8780
878073e2:	3001      	adds	r0, #1
878073e4:	f817 e003 	ldrb.w	lr, [r7, r3]
878073e8:	461c      	mov	r4, r3
878073ea:	f01e 0f02 	tst.w	lr, #2
878073ee:	bf16      	itet	ne
878073f0:	f1a3 0220 	subne.w	r2, r3, #32
878073f4:	461a      	moveq	r2, r3
878073f6:	b2d2      	uxtbne	r2, r2
878073f8:	2a58      	cmp	r2, #88	; 0x58
878073fa:	d01d      	beq.n	87807438 <simple_strtoul+0xf4>
878073fc:	4606      	mov	r6, r0
878073fe:	f00e 0544 	and.w	r5, lr, #68	; 0x44
87807402:	2208      	movs	r2, #8
87807404:	e7bb      	b.n	8780737e <simple_strtoul+0x3a>
87807406:	7843      	ldrb	r3, [r0, #1]
87807408:	f24e 37f4 	movw	r7, #58356	; 0xe3f4
8780740c:	f2c8 7780 	movt	r7, #34688	; 0x8780
87807410:	5cf8      	ldrb	r0, [r7, r3]
87807412:	0780      	lsls	r0, r0, #30
87807414:	bf44      	itt	mi
87807416:	3b20      	submi	r3, #32
87807418:	b2db      	uxtbmi	r3, r3
8780741a:	2b58      	cmp	r3, #88	; 0x58
8780741c:	bf0f      	iteee	eq
8780741e:	78b3      	ldrbeq	r3, [r6, #2]
87807420:	2430      	movne	r4, #48	; 0x30
87807422:	f897 e030 	ldrbne.w	lr, [r7, #48]	; 0x30
87807426:	4623      	movne	r3, r4
87807428:	bf02      	ittt	eq
8780742a:	3602      	addeq	r6, #2
8780742c:	f817 e003 	ldrbeq.w	lr, [r7, r3]
87807430:	461c      	moveq	r4, r3
87807432:	f00e 0544 	and.w	r5, lr, #68	; 0x44
87807436:	e7a2      	b.n	8780737e <simple_strtoul+0x3a>
87807438:	78b5      	ldrb	r5, [r6, #2]
8780743a:	5d7a      	ldrb	r2, [r7, r5]
8780743c:	f012 0f44 	tst.w	r2, #68	; 0x44
87807440:	d0dc      	beq.n	878073fc <simple_strtoul+0xb8>
87807442:	4696      	mov	lr, r2
87807444:	462c      	mov	r4, r5
87807446:	3602      	adds	r6, #2
87807448:	462b      	mov	r3, r5
8780744a:	2210      	movs	r2, #16
8780744c:	e799      	b.n	87807382 <simple_strtoul+0x3e>
8780744e:	bf00      	nop

87807450 <simple_strtol>:
87807450:	b510      	push	{r4, lr}
87807452:	7804      	ldrb	r4, [r0, #0]
87807454:	2c2d      	cmp	r4, #45	; 0x2d
87807456:	d003      	beq.n	87807460 <simple_strtol+0x10>
87807458:	e8bd 4010 	ldmia.w	sp!, {r4, lr}
8780745c:	f7ff bf72 	b.w	87807344 <simple_strtoul>
87807460:	3001      	adds	r0, #1
87807462:	f7ff ff6f 	bl	87807344 <simple_strtoul>
87807466:	4240      	negs	r0, r0
87807468:	bd10      	pop	{r4, pc}
8780746a:	bf00      	nop

8780746c <simple_strtoull>:
8780746c:	e92d 4ff0 	stmdb	sp!, {r4, r5, r6, r7, r8, r9, sl, fp, lr}
87807470:	4684      	mov	ip, r0
87807472:	468a      	mov	sl, r1
87807474:	4616      	mov	r6, r2
87807476:	2a00      	cmp	r2, #0
87807478:	d13f      	bne.n	878074fa <simple_strtoull+0x8e>
8780747a:	7802      	ldrb	r2, [r0, #0]
8780747c:	2a30      	cmp	r2, #48	; 0x30
8780747e:	d056      	beq.n	8780752e <simple_strtoull+0xc2>
87807480:	f24e 3bf4 	movw	fp, #58356	; 0xe3f4
87807484:	4613      	mov	r3, r2
87807486:	f2c8 7b80 	movt	fp, #34688	; 0x8780
8780748a:	260a      	movs	r6, #10
8780748c:	f81b e002 	ldrb.w	lr, [fp, r2]
87807490:	f00e 0144 	and.w	r1, lr, #68	; 0x44
87807494:	2900      	cmp	r1, #0
87807496:	d061      	beq.n	8780755c <simple_strtoull+0xf0>
87807498:	2700      	movs	r7, #0
8780749a:	2000      	movs	r0, #0
8780749c:	2100      	movs	r1, #0
8780749e:	e00e      	b.n	878074be <simple_strtoull+0x52>
878074a0:	fb06 3101 	mla	r1, r6, r1, r3
878074a4:	f81c 3f01 	ldrb.w	r3, [ip, #1]!
878074a8:	eb14 0008 	adds.w	r0, r4, r8
878074ac:	f81b e003 	ldrb.w	lr, [fp, r3]
878074b0:	461a      	mov	r2, r3
878074b2:	4489      	add	r9, r1
878074b4:	eb45 0109 	adc.w	r1, r5, r9
878074b8:	f01e 0f44 	tst.w	lr, #68	; 0x44
878074bc:	d016      	beq.n	878074ec <simple_strtoull+0x80>
878074be:	f01e 0f04 	tst.w	lr, #4
878074c2:	f1a2 0430 	sub.w	r4, r2, #48	; 0x30
878074c6:	d108      	bne.n	878074da <simple_strtoull+0x6e>
878074c8:	3b20      	subs	r3, #32
878074ca:	f01e 0f02 	tst.w	lr, #2
878074ce:	b2db      	uxtb	r3, r3
878074d0:	f1a2 0437 	sub.w	r4, r2, #55	; 0x37
878074d4:	bf18      	it	ne
878074d6:	f1a3 0437 	subne.w	r4, r3, #55	; 0x37
878074da:	17e5      	asrs	r5, r4, #31
878074dc:	fb00 f307 	mul.w	r3, r0, r7
878074e0:	42bd      	cmp	r5, r7
878074e2:	fba0 8906 	umull	r8, r9, r0, r6
878074e6:	bf08      	it	eq
878074e8:	42b4      	cmpeq	r4, r6
878074ea:	d3d9      	bcc.n	878074a0 <simple_strtoull+0x34>
878074ec:	f1ba 0f00 	cmp.w	sl, #0
878074f0:	d001      	beq.n	878074f6 <simple_strtoull+0x8a>
878074f2:	f8ca c000 	str.w	ip, [sl]
878074f6:	e8bd 8ff0 	ldmia.w	sp!, {r4, r5, r6, r7, r8, r9, sl, fp, pc}
878074fa:	2a10      	cmp	r2, #16
878074fc:	d00a      	beq.n	87807514 <simple_strtoull+0xa8>
878074fe:	7803      	ldrb	r3, [r0, #0]
87807500:	f24e 3bf4 	movw	fp, #58356	; 0xe3f4
87807504:	f2c8 7b80 	movt	fp, #34688	; 0x8780
87807508:	f81b e003 	ldrb.w	lr, [fp, r3]
8780750c:	461a      	mov	r2, r3
8780750e:	f00e 0144 	and.w	r1, lr, #68	; 0x44
87807512:	e7bf      	b.n	87807494 <simple_strtoull+0x28>
87807514:	7802      	ldrb	r2, [r0, #0]
87807516:	2a30      	cmp	r2, #48	; 0x30
87807518:	d031      	beq.n	8780757e <simple_strtoull+0x112>
8780751a:	f24e 3bf4 	movw	fp, #58356	; 0xe3f4
8780751e:	4613      	mov	r3, r2
87807520:	f2c8 7b80 	movt	fp, #34688	; 0x8780
87807524:	f81b e002 	ldrb.w	lr, [fp, r2]
87807528:	f00e 0144 	and.w	r1, lr, #68	; 0x44
8780752c:	e7b2      	b.n	87807494 <simple_strtoull+0x28>
8780752e:	7843      	ldrb	r3, [r0, #1]
87807530:	f24e 3bf4 	movw	fp, #58356	; 0xe3f4
87807534:	f2c8 7b80 	movt	fp, #34688	; 0x8780
87807538:	3001      	adds	r0, #1
8780753a:	f81b e003 	ldrb.w	lr, [fp, r3]
8780753e:	461a      	mov	r2, r3
87807540:	f01e 0f02 	tst.w	lr, #2
87807544:	bf16      	itet	ne
87807546:	f1a3 0120 	subne.w	r1, r3, #32
8780754a:	4619      	moveq	r1, r3
8780754c:	b2c9      	uxtbne	r1, r1
8780754e:	2958      	cmp	r1, #88	; 0x58
87807550:	d007      	beq.n	87807562 <simple_strtoull+0xf6>
87807552:	4684      	mov	ip, r0
87807554:	f00e 0144 	and.w	r1, lr, #68	; 0x44
87807558:	2608      	movs	r6, #8
8780755a:	e79b      	b.n	87807494 <simple_strtoull+0x28>
8780755c:	2000      	movs	r0, #0
8780755e:	2100      	movs	r1, #0
87807560:	e7c4      	b.n	878074ec <simple_strtoull+0x80>
87807562:	f89c 4002 	ldrb.w	r4, [ip, #2]
87807566:	f81b 1004 	ldrb.w	r1, [fp, r4]
8780756a:	f011 0f44 	tst.w	r1, #68	; 0x44
8780756e:	d0f0      	beq.n	87807552 <simple_strtoull+0xe6>
87807570:	4622      	mov	r2, r4
87807572:	f10c 0c02 	add.w	ip, ip, #2
87807576:	468e      	mov	lr, r1
87807578:	4623      	mov	r3, r4
8780757a:	2610      	movs	r6, #16
8780757c:	e78c      	b.n	87807498 <simple_strtoull+0x2c>
8780757e:	7843      	ldrb	r3, [r0, #1]
87807580:	f24e 3bf4 	movw	fp, #58356	; 0xe3f4
87807584:	f2c8 7b80 	movt	fp, #34688	; 0x8780
87807588:	f81b 2003 	ldrb.w	r2, [fp, r3]
8780758c:	0792      	lsls	r2, r2, #30
8780758e:	bf44      	itt	mi
87807590:	3b20      	submi	r3, #32
87807592:	b2db      	uxtbmi	r3, r3
87807594:	2b58      	cmp	r3, #88	; 0x58
87807596:	bf0f      	iteee	eq
87807598:	7883      	ldrbeq	r3, [r0, #2]
8780759a:	2230      	movne	r2, #48	; 0x30
8780759c:	f89b e030 	ldrbne.w	lr, [fp, #48]	; 0x30
878075a0:	4613      	movne	r3, r2
878075a2:	bf02      	ittt	eq
878075a4:	f100 0c02 	addeq.w	ip, r0, #2
878075a8:	f81b e003 	ldrbeq.w	lr, [fp, r3]
878075ac:	461a      	moveq	r2, r3
878075ae:	f00e 0144 	and.w	r1, lr, #68	; 0x44
878075b2:	e76f      	b.n	87807494 <simple_strtoull+0x28>

878075b4 <simple_strtoll>:
878075b4:	b510      	push	{r4, lr}
878075b6:	7804      	ldrb	r4, [r0, #0]
878075b8:	2c2d      	cmp	r4, #45	; 0x2d
878075ba:	d003      	beq.n	878075c4 <simple_strtoll+0x10>
878075bc:	e8bd 4010 	ldmia.w	sp!, {r4, lr}
878075c0:	f7ff bf54 	b.w	8780746c <simple_strtoull>
878075c4:	3001      	adds	r0, #1
878075c6:	f7ff ff51 	bl	8780746c <simple_strtoull>
878075ca:	4240      	negs	r0, r0
878075cc:	eb61 0141 	sbc.w	r1, r1, r1, lsl #1
878075d0:	bd10      	pop	{r4, pc}
878075d2:	bf00      	nop

878075d4 <vsnprintf>:
878075d4:	e92d 4ff0 	stmdb	sp!, {r4, r5, r6, r7, r8, r9, sl, fp, lr}
878075d8:	f1b1 0a00 	subs.w	sl, r1, #0
878075dc:	b089      	sub	sp, #36	; 0x24
878075de:	f2c0 82fc 	blt.w	87807bda <vsnprintf+0x606>
878075e2:	f10a 37ff 	add.w	r7, sl, #4294967295	; 0xffffffff
878075e6:	4699      	mov	r9, r3
878075e8:	4407      	add	r7, r0
878075ea:	1e43      	subs	r3, r0, #1
878075ec:	429f      	cmp	r7, r3
878075ee:	4604      	mov	r4, r0
878075f0:	4616      	mov	r6, r2
878075f2:	7810      	ldrb	r0, [r2, #0]
878075f4:	f0c0 81c4 	bcc.w	87807980 <vsnprintf+0x3ac>
878075f8:	2800      	cmp	r0, #0
878075fa:	f000 82f9 	beq.w	87807bf0 <vsnprintf+0x61c>
878075fe:	9405      	str	r4, [sp, #20]
87807600:	f24e 38f4 	movw	r8, #58356	; 0xe3f4
87807604:	f24e 3b1c 	movw	fp, #58140	; 0xe31c
87807608:	f2c8 7880 	movt	r8, #34688	; 0x8780
8780760c:	f2c8 7b80 	movt	fp, #34688	; 0x8780
87807610:	e008      	b.n	87807624 <vsnprintf+0x50>
87807612:	42a7      	cmp	r7, r4
87807614:	bf28      	it	cs
87807616:	7020      	strbcs	r0, [r4, #0]
87807618:	7870      	ldrb	r0, [r6, #1]
8780761a:	3401      	adds	r4, #1
8780761c:	3601      	adds	r6, #1
8780761e:	2800      	cmp	r0, #0
87807620:	f000 813f 	beq.w	878078a2 <vsnprintf+0x2ce>
87807624:	2825      	cmp	r0, #37	; 0x25
87807626:	bf08      	it	eq
87807628:	2300      	moveq	r3, #0
8780762a:	d1f2      	bne.n	87807612 <vsnprintf+0x3e>
8780762c:	7875      	ldrb	r5, [r6, #1]
8780762e:	1c70      	adds	r0, r6, #1
87807630:	f1a5 0220 	sub.w	r2, r5, #32
87807634:	2a10      	cmp	r2, #16
87807636:	d81e      	bhi.n	87807676 <vsnprintf+0xa2>
87807638:	e8df f002 	tbb	[pc, r2]
8780763c:	151d1d19 	ldrne	r1, [sp, #-3353]	; 0xd19
87807640:	1d1d1d1d 	ldcne	13, cr1, [sp, #-116]	; 0xffffff8c
87807644:	111d1d1d 	tstne	sp, sp, lsl sp
87807648:	1d1d0d1d 	ldcne	13, cr0, [sp, #-116]	; 0xffffff8c
8780764c:	f0430009 			; <UNDEFINED> instruction: 0xf0430009
87807650:	0301      	lsls	r1, r0, #12
87807652:	4606      	mov	r6, r0
87807654:	e7ea      	b.n	8780762c <vsnprintf+0x58>
87807656:	f043 0310 	orr.w	r3, r3, #16
8780765a:	4606      	mov	r6, r0
8780765c:	e7e6      	b.n	8780762c <vsnprintf+0x58>
8780765e:	f043 0304 	orr.w	r3, r3, #4
87807662:	4606      	mov	r6, r0
87807664:	e7e2      	b.n	8780762c <vsnprintf+0x58>
87807666:	f043 0320 	orr.w	r3, r3, #32
8780766a:	4606      	mov	r6, r0
8780766c:	e7de      	b.n	8780762c <vsnprintf+0x58>
8780766e:	f043 0308 	orr.w	r3, r3, #8
87807672:	4606      	mov	r6, r0
87807674:	e7da      	b.n	8780762c <vsnprintf+0x58>
87807676:	f818 2005 	ldrb.w	r2, [r8, r5]
8780767a:	4629      	mov	r1, r5
8780767c:	0752      	lsls	r2, r2, #29
8780767e:	f140 80dc 	bpl.w	8780783a <vsnprintf+0x266>
87807682:	2500      	movs	r5, #0
87807684:	00ea      	lsls	r2, r5, #3
87807686:	eb02 0545 	add.w	r5, r2, r5, lsl #1
8780768a:	440d      	add	r5, r1
8780768c:	f810 1f01 	ldrb.w	r1, [r0, #1]!
87807690:	3d30      	subs	r5, #48	; 0x30
87807692:	f818 2001 	ldrb.w	r2, [r8, r1]
87807696:	0752      	lsls	r2, r2, #29
87807698:	d4f4      	bmi.n	87807684 <vsnprintf+0xb0>
8780769a:	292e      	cmp	r1, #46	; 0x2e
8780769c:	bf18      	it	ne
8780769e:	f04f 3eff 	movne.w	lr, #4294967295	; 0xffffffff
878076a2:	f000 80e2 	beq.w	8780786a <vsnprintf+0x296>
878076a6:	f001 02df 	and.w	r2, r1, #223	; 0xdf
878076aa:	2a5a      	cmp	r2, #90	; 0x5a
878076ac:	bf18      	it	ne
878076ae:	2a4c      	cmpne	r2, #76	; 0x4c
878076b0:	bf0c      	ite	eq
878076b2:	2201      	moveq	r2, #1
878076b4:	2200      	movne	r2, #0
878076b6:	2968      	cmp	r1, #104	; 0x68
878076b8:	bf08      	it	eq
878076ba:	f042 0201 	orreq.w	r2, r2, #1
878076be:	2a00      	cmp	r2, #0
878076c0:	d15b      	bne.n	8780777a <vsnprintf+0x1a6>
878076c2:	f04f 32ff 	mov.w	r2, #4294967295	; 0xffffffff
878076c6:	3925      	subs	r1, #37	; 0x25
878076c8:	2953      	cmp	r1, #83	; 0x53
878076ca:	f200 823c 	bhi.w	87807b46 <vsnprintf+0x572>
878076ce:	e8df f011 	tbh	[pc, r1, lsl #1]
878076d2:	023a01ec 	eorseq	r0, sl, #236, 2	; 0x3b
878076d6:	023a023a 	eorseq	r0, sl, #-1610612733	; 0xa0000003
878076da:	023a023a 	eorseq	r0, sl, #-1610612733	; 0xa0000003
878076de:	023a023a 	eorseq	r0, sl, #-1610612733	; 0xa0000003
878076e2:	023a023a 	eorseq	r0, sl, #-1610612733	; 0xa0000003
878076e6:	023a023a 	eorseq	r0, sl, #-1610612733	; 0xa0000003
878076ea:	023a023a 	eorseq	r0, sl, #-1610612733	; 0xa0000003
878076ee:	023a023a 	eorseq	r0, sl, #-1610612733	; 0xa0000003
878076f2:	023a023a 	eorseq	r0, sl, #-1610612733	; 0xa0000003
878076f6:	023a023a 	eorseq	r0, sl, #-1610612733	; 0xa0000003
878076fa:	023a023a 	eorseq	r0, sl, #-1610612733	; 0xa0000003
878076fe:	023a023a 	eorseq	r0, sl, #-1610612733	; 0xa0000003
87807702:	023a023a 	eorseq	r0, sl, #-1610612733	; 0xa0000003
87807706:	023a023a 	eorseq	r0, sl, #-1610612733	; 0xa0000003
8780770a:	023a023a 	eorseq	r0, sl, #-1610612733	; 0xa0000003
8780770e:	023a023a 	eorseq	r0, sl, #-1610612733	; 0xa0000003
87807712:	023a023a 	eorseq	r0, sl, #-1610612733	; 0xa0000003
87807716:	023a023a 	eorseq	r0, sl, #-1610612733	; 0xa0000003
8780771a:	023a023a 	eorseq	r0, sl, #-1610612733	; 0xa0000003
8780771e:	023a023a 	eorseq	r0, sl, #-1610612733	; 0xa0000003
87807722:	023a023a 	eorseq	r0, sl, #-1610612733	; 0xa0000003
87807726:	023a023a 	eorseq	r0, sl, #-1610612733	; 0xa0000003
8780772a:	023a023a 	eorseq	r0, sl, #-1610612733	; 0xa0000003
8780772e:	023a023a 	eorseq	r0, sl, #-1610612733	; 0xa0000003
87807732:	023a023a 	eorseq	r0, sl, #-1610612733	; 0xa0000003
87807736:	016f023a 	cmneq	pc, sl, lsr r2	; <UNPREDICTABLE>
8780773a:	023a023a 	eorseq	r0, sl, #-1610612733	; 0xa0000003
8780773e:	023a023a 	eorseq	r0, sl, #-1610612733	; 0xa0000003
87807742:	023a023a 	eorseq	r0, sl, #-1610612733	; 0xa0000003
87807746:	023a023a 	eorseq	r0, sl, #-1610612733	; 0xa0000003
8780774a:	023a023a 	eorseq	r0, sl, #-1610612733	; 0xa0000003
8780774e:	01b801be 			; <UNDEFINED> instruction: 0x01b801be
87807752:	023a023a 	eorseq	r0, sl, #-1610612733	; 0xa0000003
87807756:	023a023a 	eorseq	r0, sl, #-1610612733	; 0xa0000003
8780775a:	023a01b8 	eorseq	r0, sl, #184, 2	; 0x2e
8780775e:	023a023a 	eorseq	r0, sl, #-1610612733	; 0xa0000003
87807762:	0262023a 	rsbeq	r0, r2, #-1610612733	; 0xa0000003
87807766:	019b01b4 			; <UNDEFINED> instruction: 0x019b01b4
8780776a:	023a023a 	eorseq	r0, sl, #-1610612733	; 0xa0000003
8780776e:	023a01f2 	eorseq	r0, sl, #-2147483588	; 0x8000003c
87807772:	023a0274 	eorseq	r0, sl, #116, 4	; 0x40000007
87807776:	0272023a 	rsbseq	r0, r2, #-1610612733	; 0xa0000003
8780777a:	460a      	mov	r2, r1
8780777c:	1c46      	adds	r6, r0, #1
8780777e:	2a6c      	cmp	r2, #108	; 0x6c
87807780:	7841      	ldrb	r1, [r0, #1]
87807782:	f000 809b 	beq.w	878078bc <vsnprintf+0x2e8>
87807786:	3925      	subs	r1, #37	; 0x25
87807788:	2953      	cmp	r1, #83	; 0x53
8780778a:	f200 81dd 	bhi.w	87807b48 <vsnprintf+0x574>
8780778e:	e8df f011 	tbh	[pc, r1, lsl #1]
87807792:	01db018d 	bicseq	r0, fp, sp, lsl #3
87807796:	01db01db 	ldrsbeq	r0, [fp, #27]
8780779a:	01db01db 	ldrsbeq	r0, [fp, #27]
8780779e:	01db01db 	ldrsbeq	r0, [fp, #27]
878077a2:	01db01db 	ldrsbeq	r0, [fp, #27]
878077a6:	01db01db 	ldrsbeq	r0, [fp, #27]
878077aa:	01db01db 	ldrsbeq	r0, [fp, #27]
878077ae:	01db01db 	ldrsbeq	r0, [fp, #27]
878077b2:	01db01db 	ldrsbeq	r0, [fp, #27]
878077b6:	01db01db 	ldrsbeq	r0, [fp, #27]
878077ba:	01db01db 	ldrsbeq	r0, [fp, #27]
878077be:	01db01db 	ldrsbeq	r0, [fp, #27]
878077c2:	01db01db 	ldrsbeq	r0, [fp, #27]
878077c6:	01db01db 	ldrsbeq	r0, [fp, #27]
878077ca:	01db01db 	ldrsbeq	r0, [fp, #27]
878077ce:	01db01db 	ldrsbeq	r0, [fp, #27]
878077d2:	01db01db 	ldrsbeq	r0, [fp, #27]
878077d6:	01db01db 	ldrsbeq	r0, [fp, #27]
878077da:	01db01db 	ldrsbeq	r0, [fp, #27]
878077de:	01db01db 	ldrsbeq	r0, [fp, #27]
878077e2:	01db01db 	ldrsbeq	r0, [fp, #27]
878077e6:	01db01db 	ldrsbeq	r0, [fp, #27]
878077ea:	01db01db 	ldrsbeq	r0, [fp, #27]
878077ee:	01db01db 	ldrsbeq	r0, [fp, #27]
878077f2:	01db01db 	ldrsbeq	r0, [fp, #27]
878077f6:	011001db 			; <UNDEFINED> instruction: 0x011001db
878077fa:	01db01db 	ldrsbeq	r0, [fp, #27]
878077fe:	01db01db 	ldrsbeq	r0, [fp, #27]
87807802:	01db01db 	ldrsbeq	r0, [fp, #27]
87807806:	01db01db 	ldrsbeq	r0, [fp, #27]
8780780a:	01db01db 	ldrsbeq	r0, [fp, #27]
8780780e:	0159015f 	cmpeq	r9, pc, asr r1
87807812:	01db01db 	ldrsbeq	r0, [fp, #27]
87807816:	01db01db 	ldrsbeq	r0, [fp, #27]
8780781a:	01db0159 	bicseq	r0, fp, r9, asr r1
8780781e:	01db01db 	ldrsbeq	r0, [fp, #27]
87807822:	020301db 	andeq	r0, r3, #-1073741770	; 0xc0000036
87807826:	013c0155 	teqeq	ip, r5, asr r1
8780782a:	01db01db 	ldrsbeq	r0, [fp, #27]
8780782e:	01db0193 			; <UNDEFINED> instruction: 0x01db0193
87807832:	01db0132 	bicseq	r0, fp, r2, lsr r1
87807836:	011201db 			; <UNDEFINED> instruction: 0x011201db
8780783a:	2d2a      	cmp	r5, #42	; 0x2a
8780783c:	bf1c      	itt	ne
8780783e:	4629      	movne	r1, r5
87807840:	f04f 35ff 	movne.w	r5, #4294967295	; 0xffffffff
87807844:	f47f af29 	bne.w	8780769a <vsnprintf+0xc6>
87807848:	f8d9 5000 	ldr.w	r5, [r9]
8780784c:	1cb0      	adds	r0, r6, #2
8780784e:	78b1      	ldrb	r1, [r6, #2]
87807850:	f109 0904 	add.w	r9, r9, #4
87807854:	2d00      	cmp	r5, #0
87807856:	bfbc      	itt	lt
87807858:	426d      	neglt	r5, r5
8780785a:	f043 0310 	orrlt.w	r3, r3, #16
8780785e:	292e      	cmp	r1, #46	; 0x2e
87807860:	bf18      	it	ne
87807862:	f04f 3eff 	movne.w	lr, #4294967295	; 0xffffffff
87807866:	f47f af1e 	bne.w	878076a6 <vsnprintf+0xd2>
8780786a:	7841      	ldrb	r1, [r0, #1]
8780786c:	f100 0c01 	add.w	ip, r0, #1
87807870:	f818 6001 	ldrb.w	r6, [r8, r1]
87807874:	f006 0604 	and.w	r6, r6, #4
87807878:	f006 02ff 	and.w	r2, r6, #255	; 0xff
8780787c:	2e00      	cmp	r6, #0
8780787e:	f000 8088 	beq.w	87807992 <vsnprintf+0x3be>
87807882:	4660      	mov	r0, ip
87807884:	2200      	movs	r2, #0
87807886:	00d6      	lsls	r6, r2, #3
87807888:	eb06 0242 	add.w	r2, r6, r2, lsl #1
8780788c:	440a      	add	r2, r1
8780788e:	f810 1f01 	ldrb.w	r1, [r0, #1]!
87807892:	3a30      	subs	r2, #48	; 0x30
87807894:	f818 6001 	ldrb.w	r6, [r8, r1]
87807898:	0776      	lsls	r6, r6, #29
8780789a:	d4f4      	bmi.n	87807886 <vsnprintf+0x2b2>
8780789c:	ea22 7ee2 	bic.w	lr, r2, r2, asr #31
878078a0:	e701      	b.n	878076a6 <vsnprintf+0xd2>
878078a2:	4623      	mov	r3, r4
878078a4:	9a05      	ldr	r2, [sp, #20]
878078a6:	1aa0      	subs	r0, r4, r2
878078a8:	42bb      	cmp	r3, r7
878078aa:	d964      	bls.n	87807976 <vsnprintf+0x3a2>
878078ac:	f1ba 0f00 	cmp.w	sl, #0
878078b0:	d001      	beq.n	878078b6 <vsnprintf+0x2e2>
878078b2:	2300      	movs	r3, #0
878078b4:	703b      	strb	r3, [r7, #0]
878078b6:	b009      	add	sp, #36	; 0x24
878078b8:	e8bd 8ff0 	ldmia.w	sp!, {r4, r5, r6, r7, r8, r9, sl, fp, pc}
878078bc:	296c      	cmp	r1, #108	; 0x6c
878078be:	f000 8174 	beq.w	87807baa <vsnprintf+0x5d6>
878078c2:	3925      	subs	r1, #37	; 0x25
878078c4:	2953      	cmp	r1, #83	; 0x53
878078c6:	f200 813f 	bhi.w	87807b48 <vsnprintf+0x574>
878078ca:	e8df f011 	tbh	[pc, r1, lsl #1]
878078ce:	013d00ef 	teqeq	sp, pc, ror #1
878078d2:	013d013d 	teqeq	sp, sp, lsr r1
878078d6:	013d013d 	teqeq	sp, sp, lsr r1
878078da:	013d013d 	teqeq	sp, sp, lsr r1
878078de:	013d013d 	teqeq	sp, sp, lsr r1
878078e2:	013d013d 	teqeq	sp, sp, lsr r1
878078e6:	013d013d 	teqeq	sp, sp, lsr r1
878078ea:	013d013d 	teqeq	sp, sp, lsr r1
878078ee:	013d013d 	teqeq	sp, sp, lsr r1
878078f2:	013d013d 	teqeq	sp, sp, lsr r1
878078f6:	013d013d 	teqeq	sp, sp, lsr r1
878078fa:	013d013d 	teqeq	sp, sp, lsr r1
878078fe:	013d013d 	teqeq	sp, sp, lsr r1
87807902:	013d013d 	teqeq	sp, sp, lsr r1
87807906:	013d013d 	teqeq	sp, sp, lsr r1
8780790a:	013d013d 	teqeq	sp, sp, lsr r1
8780790e:	013d013d 	teqeq	sp, sp, lsr r1
87807912:	013d013d 	teqeq	sp, sp, lsr r1
87807916:	013d013d 	teqeq	sp, sp, lsr r1
8780791a:	013d013d 	teqeq	sp, sp, lsr r1
8780791e:	013d013d 	teqeq	sp, sp, lsr r1
87807922:	013d013d 	teqeq	sp, sp, lsr r1
87807926:	013d013d 	teqeq	sp, sp, lsr r1
8780792a:	013d013d 	teqeq	sp, sp, lsr r1
8780792e:	013d013d 	teqeq	sp, sp, lsr r1
87807932:	0072013d 	rsbseq	r0, r2, sp, lsr r1
87807936:	013d013d 	teqeq	sp, sp, lsr r1
8780793a:	013d013d 	teqeq	sp, sp, lsr r1
8780793e:	013d013d 	teqeq	sp, sp, lsr r1
87807942:	013d013d 	teqeq	sp, sp, lsr r1
87807946:	013d013d 	teqeq	sp, sp, lsr r1
8780794a:	00bb00c1 	adcseq	r0, fp, r1, asr #1
8780794e:	013d013d 	teqeq	sp, sp, lsr r1
87807952:	013d013d 	teqeq	sp, sp, lsr r1
87807956:	013d00bb 	ldrheq	r0, [sp, -fp]!
8780795a:	013d013d 	teqeq	sp, sp, lsr r1
8780795e:	017d013d 	cmneq	sp, sp, lsr r1
87807962:	009e00b7 	ldrheq	r0, [lr], r7
87807966:	013d013d 	teqeq	sp, sp, lsr r1
8780796a:	013d00f5 	ldrsheq	r0, [sp, -r5]!
8780796e:	013d0158 	teqeq	sp, r8, asr r1
87807972:	0074013d 	rsbseq	r0, r4, sp, lsr r1
87807976:	2200      	movs	r2, #0
87807978:	701a      	strb	r2, [r3, #0]
8780797a:	b009      	add	sp, #36	; 0x24
8780797c:	e8bd 8ff0 	ldmia.w	sp!, {r4, r5, r6, r7, r8, r9, sl, fp, pc}
87807980:	9405      	str	r4, [sp, #20]
87807982:	f1c4 0a00 	rsb	sl, r4, #0
87807986:	4623      	mov	r3, r4
87807988:	2800      	cmp	r0, #0
8780798a:	d0f4      	beq.n	87807976 <vsnprintf+0x3a2>
8780798c:	f04f 37ff 	mov.w	r7, #4294967295	; 0xffffffff
87807990:	e636      	b.n	87807600 <vsnprintf+0x2c>
87807992:	292a      	cmp	r1, #42	; 0x2a
87807994:	bf1c      	itt	ne
87807996:	4660      	movne	r0, ip
87807998:	4696      	movne	lr, r2
8780799a:	f47f ae84 	bne.w	878076a6 <vsnprintf+0xd2>
8780799e:	f8d9 2000 	ldr.w	r2, [r9]
878079a2:	3002      	adds	r0, #2
878079a4:	7801      	ldrb	r1, [r0, #0]
878079a6:	f109 0904 	add.w	r9, r9, #4
878079aa:	ea22 7ee2 	bic.w	lr, r2, r2, asr #31
878079ae:	e67a      	b.n	878076a6 <vsnprintf+0xd2>
878079b0:	4606      	mov	r6, r0
878079b2:	f043 0340 	orr.w	r3, r3, #64	; 0x40
878079b6:	f04f 0c10 	mov.w	ip, #16
878079ba:	2a4c      	cmp	r2, #76	; 0x4c
878079bc:	d01f      	beq.n	878079fe <vsnprintf+0x42a>
878079be:	2a6c      	cmp	r2, #108	; 0x6c
878079c0:	f000 80df 	beq.w	87807b82 <vsnprintf+0x5ae>
878079c4:	f022 0120 	bic.w	r1, r2, #32
878079c8:	295a      	cmp	r1, #90	; 0x5a
878079ca:	f040 80cc 	bne.w	87807b66 <vsnprintf+0x592>
878079ce:	f8d9 0000 	ldr.w	r0, [r9]
878079d2:	f109 0904 	add.w	r9, r9, #4
878079d6:	2100      	movs	r1, #0
878079d8:	9303      	str	r3, [sp, #12]
878079da:	4602      	mov	r2, r0
878079dc:	460b      	mov	r3, r1
878079de:	4620      	mov	r0, r4
878079e0:	f8cd e008 	str.w	lr, [sp, #8]
878079e4:	4639      	mov	r1, r7
878079e6:	9501      	str	r5, [sp, #4]
878079e8:	f8cd c000 	str.w	ip, [sp]
878079ec:	f7ff fa86 	bl	87806efc <number>
878079f0:	4604      	mov	r4, r0
878079f2:	7870      	ldrb	r0, [r6, #1]
878079f4:	e612      	b.n	8780761c <vsnprintf+0x48>
878079f6:	2a4c      	cmp	r2, #76	; 0x4c
878079f8:	f04f 0c0a 	mov.w	ip, #10
878079fc:	d1df      	bne.n	878079be <vsnprintf+0x3ea>
878079fe:	e9d9 0100 	ldrd	r0, r1, [r9]
87807a02:	f109 0908 	add.w	r9, r9, #8
87807a06:	e7e7      	b.n	878079d8 <vsnprintf+0x404>
87807a08:	4606      	mov	r6, r0
87807a0a:	1c69      	adds	r1, r5, #1
87807a0c:	f04f 0110 	mov.w	r1, #16
87807a10:	bf04      	itt	eq
87807a12:	f043 0301 	orreq.w	r3, r3, #1
87807a16:	2508      	moveq	r5, #8
87807a18:	f8d9 2000 	ldr.w	r2, [r9]
87807a1c:	4620      	mov	r0, r4
87807a1e:	9303      	str	r3, [sp, #12]
87807a20:	2300      	movs	r3, #0
87807a22:	e88d 0022 	stmia.w	sp, {r1, r5}
87807a26:	4639      	mov	r1, r7
87807a28:	f8cd e008 	str.w	lr, [sp, #8]
87807a2c:	f109 0904 	add.w	r9, r9, #4
87807a30:	f7ff fa64 	bl	87806efc <number>
87807a34:	4604      	mov	r4, r0
87807a36:	7870      	ldrb	r0, [r6, #1]
87807a38:	e5f0      	b.n	8780761c <vsnprintf+0x48>
87807a3a:	4606      	mov	r6, r0
87807a3c:	f04f 0c08 	mov.w	ip, #8
87807a40:	e7bb      	b.n	878079ba <vsnprintf+0x3e6>
87807a42:	4606      	mov	r6, r0
87807a44:	f043 0302 	orr.w	r3, r3, #2
87807a48:	f04f 0c0a 	mov.w	ip, #10
87807a4c:	e7b5      	b.n	878079ba <vsnprintf+0x3e6>
87807a4e:	4606      	mov	r6, r0
87807a50:	06d8      	lsls	r0, r3, #27
87807a52:	d40d      	bmi.n	87807a70 <vsnprintf+0x49c>
87807a54:	3d01      	subs	r5, #1
87807a56:	2d00      	cmp	r5, #0
87807a58:	dd0a      	ble.n	87807a70 <vsnprintf+0x49c>
87807a5a:	1963      	adds	r3, r4, r5
87807a5c:	2220      	movs	r2, #32
87807a5e:	42a7      	cmp	r7, r4
87807a60:	f104 0401 	add.w	r4, r4, #1
87807a64:	bf28      	it	cs
87807a66:	f804 2c01 	strbcs.w	r2, [r4, #-1]
87807a6a:	429c      	cmp	r4, r3
87807a6c:	d1f7      	bne.n	87807a5e <vsnprintf+0x48a>
87807a6e:	2500      	movs	r5, #0
87807a70:	f8d9 3000 	ldr.w	r3, [r9]
87807a74:	42bc      	cmp	r4, r7
87807a76:	f104 0101 	add.w	r1, r4, #1
87807a7a:	f109 0004 	add.w	r0, r9, #4
87807a7e:	bf98      	it	ls
87807a80:	7023      	strbls	r3, [r4, #0]
87807a82:	2d01      	cmp	r5, #1
87807a84:	bfc2      	ittt	gt
87807a86:	1964      	addgt	r4, r4, r5
87807a88:	460b      	movgt	r3, r1
87807a8a:	2220      	movgt	r2, #32
87807a8c:	f340 80b4 	ble.w	87807bf8 <vsnprintf+0x624>
87807a90:	429f      	cmp	r7, r3
87807a92:	f103 0301 	add.w	r3, r3, #1
87807a96:	bf28      	it	cs
87807a98:	f803 2c01 	strbcs.w	r2, [r3, #-1]
87807a9c:	42a3      	cmp	r3, r4
87807a9e:	d1f7      	bne.n	87807a90 <vsnprintf+0x4bc>
87807aa0:	1e6c      	subs	r4, r5, #1
87807aa2:	4681      	mov	r9, r0
87807aa4:	440c      	add	r4, r1
87807aa6:	7870      	ldrb	r0, [r6, #1]
87807aa8:	e5b8      	b.n	8780761c <vsnprintf+0x48>
87807aaa:	4606      	mov	r6, r0
87807aac:	42a7      	cmp	r7, r4
87807aae:	bf24      	itt	cs
87807ab0:	2325      	movcs	r3, #37	; 0x25
87807ab2:	7023      	strbcs	r3, [r4, #0]
87807ab4:	e5b0      	b.n	87807618 <vsnprintf+0x44>
87807ab6:	4606      	mov	r6, r0
87807ab8:	f8d9 2000 	ldr.w	r2, [r9]
87807abc:	4671      	mov	r1, lr
87807abe:	9307      	str	r3, [sp, #28]
87807ac0:	f109 0904 	add.w	r9, r9, #4
87807ac4:	f5b2 6f80 	cmp.w	r2, #1024	; 0x400
87807ac8:	bf38      	it	cc
87807aca:	465a      	movcc	r2, fp
87807acc:	4610      	mov	r0, r2
87807ace:	9206      	str	r2, [sp, #24]
87807ad0:	f7ff f8ae 	bl	87806c30 <strnlen>
87807ad4:	9b07      	ldr	r3, [sp, #28]
87807ad6:	9a06      	ldr	r2, [sp, #24]
87807ad8:	f013 0f10 	tst.w	r3, #16
87807adc:	d112      	bne.n	87807b04 <vsnprintf+0x530>
87807ade:	4285      	cmp	r5, r0
87807ae0:	f105 3eff 	add.w	lr, r5, #4294967295	; 0xffffffff
87807ae4:	f340 808c 	ble.w	87807c00 <vsnprintf+0x62c>
87807ae8:	1a2b      	subs	r3, r5, r0
87807aea:	2120      	movs	r1, #32
87807aec:	4423      	add	r3, r4
87807aee:	42a7      	cmp	r7, r4
87807af0:	f104 0401 	add.w	r4, r4, #1
87807af4:	bf28      	it	cs
87807af6:	f804 1c01 	strbcs.w	r1, [r4, #-1]
87807afa:	429c      	cmp	r4, r3
87807afc:	d1f7      	bne.n	87807aee <vsnprintf+0x51a>
87807afe:	ebc5 050e 	rsb	r5, r5, lr
87807b02:	4405      	add	r5, r0
87807b04:	2800      	cmp	r0, #0
87807b06:	dd75      	ble.n	87807bf4 <vsnprintf+0x620>
87807b08:	1823      	adds	r3, r4, r0
87807b0a:	42a7      	cmp	r7, r4
87807b0c:	f104 0401 	add.w	r4, r4, #1
87807b10:	bf28      	it	cs
87807b12:	7811      	ldrbcs	r1, [r2, #0]
87807b14:	f102 0201 	add.w	r2, r2, #1
87807b18:	bf28      	it	cs
87807b1a:	f804 1c01 	strbcs.w	r1, [r4, #-1]
87807b1e:	429c      	cmp	r4, r3
87807b20:	d1f3      	bne.n	87807b0a <vsnprintf+0x536>
87807b22:	4285      	cmp	r5, r0
87807b24:	bfdc      	itt	le
87807b26:	461c      	movle	r4, r3
87807b28:	7870      	ldrble	r0, [r6, #1]
87807b2a:	f77f ad77 	ble.w	8780761c <vsnprintf+0x48>
87807b2e:	1a28      	subs	r0, r5, r0
87807b30:	2220      	movs	r2, #32
87807b32:	181c      	adds	r4, r3, r0
87807b34:	429f      	cmp	r7, r3
87807b36:	f103 0301 	add.w	r3, r3, #1
87807b3a:	bf28      	it	cs
87807b3c:	f803 2c01 	strbcs.w	r2, [r3, #-1]
87807b40:	42a3      	cmp	r3, r4
87807b42:	d1f7      	bne.n	87807b34 <vsnprintf+0x560>
87807b44:	e755      	b.n	878079f2 <vsnprintf+0x41e>
87807b46:	4606      	mov	r6, r0
87807b48:	42a7      	cmp	r7, r4
87807b4a:	bf24      	itt	cs
87807b4c:	2325      	movcs	r3, #37	; 0x25
87807b4e:	7023      	strbcs	r3, [r4, #0]
87807b50:	1c63      	adds	r3, r4, #1
87807b52:	7832      	ldrb	r2, [r6, #0]
87807b54:	b36a      	cbz	r2, 87807bb2 <vsnprintf+0x5de>
87807b56:	42bb      	cmp	r3, r7
87807b58:	f104 0402 	add.w	r4, r4, #2
87807b5c:	bf98      	it	ls
87807b5e:	f804 2c01 	strbls.w	r2, [r4, #-1]
87807b62:	7870      	ldrb	r0, [r6, #1]
87807b64:	e55a      	b.n	8780761c <vsnprintf+0x48>
87807b66:	2a68      	cmp	r2, #104	; 0x68
87807b68:	f109 0204 	add.w	r2, r9, #4
87807b6c:	f8d9 0000 	ldr.w	r0, [r9]
87807b70:	4691      	mov	r9, r2
87807b72:	d036      	beq.n	87807be2 <vsnprintf+0x60e>
87807b74:	079a      	lsls	r2, r3, #30
87807b76:	f57f af2e 	bpl.w	878079d6 <vsnprintf+0x402>
87807b7a:	17c1      	asrs	r1, r0, #31
87807b7c:	e72c      	b.n	878079d8 <vsnprintf+0x404>
87807b7e:	f04f 0c0a 	mov.w	ip, #10
87807b82:	f109 0204 	add.w	r2, r9, #4
87807b86:	f8d9 0000 	ldr.w	r0, [r9]
87807b8a:	4691      	mov	r9, r2
87807b8c:	079a      	lsls	r2, r3, #30
87807b8e:	f57f af22 	bpl.w	878079d6 <vsnprintf+0x402>
87807b92:	17c1      	asrs	r1, r0, #31
87807b94:	e720      	b.n	878079d8 <vsnprintf+0x404>
87807b96:	4606      	mov	r6, r0
87807b98:	9a05      	ldr	r2, [sp, #20]
87807b9a:	f109 0904 	add.w	r9, r9, #4
87807b9e:	f859 3c04 	ldr.w	r3, [r9, #-4]
87807ba2:	1aa2      	subs	r2, r4, r2
87807ba4:	601a      	str	r2, [r3, #0]
87807ba6:	7870      	ldrb	r0, [r6, #1]
87807ba8:	e538      	b.n	8780761c <vsnprintf+0x48>
87807baa:	7881      	ldrb	r1, [r0, #2]
87807bac:	224c      	movs	r2, #76	; 0x4c
87807bae:	3002      	adds	r0, #2
87807bb0:	e589      	b.n	878076c6 <vsnprintf+0xf2>
87807bb2:	461c      	mov	r4, r3
87807bb4:	e676      	b.n	878078a4 <vsnprintf+0x2d0>
87807bb6:	4606      	mov	r6, r0
87807bb8:	e6fd      	b.n	878079b6 <vsnprintf+0x3e2>
87807bba:	2a4c      	cmp	r2, #76	; 0x4c
87807bbc:	4606      	mov	r6, r0
87807bbe:	f04f 0c0a 	mov.w	ip, #10
87807bc2:	f47f aeff 	bne.w	878079c4 <vsnprintf+0x3f0>
87807bc6:	e71a      	b.n	878079fe <vsnprintf+0x42a>
87807bc8:	9a05      	ldr	r2, [sp, #20]
87807bca:	f109 0904 	add.w	r9, r9, #4
87807bce:	f859 3c04 	ldr.w	r3, [r9, #-4]
87807bd2:	1aa2      	subs	r2, r4, r2
87807bd4:	601a      	str	r2, [r3, #0]
87807bd6:	7880      	ldrb	r0, [r0, #2]
87807bd8:	e520      	b.n	8780761c <vsnprintf+0x48>
87807bda:	2000      	movs	r0, #0
87807bdc:	b009      	add	sp, #36	; 0x24
87807bde:	e8bd 8ff0 	ldmia.w	sp!, {r4, r5, r6, r7, r8, r9, sl, fp, pc}
87807be2:	0799      	lsls	r1, r3, #30
87807be4:	bf4d      	iteet	mi
87807be6:	b200      	sxthmi	r0, r0
87807be8:	b280      	uxthpl	r0, r0
87807bea:	2100      	movpl	r1, #0
87807bec:	17c1      	asrmi	r1, r0, #31
87807bee:	e6f3      	b.n	878079d8 <vsnprintf+0x404>
87807bf0:	4623      	mov	r3, r4
87807bf2:	e659      	b.n	878078a8 <vsnprintf+0x2d4>
87807bf4:	4623      	mov	r3, r4
87807bf6:	e794      	b.n	87807b22 <vsnprintf+0x54e>
87807bf8:	4681      	mov	r9, r0
87807bfa:	460c      	mov	r4, r1
87807bfc:	7870      	ldrb	r0, [r6, #1]
87807bfe:	e50d      	b.n	8780761c <vsnprintf+0x48>
87807c00:	4675      	mov	r5, lr
87807c02:	e77f      	b.n	87807b04 <vsnprintf+0x530>

87807c04 <vscnprintf>:
87807c04:	b510      	push	{r4, lr}
87807c06:	460c      	mov	r4, r1
87807c08:	f7ff fce4 	bl	878075d4 <vsnprintf>
87807c0c:	4284      	cmp	r4, r0
87807c0e:	bf98      	it	ls
87807c10:	f104 30ff 	addls.w	r0, r4, #4294967295	; 0xffffffff
87807c14:	bd10      	pop	{r4, pc}
87807c16:	bf00      	nop

87807c18 <snprintf>:
87807c18:	b40c      	push	{r2, r3}
87807c1a:	b508      	push	{r3, lr}
87807c1c:	ab03      	add	r3, sp, #12
87807c1e:	9a02      	ldr	r2, [sp, #8]
87807c20:	f7ff fcd8 	bl	878075d4 <vsnprintf>
87807c24:	e8bd 4008 	ldmia.w	sp!, {r3, lr}
87807c28:	b002      	add	sp, #8
87807c2a:	4770      	bx	lr

87807c2c <scnprintf>:
87807c2c:	b40c      	push	{r2, r3}
87807c2e:	b510      	push	{r4, lr}
87807c30:	460c      	mov	r4, r1
87807c32:	ab03      	add	r3, sp, #12
87807c34:	9a02      	ldr	r2, [sp, #8]
87807c36:	f7ff fccd 	bl	878075d4 <vsnprintf>
87807c3a:	4284      	cmp	r4, r0
87807c3c:	bf98      	it	ls
87807c3e:	f104 30ff 	addls.w	r0, r4, #4294967295	; 0xffffffff
87807c42:	e8bd 4010 	ldmia.w	sp!, {r4, lr}
87807c46:	b002      	add	sp, #8
87807c48:	4770      	bx	lr
87807c4a:	bf00      	nop

87807c4c <vsprintf>:
87807c4c:	4613      	mov	r3, r2
87807c4e:	460a      	mov	r2, r1
87807c50:	f06f 4100 	mvn.w	r1, #2147483648	; 0x80000000
87807c54:	f7ff bcbe 	b.w	878075d4 <vsnprintf>

87807c58 <sprintf>:
87807c58:	b40e      	push	{r1, r2, r3}
87807c5a:	f06f 4100 	mvn.w	r1, #2147483648	; 0x80000000
87807c5e:	b500      	push	{lr}
87807c60:	ab02      	add	r3, sp, #8
87807c62:	9a01      	ldr	r2, [sp, #4]
87807c64:	f7ff fcb6 	bl	878075d4 <vsnprintf>
87807c68:	f85d eb04 	ldr.w	lr, [sp], #4
87807c6c:	b003      	add	sp, #12
87807c6e:	4770      	bx	lr

87807c70 <vsscanf>:
87807c70:	e92d 4ff0 	stmdb	sp!, {r4, r5, r6, r7, r8, r9, sl, fp, lr}
87807c74:	f24e 34f4 	movw	r4, #58356	; 0xe3f4
87807c78:	780b      	ldrb	r3, [r1, #0]
87807c7a:	f2c8 7480 	movt	r4, #34688	; 0x8780
87807c7e:	b083      	sub	sp, #12
87807c80:	4607      	mov	r7, r0
87807c82:	460d      	mov	r5, r1
87807c84:	4696      	mov	lr, r2
87807c86:	46a0      	mov	r8, r4
87807c88:	2600      	movs	r6, #0
87807c8a:	b143      	cbz	r3, 87807c9e <vsscanf+0x2e>
87807c8c:	7801      	ldrb	r1, [r0, #0]
87807c8e:	b131      	cbz	r1, 87807c9e <vsscanf+0x2e>
87807c90:	5ce2      	ldrb	r2, [r4, r3]
87807c92:	0692      	lsls	r2, r2, #26
87807c94:	d407      	bmi.n	87807ca6 <vsscanf+0x36>
87807c96:	2b25      	cmp	r3, #37	; 0x25
87807c98:	d020      	beq.n	87807cdc <vsscanf+0x6c>
87807c9a:	428b      	cmp	r3, r1
87807c9c:	d018      	beq.n	87807cd0 <vsscanf+0x60>
87807c9e:	4630      	mov	r0, r6
87807ca0:	b003      	add	sp, #12
87807ca2:	e8bd 8ff0 	ldmia.w	sp!, {r4, r5, r6, r7, r8, r9, sl, fp, pc}
87807ca6:	f815 3f01 	ldrb.w	r3, [r5, #1]!
87807caa:	5ce2      	ldrb	r2, [r4, r3]
87807cac:	0692      	lsls	r2, r2, #26
87807cae:	d4fa      	bmi.n	87807ca6 <vsscanf+0x36>
87807cb0:	f818 2001 	ldrb.w	r2, [r8, r1]
87807cb4:	0691      	lsls	r1, r2, #26
87807cb6:	d504      	bpl.n	87807cc2 <vsscanf+0x52>
87807cb8:	f810 2f01 	ldrb.w	r2, [r0, #1]!
87807cbc:	5ca2      	ldrb	r2, [r4, r2]
87807cbe:	0692      	lsls	r2, r2, #26
87807cc0:	d4fa      	bmi.n	87807cb8 <vsscanf+0x48>
87807cc2:	2b00      	cmp	r3, #0
87807cc4:	bf18      	it	ne
87807cc6:	2b25      	cmpne	r3, #37	; 0x25
87807cc8:	d006      	beq.n	87807cd8 <vsscanf+0x68>
87807cca:	7801      	ldrb	r1, [r0, #0]
87807ccc:	428b      	cmp	r3, r1
87807cce:	d1e6      	bne.n	87807c9e <vsscanf+0x2e>
87807cd0:	786b      	ldrb	r3, [r5, #1]
87807cd2:	3001      	adds	r0, #1
87807cd4:	3501      	adds	r5, #1
87807cd6:	e7d8      	b.n	87807c8a <vsscanf+0x1a>
87807cd8:	2b00      	cmp	r3, #0
87807cda:	d0e0      	beq.n	87807c9e <vsscanf+0x2e>
87807cdc:	786b      	ldrb	r3, [r5, #1]
87807cde:	3501      	adds	r5, #1
87807ce0:	2b2a      	cmp	r3, #42	; 0x2a
87807ce2:	f000 80f1 	beq.w	87807ec8 <vsscanf+0x258>
87807ce6:	5ce2      	ldrb	r2, [r4, r3]
87807ce8:	4619      	mov	r1, r3
87807cea:	0752      	lsls	r2, r2, #29
87807cec:	bf5c      	itt	pl
87807cee:	4619      	movpl	r1, r3
87807cf0:	f04f 33ff 	movpl.w	r3, #4294967295	; 0xffffffff
87807cf4:	d50a      	bpl.n	87807d0c <vsscanf+0x9c>
87807cf6:	2300      	movs	r3, #0
87807cf8:	00da      	lsls	r2, r3, #3
87807cfa:	eb02 0343 	add.w	r3, r2, r3, lsl #1
87807cfe:	440b      	add	r3, r1
87807d00:	f815 1f01 	ldrb.w	r1, [r5, #1]!
87807d04:	3b30      	subs	r3, #48	; 0x30
87807d06:	5c62      	ldrb	r2, [r4, r1]
87807d08:	0752      	lsls	r2, r2, #29
87807d0a:	d4f5      	bmi.n	87807cf8 <vsscanf+0x88>
87807d0c:	f001 02df 	and.w	r2, r1, #223	; 0xdf
87807d10:	46a9      	mov	r9, r5
87807d12:	2a5a      	cmp	r2, #90	; 0x5a
87807d14:	bf18      	it	ne
87807d16:	2a4c      	cmpne	r2, #76	; 0x4c
87807d18:	f04f 3cff 	mov.w	ip, #4294967295	; 0xffffffff
87807d1c:	bf0c      	ite	eq
87807d1e:	2201      	moveq	r2, #1
87807d20:	2200      	movne	r2, #0
87807d22:	2968      	cmp	r1, #104	; 0x68
87807d24:	bf08      	it	eq
87807d26:	f042 0201 	orreq.w	r2, r2, #1
87807d2a:	2a00      	cmp	r2, #0
87807d2c:	f040 80b8 	bne.w	87807ea0 <vsscanf+0x230>
87807d30:	2900      	cmp	r1, #0
87807d32:	d0b4      	beq.n	87807c9e <vsscanf+0x2e>
87807d34:	f890 a000 	ldrb.w	sl, [r0]
87807d38:	f1ba 0f00 	cmp.w	sl, #0
87807d3c:	d0af      	beq.n	87807c9e <vsscanf+0x2e>
87807d3e:	3925      	subs	r1, #37	; 0x25
87807d40:	f109 0501 	add.w	r5, r9, #1
87807d44:	2953      	cmp	r1, #83	; 0x53
87807d46:	d8aa      	bhi.n	87807c9e <vsscanf+0x2e>
87807d48:	a201      	add	r2, pc, #4	; (adr r2, 87807d50 <vsscanf+0xe0>)
87807d4a:	f852 f021 	ldr.w	pc, [r2, r1, lsl #2]
87807d4e:	bf00      	nop
87807d50:	87807fcd 	strhi	r7, [r0, sp, asr #31]
87807d54:	87807c9f 			; <UNDEFINED> instruction: 0x87807c9f
87807d58:	87807c9f 			; <UNDEFINED> instruction: 0x87807c9f
87807d5c:	87807c9f 			; <UNDEFINED> instruction: 0x87807c9f
87807d60:	87807c9f 			; <UNDEFINED> instruction: 0x87807c9f
87807d64:	87807c9f 			; <UNDEFINED> instruction: 0x87807c9f
87807d68:	87807c9f 			; <UNDEFINED> instruction: 0x87807c9f
87807d6c:	87807c9f 			; <UNDEFINED> instruction: 0x87807c9f
87807d70:	87807c9f 			; <UNDEFINED> instruction: 0x87807c9f
87807d74:	87807c9f 			; <UNDEFINED> instruction: 0x87807c9f
87807d78:	87807c9f 			; <UNDEFINED> instruction: 0x87807c9f
87807d7c:	87807c9f 			; <UNDEFINED> instruction: 0x87807c9f
87807d80:	87807c9f 			; <UNDEFINED> instruction: 0x87807c9f
87807d84:	87807c9f 			; <UNDEFINED> instruction: 0x87807c9f
87807d88:	87807c9f 			; <UNDEFINED> instruction: 0x87807c9f
87807d8c:	87807c9f 			; <UNDEFINED> instruction: 0x87807c9f
87807d90:	87807c9f 			; <UNDEFINED> instruction: 0x87807c9f
87807d94:	87807c9f 			; <UNDEFINED> instruction: 0x87807c9f
87807d98:	87807c9f 			; <UNDEFINED> instruction: 0x87807c9f
87807d9c:	87807c9f 			; <UNDEFINED> instruction: 0x87807c9f
87807da0:	87807c9f 			; <UNDEFINED> instruction: 0x87807c9f
87807da4:	87807c9f 			; <UNDEFINED> instruction: 0x87807c9f
87807da8:	87807c9f 			; <UNDEFINED> instruction: 0x87807c9f
87807dac:	87807c9f 			; <UNDEFINED> instruction: 0x87807c9f
87807db0:	87807c9f 			; <UNDEFINED> instruction: 0x87807c9f
87807db4:	87807c9f 			; <UNDEFINED> instruction: 0x87807c9f
87807db8:	87807c9f 			; <UNDEFINED> instruction: 0x87807c9f
87807dbc:	87807c9f 			; <UNDEFINED> instruction: 0x87807c9f
87807dc0:	87807c9f 			; <UNDEFINED> instruction: 0x87807c9f
87807dc4:	87807c9f 			; <UNDEFINED> instruction: 0x87807c9f
87807dc8:	87807c9f 			; <UNDEFINED> instruction: 0x87807c9f
87807dcc:	87807c9f 			; <UNDEFINED> instruction: 0x87807c9f
87807dd0:	87807c9f 			; <UNDEFINED> instruction: 0x87807c9f
87807dd4:	87807c9f 			; <UNDEFINED> instruction: 0x87807c9f
87807dd8:	87807c9f 			; <UNDEFINED> instruction: 0x87807c9f
87807ddc:	87807c9f 			; <UNDEFINED> instruction: 0x87807c9f
87807de0:	87807c9f 			; <UNDEFINED> instruction: 0x87807c9f
87807de4:	87807c9f 			; <UNDEFINED> instruction: 0x87807c9f
87807de8:	87807c9f 			; <UNDEFINED> instruction: 0x87807c9f
87807dec:	87807c9f 			; <UNDEFINED> instruction: 0x87807c9f
87807df0:	87807c9f 			; <UNDEFINED> instruction: 0x87807c9f
87807df4:	87807c9f 			; <UNDEFINED> instruction: 0x87807c9f
87807df8:	87807c9f 			; <UNDEFINED> instruction: 0x87807c9f
87807dfc:	87807c9f 			; <UNDEFINED> instruction: 0x87807c9f
87807e00:	87807c9f 			; <UNDEFINED> instruction: 0x87807c9f
87807e04:	87807c9f 			; <UNDEFINED> instruction: 0x87807c9f
87807e08:	87807c9f 			; <UNDEFINED> instruction: 0x87807c9f
87807e0c:	87807c9f 			; <UNDEFINED> instruction: 0x87807c9f
87807e10:	87807c9f 			; <UNDEFINED> instruction: 0x87807c9f
87807e14:	87807c9f 			; <UNDEFINED> instruction: 0x87807c9f
87807e18:	87807c9f 			; <UNDEFINED> instruction: 0x87807c9f
87807e1c:	87807fdd 			; <UNDEFINED> instruction: 0x87807fdd
87807e20:	87807c9f 			; <UNDEFINED> instruction: 0x87807c9f
87807e24:	87807c9f 			; <UNDEFINED> instruction: 0x87807c9f
87807e28:	87807c9f 			; <UNDEFINED> instruction: 0x87807c9f
87807e2c:	87807c9f 			; <UNDEFINED> instruction: 0x87807c9f
87807e30:	87807c9f 			; <UNDEFINED> instruction: 0x87807c9f
87807e34:	87807c9f 			; <UNDEFINED> instruction: 0x87807c9f
87807e38:	87807c9f 			; <UNDEFINED> instruction: 0x87807c9f
87807e3c:	87807c9f 			; <UNDEFINED> instruction: 0x87807c9f
87807e40:	87807c9f 			; <UNDEFINED> instruction: 0x87807c9f
87807e44:	87807c9f 			; <UNDEFINED> instruction: 0x87807c9f
87807e48:	878080ad 	strhi	r8, [r0, sp, lsr #1]
87807e4c:	878080df 			; <UNDEFINED> instruction: 0x878080df
87807e50:	87807c9f 			; <UNDEFINED> instruction: 0x87807c9f
87807e54:	87807c9f 			; <UNDEFINED> instruction: 0x87807c9f
87807e58:	87807c9f 			; <UNDEFINED> instruction: 0x87807c9f
87807e5c:	87807c9f 			; <UNDEFINED> instruction: 0x87807c9f
87807e60:	87807f03 	strhi	r7, [r0, r3, lsl #30]
87807e64:	87807c9f 			; <UNDEFINED> instruction: 0x87807c9f
87807e68:	87807c9f 			; <UNDEFINED> instruction: 0x87807c9f
87807e6c:	87807c9f 			; <UNDEFINED> instruction: 0x87807c9f
87807e70:	87807c9f 			; <UNDEFINED> instruction: 0x87807c9f
87807e74:	8780809b 			; <UNDEFINED> instruction: 0x8780809b
87807e78:	87808011 	usada8hi	r0, r1, r0, r8
87807e7c:	87807c9f 			; <UNDEFINED> instruction: 0x87807c9f
87807e80:	87807c9f 			; <UNDEFINED> instruction: 0x87807c9f
87807e84:	87807c9f 			; <UNDEFINED> instruction: 0x87807c9f
87807e88:	8780803f 			; <UNDEFINED> instruction: 0x8780803f
87807e8c:	87807c9f 			; <UNDEFINED> instruction: 0x87807c9f
87807e90:	87807ff7 			; <UNDEFINED> instruction: 0x87807ff7
87807e94:	87807c9f 			; <UNDEFINED> instruction: 0x87807c9f
87807e98:	87807c9f 			; <UNDEFINED> instruction: 0x87807c9f
87807e9c:	87807fdd 			; <UNDEFINED> instruction: 0x87807fdd
87807ea0:	786a      	ldrb	r2, [r5, #1]
87807ea2:	468c      	mov	ip, r1
87807ea4:	f105 0901 	add.w	r9, r5, #1
87807ea8:	4291      	cmp	r1, r2
87807eaa:	bf18      	it	ne
87807eac:	4611      	movne	r1, r2
87807eae:	f47f af3f 	bne.w	87807d30 <vsscanf+0xc0>
87807eb2:	2968      	cmp	r1, #104	; 0x68
87807eb4:	f000 8199 	beq.w	878081ea <vsscanf+0x57a>
87807eb8:	296c      	cmp	r1, #108	; 0x6c
87807eba:	bf02      	ittt	eq
87807ebc:	f105 0902 	addeq.w	r9, r5, #2
87807ec0:	78a9      	ldrbeq	r1, [r5, #2]
87807ec2:	f04f 0c4c 	moveq.w	ip, #76	; 0x4c
87807ec6:	e733      	b.n	87807d30 <vsscanf+0xc0>
87807ec8:	f894 202a 	ldrb.w	r2, [r4, #42]	; 0x2a
87807ecc:	0691      	lsls	r1, r2, #26
87807ece:	d40a      	bmi.n	87807ee6 <vsscanf+0x276>
87807ed0:	f815 3f01 	ldrb.w	r3, [r5, #1]!
87807ed4:	5ce2      	ldrb	r2, [r4, r3]
87807ed6:	1c19      	adds	r1, r3, #0
87807ed8:	bf18      	it	ne
87807eda:	2101      	movne	r1, #1
87807edc:	f082 0220 	eor.w	r2, r2, #32
87807ee0:	ea11 1252 	ands.w	r2, r1, r2, lsr #5
87807ee4:	d1f4      	bne.n	87807ed0 <vsscanf+0x260>
87807ee6:	7802      	ldrb	r2, [r0, #0]
87807ee8:	e001      	b.n	87807eee <vsscanf+0x27e>
87807eea:	f810 2f01 	ldrb.w	r2, [r0, #1]!
87807eee:	5ca1      	ldrb	r1, [r4, r2]
87807ef0:	3200      	adds	r2, #0
87807ef2:	bf18      	it	ne
87807ef4:	2201      	movne	r2, #1
87807ef6:	f081 0120 	eor.w	r1, r1, #32
87807efa:	ea12 1251 	ands.w	r2, r2, r1, lsr #5
87807efe:	d1f4      	bne.n	87807eea <vsscanf+0x27a>
87807f00:	e6c3      	b.n	87807c8a <vsscanf+0x1a>
87807f02:	2200      	movs	r2, #0
87807f04:	f814 300a 	ldrb.w	r3, [r4, sl]
87807f08:	0699      	lsls	r1, r3, #26
87807f0a:	bf44      	itt	mi
87807f0c:	2101      	movmi	r1, #1
87807f0e:	468b      	movmi	fp, r1
87807f10:	f140 8171 	bpl.w	878081f6 <vsscanf+0x586>
87807f14:	f810 3f01 	ldrb.w	r3, [r0, #1]!
87807f18:	f814 a003 	ldrb.w	sl, [r4, r3]
87807f1c:	f01a 0f20 	tst.w	sl, #32
87807f20:	d1f8      	bne.n	87807f14 <vsscanf+0x2a4>
87807f22:	2b2d      	cmp	r3, #45	; 0x2d
87807f24:	bf14      	ite	ne
87807f26:	2100      	movne	r1, #0
87807f28:	f001 0101 	andeq.w	r1, r1, #1
87807f2c:	469a      	mov	sl, r3
87807f2e:	b109      	cbz	r1, 87807f34 <vsscanf+0x2c4>
87807f30:	f890 a001 	ldrb.w	sl, [r0, #1]
87807f34:	f1ba 0f00 	cmp.w	sl, #0
87807f38:	f43f aeb1 	beq.w	87807c9e <vsscanf+0x2e>
87807f3c:	2a10      	cmp	r2, #16
87807f3e:	f000 8120 	beq.w	87808182 <vsscanf+0x512>
87807f42:	2a0a      	cmp	r2, #10
87807f44:	d002      	beq.n	87807f4c <vsscanf+0x2dc>
87807f46:	2a08      	cmp	r2, #8
87807f48:	d06b      	beq.n	87808022 <vsscanf+0x3b2>
87807f4a:	b922      	cbnz	r2, 87807f56 <vsscanf+0x2e6>
87807f4c:	f814 300a 	ldrb.w	r3, [r4, sl]
87807f50:	0759      	lsls	r1, r3, #29
87807f52:	f57f aea4 	bpl.w	87807c9e <vsscanf+0x2e>
87807f56:	f1ac 0c48 	sub.w	ip, ip, #72	; 0x48
87807f5a:	f1bc 0f32 	cmp.w	ip, #50	; 0x32
87807f5e:	f200 810a 	bhi.w	87808176 <vsscanf+0x506>
87807f62:	e8df f01c 	tbh	[pc, ip, lsl #1]
87807f66:	010800ec 	smlatteq	r8, ip, r0, r0
87807f6a:	01080108 	tsteq	r8, r8, lsl #2
87807f6e:	010800fa 	strdeq	r0, [r8, -sl]
87807f72:	01080108 	tsteq	r8, r8, lsl #2
87807f76:	01080108 	tsteq	r8, r8, lsl #2
87807f7a:	01080108 	tsteq	r8, r8, lsl #2
87807f7e:	01080108 	tsteq	r8, r8, lsl #2
87807f82:	01080108 	tsteq	r8, r8, lsl #2
87807f86:	01080108 	tsteq	r8, r8, lsl #2
87807f8a:	010800da 	ldrdeq	r0, [r8, -sl]
87807f8e:	01080108 	tsteq	r8, r8, lsl #2
87807f92:	01080108 	tsteq	r8, r8, lsl #2
87807f96:	01080108 	tsteq	r8, r8, lsl #2
87807f9a:	01080108 	tsteq	r8, r8, lsl #2
87807f9e:	01080108 	tsteq	r8, r8, lsl #2
87807fa2:	01080108 	tsteq	r8, r8, lsl #2
87807fa6:	010800cc 	smlabteq	r8, ip, r0, r0
87807faa:	01080108 	tsteq	r8, r8, lsl #2
87807fae:	010800be 	strheq	r0, [r8, -lr]
87807fb2:	01080108 	tsteq	r8, r8, lsl #2
87807fb6:	01080108 	tsteq	r8, r8, lsl #2
87807fba:	01080108 	tsteq	r8, r8, lsl #2
87807fbe:	01080108 	tsteq	r8, r8, lsl #2
87807fc2:	01080108 	tsteq	r8, r8, lsl #2
87807fc6:	01080108 	tsteq	r8, r8, lsl #2
87807fca:	f1ba00da 			; <UNDEFINED> instruction: 0xf1ba00da
87807fce:	0f25      	lsrs	r5, r4, #28
87807fd0:	f47f ae65 	bne.w	87807c9e <vsscanf+0x2e>
87807fd4:	3001      	adds	r0, #1
87807fd6:	f899 3001 	ldrb.w	r3, [r9, #1]
87807fda:	e656      	b.n	87807c8a <vsscanf+0x1a>
87807fdc:	f814 300a 	ldrb.w	r3, [r4, sl]
87807fe0:	2210      	movs	r2, #16
87807fe2:	f003 0320 	and.w	r3, r3, #32
87807fe6:	f003 0bff 	and.w	fp, r3, #255	; 0xff
87807fea:	2b00      	cmp	r3, #0
87807fec:	f000 80c9 	beq.w	87808182 <vsscanf+0x512>
87807ff0:	2100      	movs	r1, #0
87807ff2:	468b      	mov	fp, r1
87807ff4:	e78e      	b.n	87807f14 <vsscanf+0x2a4>
87807ff6:	f814 300a 	ldrb.w	r3, [r4, sl]
87807ffa:	220a      	movs	r2, #10
87807ffc:	f003 0320 	and.w	r3, r3, #32
87808000:	f003 0bff 	and.w	fp, r3, #255	; 0xff
87808004:	2b00      	cmp	r3, #0
87808006:	d0a1      	beq.n	87807f4c <vsscanf+0x2dc>
87808008:	2100      	movs	r1, #0
8780800a:	220a      	movs	r2, #10
8780800c:	468b      	mov	fp, r1
8780800e:	e781      	b.n	87807f14 <vsscanf+0x2a4>
87808010:	f814 300a 	ldrb.w	r3, [r4, sl]
87808014:	2208      	movs	r2, #8
87808016:	f003 0320 	and.w	r3, r3, #32
8780801a:	f003 0bff 	and.w	fp, r3, #255	; 0xff
8780801e:	2b00      	cmp	r3, #0
87808020:	d1e6      	bne.n	87807ff0 <vsscanf+0x380>
87808022:	f814 300a 	ldrb.w	r3, [r4, sl]
87808026:	f083 0304 	eor.w	r3, r3, #4
8780802a:	f3c3 0380 	ubfx	r3, r3, #2, #1
8780802e:	f1ba 0f37 	cmp.w	sl, #55	; 0x37
87808032:	bf88      	it	hi
87808034:	f043 0301 	orrhi.w	r3, r3, #1
87808038:	2b00      	cmp	r3, #0
8780803a:	d08c      	beq.n	87807f56 <vsscanf+0x2e6>
8780803c:	e62f      	b.n	87807c9e <vsscanf+0x2e>
8780803e:	1c5a      	adds	r2, r3, #1
87808040:	f10e 0c04 	add.w	ip, lr, #4
87808044:	f8de 1000 	ldr.w	r1, [lr]
87808048:	f000 80a2 	beq.w	87808190 <vsscanf+0x520>
8780804c:	f814 200a 	ldrb.w	r2, [r4, sl]
87808050:	0692      	lsls	r2, r2, #26
87808052:	bf58      	it	pl
87808054:	4652      	movpl	r2, sl
87808056:	d507      	bpl.n	87808068 <vsscanf+0x3f8>
87808058:	f810 af01 	ldrb.w	sl, [r0, #1]!
8780805c:	f814 200a 	ldrb.w	r2, [r4, sl]
87808060:	0692      	lsls	r2, r2, #26
87808062:	d4f9      	bmi.n	87808058 <vsscanf+0x3e8>
87808064:	4652      	mov	r2, sl
87808066:	b18a      	cbz	r2, 8780808c <vsscanf+0x41c>
87808068:	b183      	cbz	r3, 8780808c <vsscanf+0x41c>
8780806a:	f100 0e01 	add.w	lr, r0, #1
8780806e:	e006      	b.n	8780807e <vsscanf+0x40e>
87808070:	f814 a002 	ldrb.w	sl, [r4, r2]
87808074:	f01a 0f20 	tst.w	sl, #32
87808078:	d108      	bne.n	8780808c <vsscanf+0x41c>
8780807a:	3b01      	subs	r3, #1
8780807c:	d006      	beq.n	8780808c <vsscanf+0x41c>
8780807e:	f801 2b01 	strb.w	r2, [r1], #1
87808082:	4670      	mov	r0, lr
87808084:	f81e 2b01 	ldrb.w	r2, [lr], #1
87808088:	2a00      	cmp	r2, #0
8780808a:	d1f1      	bne.n	87808070 <vsscanf+0x400>
8780808c:	2300      	movs	r3, #0
8780808e:	3601      	adds	r6, #1
87808090:	700b      	strb	r3, [r1, #0]
87808092:	46e6      	mov	lr, ip
87808094:	f899 3001 	ldrb.w	r3, [r9, #1]
87808098:	e5f7      	b.n	87807c8a <vsscanf+0x1a>
8780809a:	f8de 3000 	ldr.w	r3, [lr]
8780809e:	1bc2      	subs	r2, r0, r7
878080a0:	f10e 0e04 	add.w	lr, lr, #4
878080a4:	601a      	str	r2, [r3, #0]
878080a6:	f899 3001 	ldrb.w	r3, [r9, #1]
878080aa:	e5ee      	b.n	87807c8a <vsscanf+0x1a>
878080ac:	f8de 1000 	ldr.w	r1, [lr]
878080b0:	1c5a      	adds	r2, r3, #1
878080b2:	bf08      	it	eq
878080b4:	2301      	moveq	r3, #1
878080b6:	1c42      	adds	r2, r0, #1
878080b8:	f10e 0e04 	add.w	lr, lr, #4
878080bc:	f101 3cff 	add.w	ip, r1, #4294967295	; 0xffffffff
878080c0:	e003      	b.n	878080ca <vsscanf+0x45a>
878080c2:	f812 1b01 	ldrb.w	r1, [r2], #1
878080c6:	468a      	mov	sl, r1
878080c8:	b129      	cbz	r1, 878080d6 <vsscanf+0x466>
878080ca:	3b01      	subs	r3, #1
878080cc:	f80c af01 	strb.w	sl, [ip, #1]!
878080d0:	2b00      	cmp	r3, #0
878080d2:	4610      	mov	r0, r2
878080d4:	dcf5      	bgt.n	878080c2 <vsscanf+0x452>
878080d6:	3601      	adds	r6, #1
878080d8:	f899 3001 	ldrb.w	r3, [r9, #1]
878080dc:	e5d5      	b.n	87807c8a <vsscanf+0x1a>
878080de:	220a      	movs	r2, #10
878080e0:	e710      	b.n	87807f04 <vsscanf+0x294>
878080e2:	f8de a000 	ldr.w	sl, [lr]
878080e6:	f1bb 0f00 	cmp.w	fp, #0
878080ea:	d018      	beq.n	8780811e <vsscanf+0x4ae>
878080ec:	f10e 0b04 	add.w	fp, lr, #4
878080f0:	a901      	add	r1, sp, #4
878080f2:	f7ff f9ad 	bl	87807450 <simple_strtol>
878080f6:	46de      	mov	lr, fp
878080f8:	f8ca 0000 	str.w	r0, [sl]
878080fc:	e017      	b.n	8780812e <vsscanf+0x4be>
878080fe:	f8de a000 	ldr.w	sl, [lr]
87808102:	f1bb 0f00 	cmp.w	fp, #0
87808106:	d05c      	beq.n	878081c2 <vsscanf+0x552>
87808108:	f10e 0b04 	add.w	fp, lr, #4
8780810c:	a901      	add	r1, sp, #4
8780810e:	f7ff f99f 	bl	87807450 <simple_strtol>
87808112:	46de      	mov	lr, fp
87808114:	f8aa 0000 	strh.w	r0, [sl]
87808118:	e009      	b.n	8780812e <vsscanf+0x4be>
8780811a:	f8de a000 	ldr.w	sl, [lr]
8780811e:	f10e 0b04 	add.w	fp, lr, #4
87808122:	a901      	add	r1, sp, #4
87808124:	f7ff f90e 	bl	87807344 <simple_strtoul>
87808128:	46de      	mov	lr, fp
8780812a:	f8ca 0000 	str.w	r0, [sl]
8780812e:	9801      	ldr	r0, [sp, #4]
87808130:	3601      	adds	r6, #1
87808132:	2800      	cmp	r0, #0
87808134:	f43f adb3 	beq.w	87807c9e <vsscanf+0x2e>
87808138:	f899 3001 	ldrb.w	r3, [r9, #1]
8780813c:	e5a5      	b.n	87807c8a <vsscanf+0x1a>
8780813e:	f8de a000 	ldr.w	sl, [lr]
87808142:	f1bb 0f00 	cmp.w	fp, #0
87808146:	d033      	beq.n	878081b0 <vsscanf+0x540>
87808148:	f10e 0b04 	add.w	fp, lr, #4
8780814c:	a901      	add	r1, sp, #4
8780814e:	f7ff f97f 	bl	87807450 <simple_strtol>
87808152:	46de      	mov	lr, fp
87808154:	f88a 0000 	strb.w	r0, [sl]
87808158:	e7e9      	b.n	8780812e <vsscanf+0x4be>
8780815a:	f8de a000 	ldr.w	sl, [lr]
8780815e:	f1bb 0f00 	cmp.w	fp, #0
87808162:	d01c      	beq.n	8780819e <vsscanf+0x52e>
87808164:	f10e 0b04 	add.w	fp, lr, #4
87808168:	a901      	add	r1, sp, #4
8780816a:	f7ff fa23 	bl	878075b4 <simple_strtoll>
8780816e:	46de      	mov	lr, fp
87808170:	e9ca 0100 	strd	r0, r1, [sl]
87808174:	e7db      	b.n	8780812e <vsscanf+0x4be>
87808176:	f1bb 0f00 	cmp.w	fp, #0
8780817a:	d02b      	beq.n	878081d4 <vsscanf+0x564>
8780817c:	f8de a000 	ldr.w	sl, [lr]
87808180:	e7b4      	b.n	878080ec <vsscanf+0x47c>
87808182:	f814 300a 	ldrb.w	r3, [r4, sl]
87808186:	f013 0f44 	tst.w	r3, #68	; 0x44
8780818a:	f47f aee4 	bne.w	87807f56 <vsscanf+0x2e6>
8780818e:	e586      	b.n	87807c9e <vsscanf+0x2e>
87808190:	f814 300a 	ldrb.w	r3, [r4, sl]
87808194:	069b      	lsls	r3, r3, #26
87808196:	d535      	bpl.n	87808204 <vsscanf+0x594>
87808198:	f06f 4300 	mvn.w	r3, #2147483648	; 0x80000000
8780819c:	e75c      	b.n	87808058 <vsscanf+0x3e8>
8780819e:	f10e 0b04 	add.w	fp, lr, #4
878081a2:	a901      	add	r1, sp, #4
878081a4:	f7ff f962 	bl	8780746c <simple_strtoull>
878081a8:	46de      	mov	lr, fp
878081aa:	e9ca 0100 	strd	r0, r1, [sl]
878081ae:	e7be      	b.n	8780812e <vsscanf+0x4be>
878081b0:	f10e 0b04 	add.w	fp, lr, #4
878081b4:	a901      	add	r1, sp, #4
878081b6:	f7ff f8c5 	bl	87807344 <simple_strtoul>
878081ba:	46de      	mov	lr, fp
878081bc:	f88a 0000 	strb.w	r0, [sl]
878081c0:	e7b5      	b.n	8780812e <vsscanf+0x4be>
878081c2:	f10e 0b04 	add.w	fp, lr, #4
878081c6:	a901      	add	r1, sp, #4
878081c8:	f7ff f8bc 	bl	87807344 <simple_strtoul>
878081cc:	46de      	mov	lr, fp
878081ce:	f8aa 0000 	strh.w	r0, [sl]
878081d2:	e7ac      	b.n	8780812e <vsscanf+0x4be>
878081d4:	f8de a000 	ldr.w	sl, [lr]
878081d8:	f10e 0b04 	add.w	fp, lr, #4
878081dc:	a901      	add	r1, sp, #4
878081de:	f7ff f8b1 	bl	87807344 <simple_strtoul>
878081e2:	46de      	mov	lr, fp
878081e4:	f8ca 0000 	str.w	r0, [sl]
878081e8:	e7a1      	b.n	8780812e <vsscanf+0x4be>
878081ea:	f105 0902 	add.w	r9, r5, #2
878081ee:	78a9      	ldrb	r1, [r5, #2]
878081f0:	f04f 0c48 	mov.w	ip, #72	; 0x48
878081f4:	e59c      	b.n	87807d30 <vsscanf+0xc0>
878081f6:	f1ba 0f2d 	cmp.w	sl, #45	; 0x2d
878081fa:	f04f 0b01 	mov.w	fp, #1
878081fe:	f43f ae97 	beq.w	87807f30 <vsscanf+0x2c0>
87808202:	e69e      	b.n	87807f42 <vsscanf+0x2d2>
87808204:	4652      	mov	r2, sl
87808206:	f06f 4300 	mvn.w	r3, #2147483648	; 0x80000000
8780820a:	e72e      	b.n	8780806a <vsscanf+0x3fa>

8780820c <sscanf>:
8780820c:	b40e      	push	{r1, r2, r3}
8780820e:	b500      	push	{lr}
87808210:	aa02      	add	r2, sp, #8
87808212:	9901      	ldr	r1, [sp, #4]
87808214:	f7ff fd2c 	bl	87807c70 <vsscanf>
87808218:	f85d eb04 	ldr.w	lr, [sp], #4
8780821c:	b003      	add	sp, #12
8780821e:	4770      	bx	lr

87808220 <__aeabi_uidiv>:
87808220:	1e4a      	subs	r2, r1, #1
87808222:	bf08      	it	eq
87808224:	4770      	bxeq	lr
87808226:	f0c0 8124 	bcc.w	87808472 <__aeabi_uidiv+0x252>
8780822a:	4288      	cmp	r0, r1
8780822c:	f240 8116 	bls.w	8780845c <__aeabi_uidiv+0x23c>
87808230:	4211      	tst	r1, r2
87808232:	f000 8117 	beq.w	87808464 <__aeabi_uidiv+0x244>
87808236:	fab0 f380 	clz	r3, r0
8780823a:	fab1 f281 	clz	r2, r1
8780823e:	eba2 0303 	sub.w	r3, r2, r3
87808242:	f1c3 031f 	rsb	r3, r3, #31
87808246:	a204      	add	r2, pc, #16	; (adr r2, 87808258 <__aeabi_uidiv+0x38>)
87808248:	eb02 1303 	add.w	r3, r2, r3, lsl #4
8780824c:	f04f 0200 	mov.w	r2, #0
87808250:	469f      	mov	pc, r3
87808252:	bf00      	nop
87808254:	f3af 8000 	nop.w
87808258:	ebb0 7fc1 	cmp.w	r0, r1, lsl #31
8780825c:	bf00      	nop
8780825e:	eb42 0202 	adc.w	r2, r2, r2
87808262:	bf28      	it	cs
87808264:	eba0 70c1 	subcs.w	r0, r0, r1, lsl #31
87808268:	ebb0 7f81 	cmp.w	r0, r1, lsl #30
8780826c:	bf00      	nop
8780826e:	eb42 0202 	adc.w	r2, r2, r2
87808272:	bf28      	it	cs
87808274:	eba0 7081 	subcs.w	r0, r0, r1, lsl #30
87808278:	ebb0 7f41 	cmp.w	r0, r1, lsl #29
8780827c:	bf00      	nop
8780827e:	eb42 0202 	adc.w	r2, r2, r2
87808282:	bf28      	it	cs
87808284:	eba0 7041 	subcs.w	r0, r0, r1, lsl #29
87808288:	ebb0 7f01 	cmp.w	r0, r1, lsl #28
8780828c:	bf00      	nop
8780828e:	eb42 0202 	adc.w	r2, r2, r2
87808292:	bf28      	it	cs
87808294:	eba0 7001 	subcs.w	r0, r0, r1, lsl #28
87808298:	ebb0 6fc1 	cmp.w	r0, r1, lsl #27
8780829c:	bf00      	nop
8780829e:	eb42 0202 	adc.w	r2, r2, r2
878082a2:	bf28      	it	cs
878082a4:	eba0 60c1 	subcs.w	r0, r0, r1, lsl #27
878082a8:	ebb0 6f81 	cmp.w	r0, r1, lsl #26
878082ac:	bf00      	nop
878082ae:	eb42 0202 	adc.w	r2, r2, r2
878082b2:	bf28      	it	cs
878082b4:	eba0 6081 	subcs.w	r0, r0, r1, lsl #26
878082b8:	ebb0 6f41 	cmp.w	r0, r1, lsl #25
878082bc:	bf00      	nop
878082be:	eb42 0202 	adc.w	r2, r2, r2
878082c2:	bf28      	it	cs
878082c4:	eba0 6041 	subcs.w	r0, r0, r1, lsl #25
878082c8:	ebb0 6f01 	cmp.w	r0, r1, lsl #24
878082cc:	bf00      	nop
878082ce:	eb42 0202 	adc.w	r2, r2, r2
878082d2:	bf28      	it	cs
878082d4:	eba0 6001 	subcs.w	r0, r0, r1, lsl #24
878082d8:	ebb0 5fc1 	cmp.w	r0, r1, lsl #23
878082dc:	bf00      	nop
878082de:	eb42 0202 	adc.w	r2, r2, r2
878082e2:	bf28      	it	cs
878082e4:	eba0 50c1 	subcs.w	r0, r0, r1, lsl #23
878082e8:	ebb0 5f81 	cmp.w	r0, r1, lsl #22
878082ec:	bf00      	nop
878082ee:	eb42 0202 	adc.w	r2, r2, r2
878082f2:	bf28      	it	cs
878082f4:	eba0 5081 	subcs.w	r0, r0, r1, lsl #22
878082f8:	ebb0 5f41 	cmp.w	r0, r1, lsl #21
878082fc:	bf00      	nop
878082fe:	eb42 0202 	adc.w	r2, r2, r2
87808302:	bf28      	it	cs
87808304:	eba0 5041 	subcs.w	r0, r0, r1, lsl #21
87808308:	ebb0 5f01 	cmp.w	r0, r1, lsl #20
8780830c:	bf00      	nop
8780830e:	eb42 0202 	adc.w	r2, r2, r2
87808312:	bf28      	it	cs
87808314:	eba0 5001 	subcs.w	r0, r0, r1, lsl #20
87808318:	ebb0 4fc1 	cmp.w	r0, r1, lsl #19
8780831c:	bf00      	nop
8780831e:	eb42 0202 	adc.w	r2, r2, r2
87808322:	bf28      	it	cs
87808324:	eba0 40c1 	subcs.w	r0, r0, r1, lsl #19
87808328:	ebb0 4f81 	cmp.w	r0, r1, lsl #18
8780832c:	bf00      	nop
8780832e:	eb42 0202 	adc.w	r2, r2, r2
87808332:	bf28      	it	cs
87808334:	eba0 4081 	subcs.w	r0, r0, r1, lsl #18
87808338:	ebb0 4f41 	cmp.w	r0, r1, lsl #17
8780833c:	bf00      	nop
8780833e:	eb42 0202 	adc.w	r2, r2, r2
87808342:	bf28      	it	cs
87808344:	eba0 4041 	subcs.w	r0, r0, r1, lsl #17
87808348:	ebb0 4f01 	cmp.w	r0, r1, lsl #16
8780834c:	bf00      	nop
8780834e:	eb42 0202 	adc.w	r2, r2, r2
87808352:	bf28      	it	cs
87808354:	eba0 4001 	subcs.w	r0, r0, r1, lsl #16
87808358:	ebb0 3fc1 	cmp.w	r0, r1, lsl #15
8780835c:	bf00      	nop
8780835e:	eb42 0202 	adc.w	r2, r2, r2
87808362:	bf28      	it	cs
87808364:	eba0 30c1 	subcs.w	r0, r0, r1, lsl #15
87808368:	ebb0 3f81 	cmp.w	r0, r1, lsl #14
8780836c:	bf00      	nop
8780836e:	eb42 0202 	adc.w	r2, r2, r2
87808372:	bf28      	it	cs
87808374:	eba0 3081 	subcs.w	r0, r0, r1, lsl #14
87808378:	ebb0 3f41 	cmp.w	r0, r1, lsl #13
8780837c:	bf00      	nop
8780837e:	eb42 0202 	adc.w	r2, r2, r2
87808382:	bf28      	it	cs
87808384:	eba0 3041 	subcs.w	r0, r0, r1, lsl #13
87808388:	ebb0 3f01 	cmp.w	r0, r1, lsl #12
8780838c:	bf00      	nop
8780838e:	eb42 0202 	adc.w	r2, r2, r2
87808392:	bf28      	it	cs
87808394:	eba0 3001 	subcs.w	r0, r0, r1, lsl #12
87808398:	ebb0 2fc1 	cmp.w	r0, r1, lsl #11
8780839c:	bf00      	nop
8780839e:	eb42 0202 	adc.w	r2, r2, r2
878083a2:	bf28      	it	cs
878083a4:	eba0 20c1 	subcs.w	r0, r0, r1, lsl #11
878083a8:	ebb0 2f81 	cmp.w	r0, r1, lsl #10
878083ac:	bf00      	nop
878083ae:	eb42 0202 	adc.w	r2, r2, r2
878083b2:	bf28      	it	cs
878083b4:	eba0 2081 	subcs.w	r0, r0, r1, lsl #10
878083b8:	ebb0 2f41 	cmp.w	r0, r1, lsl #9
878083bc:	bf00      	nop
878083be:	eb42 0202 	adc.w	r2, r2, r2
878083c2:	bf28      	it	cs
878083c4:	eba0 2041 	subcs.w	r0, r0, r1, lsl #9
878083c8:	ebb0 2f01 	cmp.w	r0, r1, lsl #8
878083cc:	bf00      	nop
878083ce:	eb42 0202 	adc.w	r2, r2, r2
878083d2:	bf28      	it	cs
878083d4:	eba0 2001 	subcs.w	r0, r0, r1, lsl #8
878083d8:	ebb0 1fc1 	cmp.w	r0, r1, lsl #7
878083dc:	bf00      	nop
878083de:	eb42 0202 	adc.w	r2, r2, r2
878083e2:	bf28      	it	cs
878083e4:	eba0 10c1 	subcs.w	r0, r0, r1, lsl #7
878083e8:	ebb0 1f81 	cmp.w	r0, r1, lsl #6
878083ec:	bf00      	nop
878083ee:	eb42 0202 	adc.w	r2, r2, r2
878083f2:	bf28      	it	cs
878083f4:	eba0 1081 	subcs.w	r0, r0, r1, lsl #6
878083f8:	ebb0 1f41 	cmp.w	r0, r1, lsl #5
878083fc:	bf00      	nop
878083fe:	eb42 0202 	adc.w	r2, r2, r2
87808402:	bf28      	it	cs
87808404:	eba0 1041 	subcs.w	r0, r0, r1, lsl #5
87808408:	ebb0 1f01 	cmp.w	r0, r1, lsl #4
8780840c:	bf00      	nop
8780840e:	eb42 0202 	adc.w	r2, r2, r2
87808412:	bf28      	it	cs
87808414:	eba0 1001 	subcs.w	r0, r0, r1, lsl #4
87808418:	ebb0 0fc1 	cmp.w	r0, r1, lsl #3
8780841c:	bf00      	nop
8780841e:	eb42 0202 	adc.w	r2, r2, r2
87808422:	bf28      	it	cs
87808424:	eba0 00c1 	subcs.w	r0, r0, r1, lsl #3
87808428:	ebb0 0f81 	cmp.w	r0, r1, lsl #2
8780842c:	bf00      	nop
8780842e:	eb42 0202 	adc.w	r2, r2, r2
87808432:	bf28      	it	cs
87808434:	eba0 0081 	subcs.w	r0, r0, r1, lsl #2
87808438:	ebb0 0f41 	cmp.w	r0, r1, lsl #1
8780843c:	bf00      	nop
8780843e:	eb42 0202 	adc.w	r2, r2, r2
87808442:	bf28      	it	cs
87808444:	eba0 0041 	subcs.w	r0, r0, r1, lsl #1
87808448:	ebb0 0f01 	cmp.w	r0, r1
8780844c:	bf00      	nop
8780844e:	eb42 0202 	adc.w	r2, r2, r2
87808452:	bf28      	it	cs
87808454:	eba0 0001 	subcs.w	r0, r0, r1
87808458:	4610      	mov	r0, r2
8780845a:	4770      	bx	lr
8780845c:	bf0c      	ite	eq
8780845e:	2001      	moveq	r0, #1
87808460:	2000      	movne	r0, #0
87808462:	4770      	bx	lr
87808464:	fab1 f281 	clz	r2, r1
87808468:	f1c2 021f 	rsb	r2, r2, #31
8780846c:	fa20 f002 	lsr.w	r0, r0, r2
87808470:	4770      	bx	lr
87808472:	b108      	cbz	r0, 87808478 <__aeabi_uidiv+0x258>
87808474:	f04f 30ff 	mov.w	r0, #4294967295	; 0xffffffff
87808478:	f000 b97e 	b.w	87808778 <__aeabi_idiv0>

8780847c <__aeabi_uidivmod>:
8780847c:	2900      	cmp	r1, #0
8780847e:	d0f8      	beq.n	87808472 <__aeabi_uidiv+0x252>
87808480:	e92d 4003 	stmdb	sp!, {r0, r1, lr}
87808484:	f7ff fecc 	bl	87808220 <__aeabi_uidiv>
87808488:	e8bd 4006 	ldmia.w	sp!, {r1, r2, lr}
8780848c:	fb02 f300 	mul.w	r3, r2, r0
87808490:	eba1 0103 	sub.w	r1, r1, r3
87808494:	4770      	bx	lr
87808496:	bf00      	nop

87808498 <__aeabi_idiv>:
87808498:	2900      	cmp	r1, #0
8780849a:	f000 813e 	beq.w	8780871a <.divsi3_skip_div0_test+0x27c>

8780849e <.divsi3_skip_div0_test>:
8780849e:	ea80 0c01 	eor.w	ip, r0, r1
878084a2:	bf48      	it	mi
878084a4:	4249      	negmi	r1, r1
878084a6:	1e4a      	subs	r2, r1, #1
878084a8:	f000 811f 	beq.w	878086ea <.divsi3_skip_div0_test+0x24c>
878084ac:	0003      	movs	r3, r0
878084ae:	bf48      	it	mi
878084b0:	4243      	negmi	r3, r0
878084b2:	428b      	cmp	r3, r1
878084b4:	f240 811e 	bls.w	878086f4 <.divsi3_skip_div0_test+0x256>
878084b8:	4211      	tst	r1, r2
878084ba:	f000 8123 	beq.w	87808704 <.divsi3_skip_div0_test+0x266>
878084be:	fab3 f283 	clz	r2, r3
878084c2:	fab1 f081 	clz	r0, r1
878084c6:	eba0 0202 	sub.w	r2, r0, r2
878084ca:	f1c2 021f 	rsb	r2, r2, #31
878084ce:	a004      	add	r0, pc, #16	; (adr r0, 878084e0 <.divsi3_skip_div0_test+0x42>)
878084d0:	eb00 1202 	add.w	r2, r0, r2, lsl #4
878084d4:	f04f 0000 	mov.w	r0, #0
878084d8:	4697      	mov	pc, r2
878084da:	bf00      	nop
878084dc:	f3af 8000 	nop.w
878084e0:	ebb3 7fc1 	cmp.w	r3, r1, lsl #31
878084e4:	bf00      	nop
878084e6:	eb40 0000 	adc.w	r0, r0, r0
878084ea:	bf28      	it	cs
878084ec:	eba3 73c1 	subcs.w	r3, r3, r1, lsl #31
878084f0:	ebb3 7f81 	cmp.w	r3, r1, lsl #30
878084f4:	bf00      	nop
878084f6:	eb40 0000 	adc.w	r0, r0, r0
878084fa:	bf28      	it	cs
878084fc:	eba3 7381 	subcs.w	r3, r3, r1, lsl #30
87808500:	ebb3 7f41 	cmp.w	r3, r1, lsl #29
87808504:	bf00      	nop
87808506:	eb40 0000 	adc.w	r0, r0, r0
8780850a:	bf28      	it	cs
8780850c:	eba3 7341 	subcs.w	r3, r3, r1, lsl #29
87808510:	ebb3 7f01 	cmp.w	r3, r1, lsl #28
87808514:	bf00      	nop
87808516:	eb40 0000 	adc.w	r0, r0, r0
8780851a:	bf28      	it	cs
8780851c:	eba3 7301 	subcs.w	r3, r3, r1, lsl #28
87808520:	ebb3 6fc1 	cmp.w	r3, r1, lsl #27
87808524:	bf00      	nop
87808526:	eb40 0000 	adc.w	r0, r0, r0
8780852a:	bf28      	it	cs
8780852c:	eba3 63c1 	subcs.w	r3, r3, r1, lsl #27
87808530:	ebb3 6f81 	cmp.w	r3, r1, lsl #26
87808534:	bf00      	nop
87808536:	eb40 0000 	adc.w	r0, r0, r0
8780853a:	bf28      	it	cs
8780853c:	eba3 6381 	subcs.w	r3, r3, r1, lsl #26
87808540:	ebb3 6f41 	cmp.w	r3, r1, lsl #25
87808544:	bf00      	nop
87808546:	eb40 0000 	adc.w	r0, r0, r0
8780854a:	bf28      	it	cs
8780854c:	eba3 6341 	subcs.w	r3, r3, r1, lsl #25
87808550:	ebb3 6f01 	cmp.w	r3, r1, lsl #24
87808554:	bf00      	nop
87808556:	eb40 0000 	adc.w	r0, r0, r0
8780855a:	bf28      	it	cs
8780855c:	eba3 6301 	subcs.w	r3, r3, r1, lsl #24
87808560:	ebb3 5fc1 	cmp.w	r3, r1, lsl #23
87808564:	bf00      	nop
87808566:	eb40 0000 	adc.w	r0, r0, r0
8780856a:	bf28      	it	cs
8780856c:	eba3 53c1 	subcs.w	r3, r3, r1, lsl #23
87808570:	ebb3 5f81 	cmp.w	r3, r1, lsl #22
87808574:	bf00      	nop
87808576:	eb40 0000 	adc.w	r0, r0, r0
8780857a:	bf28      	it	cs
8780857c:	eba3 5381 	subcs.w	r3, r3, r1, lsl #22
87808580:	ebb3 5f41 	cmp.w	r3, r1, lsl #21
87808584:	bf00      	nop
87808586:	eb40 0000 	adc.w	r0, r0, r0
8780858a:	bf28      	it	cs
8780858c:	eba3 5341 	subcs.w	r3, r3, r1, lsl #21
87808590:	ebb3 5f01 	cmp.w	r3, r1, lsl #20
87808594:	bf00      	nop
87808596:	eb40 0000 	adc.w	r0, r0, r0
8780859a:	bf28      	it	cs
8780859c:	eba3 5301 	subcs.w	r3, r3, r1, lsl #20
878085a0:	ebb3 4fc1 	cmp.w	r3, r1, lsl #19
878085a4:	bf00      	nop
878085a6:	eb40 0000 	adc.w	r0, r0, r0
878085aa:	bf28      	it	cs
878085ac:	eba3 43c1 	subcs.w	r3, r3, r1, lsl #19
878085b0:	ebb3 4f81 	cmp.w	r3, r1, lsl #18
878085b4:	bf00      	nop
878085b6:	eb40 0000 	adc.w	r0, r0, r0
878085ba:	bf28      	it	cs
878085bc:	eba3 4381 	subcs.w	r3, r3, r1, lsl #18
878085c0:	ebb3 4f41 	cmp.w	r3, r1, lsl #17
878085c4:	bf00      	nop
878085c6:	eb40 0000 	adc.w	r0, r0, r0
878085ca:	bf28      	it	cs
878085cc:	eba3 4341 	subcs.w	r3, r3, r1, lsl #17
878085d0:	ebb3 4f01 	cmp.w	r3, r1, lsl #16
878085d4:	bf00      	nop
878085d6:	eb40 0000 	adc.w	r0, r0, r0
878085da:	bf28      	it	cs
878085dc:	eba3 4301 	subcs.w	r3, r3, r1, lsl #16
878085e0:	ebb3 3fc1 	cmp.w	r3, r1, lsl #15
878085e4:	bf00      	nop
878085e6:	eb40 0000 	adc.w	r0, r0, r0
878085ea:	bf28      	it	cs
878085ec:	eba3 33c1 	subcs.w	r3, r3, r1, lsl #15
878085f0:	ebb3 3f81 	cmp.w	r3, r1, lsl #14
878085f4:	bf00      	nop
878085f6:	eb40 0000 	adc.w	r0, r0, r0
878085fa:	bf28      	it	cs
878085fc:	eba3 3381 	subcs.w	r3, r3, r1, lsl #14
87808600:	ebb3 3f41 	cmp.w	r3, r1, lsl #13
87808604:	bf00      	nop
87808606:	eb40 0000 	adc.w	r0, r0, r0
8780860a:	bf28      	it	cs
8780860c:	eba3 3341 	subcs.w	r3, r3, r1, lsl #13
87808610:	ebb3 3f01 	cmp.w	r3, r1, lsl #12
87808614:	bf00      	nop
87808616:	eb40 0000 	adc.w	r0, r0, r0
8780861a:	bf28      	it	cs
8780861c:	eba3 3301 	subcs.w	r3, r3, r1, lsl #12
87808620:	ebb3 2fc1 	cmp.w	r3, r1, lsl #11
87808624:	bf00      	nop
87808626:	eb40 0000 	adc.w	r0, r0, r0
8780862a:	bf28      	it	cs
8780862c:	eba3 23c1 	subcs.w	r3, r3, r1, lsl #11
87808630:	ebb3 2f81 	cmp.w	r3, r1, lsl #10
87808634:	bf00      	nop
87808636:	eb40 0000 	adc.w	r0, r0, r0
8780863a:	bf28      	it	cs
8780863c:	eba3 2381 	subcs.w	r3, r3, r1, lsl #10
87808640:	ebb3 2f41 	cmp.w	r3, r1, lsl #9
87808644:	bf00      	nop
87808646:	eb40 0000 	adc.w	r0, r0, r0
8780864a:	bf28      	it	cs
8780864c:	eba3 2341 	subcs.w	r3, r3, r1, lsl #9
87808650:	ebb3 2f01 	cmp.w	r3, r1, lsl #8
87808654:	bf00      	nop
87808656:	eb40 0000 	adc.w	r0, r0, r0
8780865a:	bf28      	it	cs
8780865c:	eba3 2301 	subcs.w	r3, r3, r1, lsl #8
87808660:	ebb3 1fc1 	cmp.w	r3, r1, lsl #7
87808664:	bf00      	nop
87808666:	eb40 0000 	adc.w	r0, r0, r0
8780866a:	bf28      	it	cs
8780866c:	eba3 13c1 	subcs.w	r3, r3, r1, lsl #7
87808670:	ebb3 1f81 	cmp.w	r3, r1, lsl #6
87808674:	bf00      	nop
87808676:	eb40 0000 	adc.w	r0, r0, r0
8780867a:	bf28      	it	cs
8780867c:	eba3 1381 	subcs.w	r3, r3, r1, lsl #6
87808680:	ebb3 1f41 	cmp.w	r3, r1, lsl #5
87808684:	bf00      	nop
87808686:	eb40 0000 	adc.w	r0, r0, r0
8780868a:	bf28      	it	cs
8780868c:	eba3 1341 	subcs.w	r3, r3, r1, lsl #5
87808690:	ebb3 1f01 	cmp.w	r3, r1, lsl #4
87808694:	bf00      	nop
87808696:	eb40 0000 	adc.w	r0, r0, r0
8780869a:	bf28      	it	cs
8780869c:	eba3 1301 	subcs.w	r3, r3, r1, lsl #4
878086a0:	ebb3 0fc1 	cmp.w	r3, r1, lsl #3
878086a4:	bf00      	nop
878086a6:	eb40 0000 	adc.w	r0, r0, r0
878086aa:	bf28      	it	cs
878086ac:	eba3 03c1 	subcs.w	r3, r3, r1, lsl #3
878086b0:	ebb3 0f81 	cmp.w	r3, r1, lsl #2
878086b4:	bf00      	nop
878086b6:	eb40 0000 	adc.w	r0, r0, r0
878086ba:	bf28      	it	cs
878086bc:	eba3 0381 	subcs.w	r3, r3, r1, lsl #2
878086c0:	ebb3 0f41 	cmp.w	r3, r1, lsl #1
878086c4:	bf00      	nop
878086c6:	eb40 0000 	adc.w	r0, r0, r0
878086ca:	bf28      	it	cs
878086cc:	eba3 0341 	subcs.w	r3, r3, r1, lsl #1
878086d0:	ebb3 0f01 	cmp.w	r3, r1
878086d4:	bf00      	nop
878086d6:	eb40 0000 	adc.w	r0, r0, r0
878086da:	bf28      	it	cs
878086dc:	eba3 0301 	subcs.w	r3, r3, r1
878086e0:	f1bc 0f00 	cmp.w	ip, #0
878086e4:	bf48      	it	mi
878086e6:	4240      	negmi	r0, r0
878086e8:	4770      	bx	lr
878086ea:	ea9c 0f00 	teq	ip, r0
878086ee:	bf48      	it	mi
878086f0:	4240      	negmi	r0, r0
878086f2:	4770      	bx	lr
878086f4:	bf38      	it	cc
878086f6:	2000      	movcc	r0, #0
878086f8:	bf04      	itt	eq
878086fa:	ea4f 70ec 	moveq.w	r0, ip, asr #31
878086fe:	f040 0001 	orreq.w	r0, r0, #1
87808702:	4770      	bx	lr
87808704:	fab1 f281 	clz	r2, r1
87808708:	f1c2 021f 	rsb	r2, r2, #31
8780870c:	f1bc 0f00 	cmp.w	ip, #0
87808710:	fa23 f002 	lsr.w	r0, r3, r2
87808714:	bf48      	it	mi
87808716:	4240      	negmi	r0, r0
87808718:	4770      	bx	lr
8780871a:	2800      	cmp	r0, #0
8780871c:	bfc8      	it	gt
8780871e:	f06f 4000 	mvngt.w	r0, #2147483648	; 0x80000000
87808722:	bfb8      	it	lt
87808724:	f04f 4000 	movlt.w	r0, #2147483648	; 0x80000000
87808728:	f000 b826 	b.w	87808778 <__aeabi_idiv0>

8780872c <__aeabi_idivmod>:
8780872c:	2900      	cmp	r1, #0
8780872e:	d0f4      	beq.n	8780871a <.divsi3_skip_div0_test+0x27c>
87808730:	e92d 4003 	stmdb	sp!, {r0, r1, lr}
87808734:	f7ff feb3 	bl	8780849e <.divsi3_skip_div0_test>
87808738:	e8bd 4006 	ldmia.w	sp!, {r1, r2, lr}
8780873c:	fb02 f300 	mul.w	r3, r2, r0
87808740:	eba1 0103 	sub.w	r1, r1, r3
87808744:	4770      	bx	lr
87808746:	bf00      	nop

87808748 <__aeabi_uldivmod>:
87808748:	b953      	cbnz	r3, 87808760 <__aeabi_uldivmod+0x18>
8780874a:	b94a      	cbnz	r2, 87808760 <__aeabi_uldivmod+0x18>
8780874c:	2900      	cmp	r1, #0
8780874e:	bf08      	it	eq
87808750:	2800      	cmpeq	r0, #0
87808752:	bf1c      	itt	ne
87808754:	f04f 31ff 	movne.w	r1, #4294967295	; 0xffffffff
87808758:	f04f 30ff 	movne.w	r0, #4294967295	; 0xffffffff
8780875c:	f000 b80c 	b.w	87808778 <__aeabi_idiv0>
87808760:	f1ad 0c08 	sub.w	ip, sp, #8
87808764:	e96d ce04 	strd	ip, lr, [sp, #-16]!
87808768:	f000 f80c 	bl	87808784 <__udivmoddi4>
8780876c:	f8dd e004 	ldr.w	lr, [sp, #4]
87808770:	e9dd 2302 	ldrd	r2, r3, [sp, #8]
87808774:	b004      	add	sp, #16
87808776:	4770      	bx	lr

87808778 <__aeabi_idiv0>:
87808778:	b502      	push	{r1, lr}
8780877a:	f04f 0008 	mov.w	r0, #8
8780877e:	f7fb ff21 	bl	878045c4 <raise>
87808782:	bd02      	pop	{r1, pc}

87808784 <__udivmoddi4>:
87808784:	e92d 43f0 	stmdb	sp!, {r4, r5, r6, r7, r8, r9, lr}
87808788:	460d      	mov	r5, r1
8780878a:	429d      	cmp	r5, r3
8780878c:	4604      	mov	r4, r0
8780878e:	4610      	mov	r0, r2
87808790:	4619      	mov	r1, r3
87808792:	bf08      	it	eq
87808794:	4284      	cmpeq	r4, r0
87808796:	9a07      	ldr	r2, [sp, #28]
87808798:	bf3c      	itt	cc
8780879a:	2000      	movcc	r0, #0
8780879c:	2100      	movcc	r1, #0
8780879e:	d36a      	bcc.n	87808876 <__udivmoddi4+0xf2>
878087a0:	fab1 f681 	clz	r6, r1
878087a4:	2900      	cmp	r1, #0
878087a6:	d06f      	beq.n	87808888 <__udivmoddi4+0x104>
878087a8:	fab5 f385 	clz	r3, r5
878087ac:	2d00      	cmp	r5, #0
878087ae:	d067      	beq.n	87808880 <__udivmoddi4+0xfc>
878087b0:	1af3      	subs	r3, r6, r3
878087b2:	f1a3 0c20 	sub.w	ip, r3, #32
878087b6:	fa01 f703 	lsl.w	r7, r1, r3
878087ba:	fa00 fe0c 	lsl.w	lr, r0, ip
878087be:	f1c3 0820 	rsb	r8, r3, #32
878087c2:	fa20 f108 	lsr.w	r1, r0, r8
878087c6:	fa00 f603 	lsl.w	r6, r0, r3
878087ca:	ea47 070e 	orr.w	r7, r7, lr
878087ce:	469e      	mov	lr, r3
878087d0:	430f      	orrs	r7, r1
878087d2:	42bd      	cmp	r5, r7
878087d4:	bf08      	it	eq
878087d6:	42b4      	cmpeq	r4, r6
878087d8:	bf3c      	itt	cc
878087da:	2000      	movcc	r0, #0
878087dc:	2100      	movcc	r1, #0
878087de:	d30c      	bcc.n	878087fa <__udivmoddi4+0x76>
878087e0:	f04f 0901 	mov.w	r9, #1
878087e4:	1ba4      	subs	r4, r4, r6
878087e6:	fa29 f808 	lsr.w	r8, r9, r8
878087ea:	fa09 f10c 	lsl.w	r1, r9, ip
878087ee:	fa09 f003 	lsl.w	r0, r9, r3
878087f2:	ea41 0108 	orr.w	r1, r1, r8
878087f6:	eb65 0507 	sbc.w	r5, r5, r7
878087fa:	2b00      	cmp	r3, #0
878087fc:	d03b      	beq.n	87808876 <__udivmoddi4+0xf2>
878087fe:	087f      	lsrs	r7, r7, #1
87808800:	ea4f 0636 	mov.w	r6, r6, rrx
87808804:	e009      	b.n	8780881a <__udivmoddi4+0x96>
87808806:	1ba4      	subs	r4, r4, r6
87808808:	eb65 0507 	sbc.w	r5, r5, r7
8780880c:	1924      	adds	r4, r4, r4
8780880e:	416d      	adcs	r5, r5
87808810:	3401      	adds	r4, #1
87808812:	f145 0500 	adc.w	r5, r5, #0
87808816:	3b01      	subs	r3, #1
87808818:	d007      	beq.n	8780882a <__udivmoddi4+0xa6>
8780881a:	42bd      	cmp	r5, r7
8780881c:	bf08      	it	eq
8780881e:	42b4      	cmpeq	r4, r6
87808820:	d2f1      	bcs.n	87808806 <__udivmoddi4+0x82>
87808822:	1924      	adds	r4, r4, r4
87808824:	416d      	adcs	r5, r5
87808826:	3b01      	subs	r3, #1
87808828:	d1f7      	bne.n	8780881a <__udivmoddi4+0x96>
8780882a:	f1ce 0720 	rsb	r7, lr, #32
8780882e:	fa24 f60e 	lsr.w	r6, r4, lr
87808832:	fa05 f707 	lsl.w	r7, r5, r7
87808836:	f1ae 0320 	sub.w	r3, lr, #32
8780883a:	fa25 f303 	lsr.w	r3, r5, r3
8780883e:	fa25 fc0e 	lsr.w	ip, r5, lr
87808842:	1900      	adds	r0, r0, r4
87808844:	ea46 0607 	orr.w	r6, r6, r7
87808848:	ea46 0403 	orr.w	r4, r6, r3
8780884c:	4169      	adcs	r1, r5
8780884e:	4665      	mov	r5, ip
87808850:	f1ae 0c20 	sub.w	ip, lr, #32
87808854:	fa05 f70e 	lsl.w	r7, r5, lr
87808858:	fa04 fc0c 	lsl.w	ip, r4, ip
8780885c:	fa04 f60e 	lsl.w	r6, r4, lr
87808860:	f1ce 0320 	rsb	r3, lr, #32
87808864:	fa24 f303 	lsr.w	r3, r4, r3
87808868:	ea47 070c 	orr.w	r7, r7, ip
8780886c:	1b80      	subs	r0, r0, r6
8780886e:	ea47 0703 	orr.w	r7, r7, r3
87808872:	eb61 0107 	sbc.w	r1, r1, r7
87808876:	b10a      	cbz	r2, 8780887c <__udivmoddi4+0xf8>
87808878:	e9c2 4500 	strd	r4, r5, [r2]
8780887c:	e8bd 83f0 	ldmia.w	sp!, {r4, r5, r6, r7, r8, r9, pc}
87808880:	fab4 f384 	clz	r3, r4
87808884:	3320      	adds	r3, #32
87808886:	e793      	b.n	878087b0 <__udivmoddi4+0x2c>
87808888:	fab0 f380 	clz	r3, r0
8780888c:	f103 0620 	add.w	r6, r3, #32
87808890:	fab5 f385 	clz	r3, r5
87808894:	2d00      	cmp	r5, #0
87808896:	d18b      	bne.n	878087b0 <__udivmoddi4+0x2c>
87808898:	e7f2      	b.n	87808880 <__udivmoddi4+0xfc>
8780889a:	bf00      	nop
8780889c:	0000      	movs	r0, r0
	...

878088a0 <__main_from_arm>:
878088a0:	e51ff004 	ldr	pc, [pc, #-4]	; 878088a4 <__main_from_arm+0x4>
878088a4:	878088a9 	strhi	r8, [r0, r9, lsr #17]

Disassembly of section .text.startup:

878088a8 <main>:
878088a8:	e92d 41f0 	stmdb	sp!, {r4, r5, r6, r7, r8, lr}
878088ac:	b08a      	sub	sp, #40	; 0x28
878088ae:	f7f8 f9fd 	bl	87800cac <system_init>
878088b2:	2000      	movs	r0, #0
878088b4:	f44f 31e1 	mov.w	r1, #115200	; 0x1c200
878088b8:	f2c0 2002 	movt	r0, #514	; 0x202
878088bc:	f7fb fdba 	bl	87804434 <uart_init>
878088c0:	f648 4018 	movw	r0, #35864	; 0x8c18
878088c4:	f2c8 7080 	movt	r0, #34688	; 0x8780
878088c8:	f7fe f888 	bl	878069dc <printf>
878088cc:	2200      	movs	r2, #0
878088ce:	2101      	movs	r1, #1
878088d0:	2023      	movs	r0, #35	; 0x23
878088d2:	f7fa fd55 	bl	87803380 <gpio_init>
878088d6:	2201      	movs	r2, #1
878088d8:	20a1      	movs	r0, #161	; 0xa1
878088da:	4611      	mov	r1, r2
878088dc:	f7fa fd50 	bl	87803380 <gpio_init>
878088e0:	2064      	movs	r0, #100	; 0x64
878088e2:	f7f7 fd2d 	bl	87800340 <Buzzer>
878088e6:	f7f9 fa31 	bl	87801d4c <tft_lcd_init>
878088ea:	f64b 418f 	movw	r1, #48271	; 0xbc8f
878088ee:	f642 202a 	movw	r0, #10794	; 0x2a2a
878088f2:	f2c0 018f 	movt	r1, #143	; 0x8f
878088f6:	f2c0 00a5 	movt	r0, #165	; 0xa5
878088fa:	f7f9 fbdb 	bl	878020b4 <tft_lcd_set_color>
878088fe:	2018      	movs	r0, #24
87808900:	f7f9 fbd2 	bl	878020a8 <tft_lcd_set_font>
87808904:	2100      	movs	r1, #0
87808906:	f648 4234 	movw	r2, #35892	; 0x8c34
8780890a:	f2c8 7280 	movt	r2, #34688	; 0x8780
8780890e:	4608      	mov	r0, r1
87808910:	f7f9 fe3c 	bl	8780258c <tft_lcd_show_string>
87808914:	f44f 71fa 	mov.w	r1, #500	; 0x1f4
87808918:	f44f 707a 	mov.w	r0, #1000	; 0x3e8
8780891c:	f7fa fb18 	bl	87802f50 <system_delay>
87808920:	f7fb fa8a 	bl	87803e38 <rtc_init>
87808924:	f44f 7096 	mov.w	r0, #300	; 0x12c
87808928:	f7f8 ffaa 	bl	87801880 <key_init>
8780892c:	e01b      	b.n	87808966 <main+0xbe>
8780892e:	f648 424c 	movw	r2, #35916	; 0x8c4c
87808932:	2160      	movs	r1, #96	; 0x60
87808934:	f2c8 7280 	movt	r2, #34688	; 0x8780
87808938:	2000      	movs	r0, #0
8780893a:	f7f9 fe27 	bl	8780258c <tft_lcd_show_string>
8780893e:	f44f 71fa 	mov.w	r1, #500	; 0x1f4
87808942:	f44f 707a 	mov.w	r0, #1000	; 0x3e8
87808946:	f7fa fb03 	bl	87802f50 <system_delay>
8780894a:	f648 4264 	movw	r2, #35940	; 0x8c64
8780894e:	2180      	movs	r1, #128	; 0x80
87808950:	2000      	movs	r0, #0
87808952:	f2c8 7280 	movt	r2, #34688	; 0x8780
87808956:	f7f9 fe19 	bl	8780258c <tft_lcd_show_string>
8780895a:	f44f 71fa 	mov.w	r1, #500	; 0x1f4
8780895e:	f44f 707a 	mov.w	r0, #1000	; 0x3e8
87808962:	f7fa faf5 	bl	87802f50 <system_delay>
87808966:	f7f8 fd3d 	bl	878013e4 <ap3216c_init>
8780896a:	4680      	mov	r8, r0
8780896c:	2800      	cmp	r0, #0
8780896e:	d1de      	bne.n	8780892e <main+0x86>
87808970:	f7f8 fe4e 	bl	87801610 <icm20608_init>
87808974:	f7f7 feb0 	bl	878006d8 <test_icm20608>
87808978:	f24a 1120 	movw	r1, #41248	; 0xa120
8780897c:	f44f 4080 	mov.w	r0, #16384	; 0x4000
87808980:	f2c0 0107 	movt	r1, #7
87808984:	f2c0 200d 	movt	r0, #525	; 0x20d
87808988:	f7fa ffb6 	bl	878038f8 <pit_init>
8780898c:	f648 4404 	movw	r4, #35844	; 0x8c04
87808990:	f242 7510 	movw	r5, #10000	; 0x2710
87808994:	f7fa f89e 	bl	87802ad4 <gt9147_init>
87808998:	f7f7 fd16 	bl	878003c8 <test_tft_gt9147>
8780899c:	f24a 1120 	movw	r1, #41248	; 0xa120
878089a0:	f44f 4080 	mov.w	r0, #16384	; 0x4000
878089a4:	f2c0 0107 	movt	r1, #7
878089a8:	f2c0 200d 	movt	r0, #525	; 0x20d
878089ac:	f2c8 7480 	movt	r4, #34688	; 0x8780
878089b0:	ae05      	add	r6, sp, #20
878089b2:	f7fa ffa1 	bl	878038f8 <pit_init>
878089b6:	cc0f      	ldmia	r4!, {r0, r1, r2, r3}
878089b8:	46b6      	mov	lr, r6
878089ba:	f24e 5708 	movw	r7, #58632	; 0xe508
878089be:	9503      	str	r5, [sp, #12]
878089c0:	f640 35b8 	movw	r5, #3000	; 0xbb8
878089c4:	9502      	str	r5, [sp, #8]
878089c6:	f2c8 7780 	movt	r7, #34688	; 0x8780
878089ca:	6824      	ldr	r4, [r4, #0]
878089cc:	f44f 757a 	mov.w	r5, #1000	; 0x3e8
878089d0:	c60f      	stmia	r6!, {r0, r1, r2, r3}
878089d2:	ab0a      	add	r3, sp, #40	; 0x28
878089d4:	6034      	str	r4, [r6, #0]
878089d6:	e913 0003 	ldmdb	r3, {r0, r1}
878089da:	e88d 0003 	stmia.w	sp, {r0, r1}
878089de:	f04f 7002 	mov.w	r0, #34078720	; 0x2080000
878089e2:	e89e 000e 	ldmia.w	lr, {r1, r2, r3}
878089e6:	f7fb f9c9 	bl	87803d7c <pwm_init>
878089ea:	f648 427c 	movw	r2, #35964	; 0x8c7c
878089ee:	4641      	mov	r1, r8
878089f0:	f2c8 7280 	movt	r2, #34688	; 0x8780
878089f4:	2014      	movs	r0, #20
878089f6:	f7f9 fdc9 	bl	8780258c <tft_lcd_show_string>
878089fa:	e015      	b.n	87808a28 <main+0x180>
878089fc:	f04f 7402 	mov.w	r4, #34078720	; 0x2080000
87808a00:	230a      	movs	r3, #10
87808a02:	68e2      	ldr	r2, [r4, #12]
87808a04:	2118      	movs	r1, #24
87808a06:	2014      	movs	r0, #20
87808a08:	b292      	uxth	r2, r2
87808a0a:	f7f9 fe29 	bl	87802660 <tft_lcd_show_int>
87808a0e:	4632      	mov	r2, r6
87808a10:	230a      	movs	r3, #10
87808a12:	2130      	movs	r1, #48	; 0x30
87808a14:	2014      	movs	r0, #20
87808a16:	f7f9 fe23 	bl	87802660 <tft_lcd_show_int>
87808a1a:	6922      	ldr	r2, [r4, #16]
87808a1c:	230a      	movs	r3, #10
87808a1e:	2148      	movs	r1, #72	; 0x48
87808a20:	2014      	movs	r0, #20
87808a22:	b292      	uxth	r2, r2
87808a24:	f7f9 fe1c 	bl	87802660 <tft_lcd_show_int>
87808a28:	2001      	movs	r0, #1
87808a2a:	462e      	mov	r6, r5
87808a2c:	f7f7 fc68 	bl	87800300 <Key_Scan_Save>
87808a30:	687b      	ldr	r3, [r7, #4]
87808a32:	2b01      	cmp	r3, #1
87808a34:	d1e2      	bne.n	878089fc <main+0x154>
87808a36:	3564      	adds	r5, #100	; 0x64
87808a38:	f242 7310 	movw	r3, #10000	; 0x2710
87808a3c:	429d      	cmp	r5, r3
87808a3e:	462e      	mov	r6, r5
87808a40:	bf88      	it	hi
87808a42:	f44f 757a 	movhi.w	r5, #1000	; 0x3e8
87808a46:	f04f 7002 	mov.w	r0, #34078720	; 0x2080000
87808a4a:	4629      	mov	r1, r5
87808a4c:	bf88      	it	hi
87808a4e:	462e      	movhi	r6, r5
87808a50:	f7fb f810 	bl	87803a74 <pwm_set_duty>
87808a54:	e7d2      	b.n	878089fc <main+0x154>
87808a56:	bf00      	nop

Disassembly of section .rodata:

87808a58 <.LANCHOR0-0x1ac>:
87808a58:	2d2d2d2d 	stccs	13, cr2, [sp, #-180]!	; 0xffffff4c
87808a5c:	2d2d2d2d 	stccs	13, cr2, [sp, #-180]!	; 0xffffff4c
87808a60:	7365742d 	cmnvc	r5, #754974720	; 0x2d000000
87808a64:	66745f74 	uhsub16vs	r5, r4, r4
87808a68:	74675f74 	strbtvc	r5, [r7], #-3956	; 0xf74
87808a6c:	37343139 			; <UNDEFINED> instruction: 0x37343139
87808a70:	2d2d2d2d 	stccs	13, cr2, [sp, #-180]!	; 0xffffff4c
87808a74:	2d2d2d2d 	stccs	13, cr2, [sp, #-180]!	; 0xffffff4c
87808a78:	00000000 	andeq	r0, r0, r0
87808a7c:	4e205054 	mcrmi	0, 1, r5, cr0, cr4, {2}
87808a80:	3a096d75 	bcc	87a6405c <__bss_end+0x254d14>
87808a84:	00000000 	andeq	r0, r0, r0
87808a88:	6e696f50 	mcrvs	15, 3, r6, cr9, cr0, {2}
87808a8c:	58203074 	stmdapl	r0!, {r2, r4, r5, r6, ip, sp}
87808a90:	0000003a 	andeq	r0, r0, sl, lsr r0
87808a94:	6e696f50 	mcrvs	15, 3, r6, cr9, cr0, {2}
87808a98:	59203074 	stmdbpl	r0!, {r2, r4, r5, r6, ip, sp}
87808a9c:	0000003a 	andeq	r0, r0, sl, lsr r0
87808aa0:	6e696f50 	mcrvs	15, 3, r6, cr9, cr0, {2}
87808aa4:	58203174 	stmdapl	r0!, {r2, r4, r5, r6, r8, ip, sp}
87808aa8:	0000003a 	andeq	r0, r0, sl, lsr r0
87808aac:	6e696f50 	mcrvs	15, 3, r6, cr9, cr0, {2}
87808ab0:	59203174 	stmdbpl	r0!, {r2, r4, r5, r6, r8, ip, sp}
87808ab4:	0000003a 	andeq	r0, r0, sl, lsr r0
87808ab8:	6e696f50 	mcrvs	15, 3, r6, cr9, cr0, {2}
87808abc:	58203274 	stmdapl	r0!, {r2, r4, r5, r6, r9, ip, sp}
87808ac0:	0000003a 	andeq	r0, r0, sl, lsr r0
87808ac4:	6e696f50 	mcrvs	15, 3, r6, cr9, cr0, {2}
87808ac8:	59203274 	stmdbpl	r0!, {r2, r4, r5, r6, r9, ip, sp}
87808acc:	0000003a 	andeq	r0, r0, sl, lsr r0
87808ad0:	6e696f50 	mcrvs	15, 3, r6, cr9, cr0, {2}
87808ad4:	58203374 	stmdapl	r0!, {r2, r4, r5, r6, r8, r9, ip, sp}
87808ad8:	0000003a 	andeq	r0, r0, sl, lsr r0
87808adc:	6e696f50 	mcrvs	15, 3, r6, cr9, cr0, {2}
87808ae0:	59203374 	stmdbpl	r0!, {r2, r4, r5, r6, r8, r9, ip, sp}
87808ae4:	0000003a 	andeq	r0, r0, sl, lsr r0
87808ae8:	6e696f50 	mcrvs	15, 3, r6, cr9, cr0, {2}
87808aec:	58203474 	stmdapl	r0!, {r2, r4, r5, r6, sl, ip, sp}
87808af0:	0000003a 	andeq	r0, r0, sl, lsr r0
87808af4:	6e696f50 	mcrvs	15, 3, r6, cr9, cr0, {2}
87808af8:	59203474 	stmdbpl	r0!, {r2, r4, r5, r6, sl, ip, sp}
87808afc:	0000003a 	andeq	r0, r0, sl, lsr r0
87808b00:	2d2d2d2d 	stccs	13, cr2, [sp, #-180]!	; 0xffffff4c
87808b04:	2d2d2d2d 	stccs	13, cr2, [sp, #-180]!	; 0xffffff4c
87808b08:	7365742d 	cmnvc	r5, #754974720	; 0x2d000000
87808b0c:	66745f74 	uhsub16vs	r5, r4, r4
87808b10:	78783574 	ldmdavc	r8!, {r2, r4, r5, r6, r8, sl, ip, sp}^
87808b14:	2d2d2d36 	stccs	13, cr2, [sp, #-216]!	; 0xffffff28
87808b18:	2d2d2d2d 	stccs	13, cr2, [sp, #-180]!	; 0xffffff4c
87808b1c:	0000002d 	andeq	r0, r0, sp, lsr #32
87808b20:	2d2d2d2d 	stccs	13, cr2, [sp, #-180]!	; 0xffffff4c
87808b24:	2d2d2d2d 	stccs	13, cr2, [sp, #-180]!	; 0xffffff4c
87808b28:	7865742d 	stmdavc	r5!, {r0, r2, r3, r5, sl, ip, sp, lr}^
87808b2c:	6d695f74 	stclvs	15, cr5, [r9, #-464]!	; 0xfffffe30
87808b30:	36303278 			; <UNDEFINED> instruction: 0x36303278
87808b34:	2d2d3830 	stccs	8, cr3, [sp, #-192]!	; 0xffffff40
87808b38:	2d2d2d2d 	stccs	13, cr2, [sp, #-180]!	; 0xffffff4c
87808b3c:	00002d2d 	andeq	r2, r0, sp, lsr #26
87808b40:	326d6369 	rsbcc	r6, sp, #-1543503871	; 0xa4000001
87808b44:	38303630 	ldmdacc	r0!, {r4, r5, r9, sl, ip, sp}
87808b48:	6363615f 	cmnvs	r3, #-1073741801	; 0xc0000017
87808b4c:	79207820 	stmdbvc	r0!, {r5, fp, ip, sp, lr}
87808b50:	00007a20 	andeq	r7, r0, r0, lsr #20
87808b54:	326d6369 	rsbcc	r6, sp, #-1543503871	; 0xa4000001
87808b58:	38303630 	ldmdacc	r0!, {r4, r5, r9, sl, ip, sp}
87808b5c:	7279675f 	rsbsvc	r6, r9, #24903680	; 0x17c0000
87808b60:	2078206f 	rsbscs	r2, r8, pc, rrx
87808b64:	007a2079 	rsbseq	r2, sl, r9, ror r0
87808b68:	326d6369 	rsbcc	r6, sp, #-1543503871	; 0xa4000001
87808b6c:	38303630 	ldmdacc	r0!, {r4, r5, r9, sl, ip, sp}
87808b70:	6d65745f 	cfstrdvs	mvd7, [r5, #-380]!	; 0xfffffe84
87808b74:	00003a70 	andeq	r3, r0, r0, ror sl
87808b78:	32335041 	eorscc	r5, r3, #65	; 0x41
87808b7c:	20433631 	subcs	r3, r3, r1, lsr r6
87808b80:	64616552 	strbtvs	r6, [r1], #-1362	; 0x552
87808b84:	00002179 	andeq	r2, r0, r9, ror r1
87808b88:	3a524920 	bcc	88c9b010 <__bss_end+0x148bcc8>
87808b8c:	00000000 	andeq	r0, r0, r0
87808b90:	3a535020 	bcc	88cdcc18 <__bss_end+0x14cd8d0>
87808b94:	00000000 	andeq	r0, r0, r0
87808b98:	3a534c41 	bcc	88cdbca4 <__bss_end+0x14cc95c>
87808b9c:	00000000 	andeq	r0, r0, r0
87808ba0:	54534554 	ldrbpl	r4, [r3], #-1364	; 0x554
87808ba4:	4354525f 	cmpmi	r4, #-268435451	; 0xf0000005
87808ba8:	4f4c435f 	svcmi	0x004c435f
87808bac:	00004b43 	andeq	r4, r0, r3, asr #22
87808bb0:	6e616863 	cdpvs	8, 6, cr6, cr1, cr3, {3}
87808bb4:	73206567 	teqvc	r0, #432013312	; 0x19c00000
87808bb8:	65636375 	strbvs	r6, [r3, #-885]!	; 0x375
87808bbc:	00007373 	andeq	r7, r0, r3, ror r3
87808bc0:	6f636573 	svcvs	0x00636573
87808bc4:	6c20646e 	cfstrsvs	mvf6, [r0], #-440	; 0xfffffe48
87808bc8:	72657461 	rsbvc	r7, r5, #1627389952	; 0x61000000
87808bcc:	6c697720 	stclvs	7, cr7, [r9], #-128	; 0xffffff80
87808bd0:	6562206c 	strbvs	r2, [r2, #-108]!	; 0x6c
87808bd4:	6e757220 	cdpvs	2, 7, cr7, cr5, cr0, {1}
87808bd8:	676e696e 	strbvs	r6, [lr, -lr, ror #18]!
87808bdc:	00000000 	andeq	r0, r0, r0
87808be0:	72727563 	rsbsvc	r7, r2, #415236096	; 0x18c00000
87808be4:	20746e65 	rsbscs	r6, r4, r5, ror #28
87808be8:	656d6974 	strbvs	r6, [sp, #-2420]!	; 0x974
87808bec:	0000003a 	andeq	r0, r0, sl, lsr r0
87808bf0:	252f6425 	strcs	r6, [pc, #-1061]!	; 878087d3 <__udivmoddi4+0x4f>
87808bf4:	64252f64 	strtvs	r2, [r5], #-3940	; 0xf64
87808bf8:	3a642520 	bcc	89112080 <__bss_end+0x1902d38>
87808bfc:	253a6425 	ldrcs	r6, [sl, #-1061]!	; 0x425
87808c00:	00000064 	andeq	r0, r0, r4, rrx

87808c04 <.LANCHOR0>:
87808c04:	020e007c 	andeq	r0, lr, #124	; 0x7c
	...
87808c14:	020e0308 	andeq	r0, lr, #8, 6	; 0x20000000
87808c18:	6e697270 	mcrvs	2, 3, r7, cr9, cr0, {3}
87808c1c:	65742074 	ldrbvs	r2, [r4, #-116]!	; 0x74
87808c20:	6e697478 	mcrvs	4, 3, r7, cr9, cr8, {3}
87808c24:	75732067 	ldrbvc	r2, [r3, #-103]!	; 0x67
87808c28:	73656363 	cmnvc	r5, #-1946157055	; 0x8c000001
87808c2c:	676e6973 			; <UNDEFINED> instruction: 0x676e6973
87808c30:	000a0d21 	andeq	r0, sl, r1, lsr #26
87808c34:	5f544654 	svcpl	0x00544654
87808c38:	2044434c 	subcs	r4, r4, ip, asr #6
87808c3c:	54494e49 	strbpl	r4, [r9], #-3657	; 0xe49
87808c40:	43555320 	cmpmi	r5, #32, 6	; 0x80000000
87808c44:	53534543 	cmppl	r3, #281018368	; 0x10c00000
87808c48:	00000021 	andeq	r0, r0, r1, lsr #32
87808c4c:	32335041 	eorscc	r5, r3, #65	; 0x41
87808c50:	20433631 	subcs	r3, r3, r1, lsr r6
87808c54:	63656843 	cmnvs	r5, #4390912	; 0x430000
87808c58:	6146206b 	cmpvs	r6, fp, rrx
87808c5c:	64656c69 	strbtvs	r6, [r5], #-3177	; 0xc69
87808c60:	00000021 	andeq	r0, r0, r1, lsr #32
87808c64:	61656c50 	cmnvs	r5, r0, asr ip
87808c68:	43206573 	teqmi	r0, #482344960	; 0x1cc00000
87808c6c:	6b636568 	blvs	890e2214 <__bss_end+0x18d2ecc>
87808c70:	20202021 	eorcs	r2, r0, r1, lsr #32
87808c74:	20202020 	eorcs	r2, r0, r0, lsr #32
87808c78:	00000020 	andeq	r0, r0, r0, lsr #32
87808c7c:	5f544654 	svcpl	0x00544654
87808c80:	2044434c 	subcs	r4, r4, ip, asr #6
87808c84:	54494e49 	strbpl	r4, [r9], #-3657	; 0xe49
87808c88:	43555320 	cmpmi	r5, #32, 6	; 0x80000000
87808c8c:	53534543 	cmppl	r3, #281018368	; 0x10c00000
87808c90:	00000000 	andeq	r0, r0, r0

87808c94 <ascii_font_6x8>:
	...
87808c9c:	00002f00 	andeq	r2, r0, r0, lsl #30
87808ca0:	00070000 	andeq	r0, r7, r0
87808ca4:	14000007 	strne	r0, [r0], #-7
87808ca8:	147f147f 	ldrbtne	r1, [pc], #-1151	; 87808cb0 <ascii_font_6x8+0x1c>
87808cac:	7f2a2400 	svcvc	0x002a2400
87808cb0:	6200122a 	andvs	r1, r0, #-1610612734	; 0xa0000002
87808cb4:	23130864 	tstcs	r3, #100, 16	; 0x640000
87808cb8:	55493600 	strbpl	r3, [r9, #-1536]	; 0x600
87808cbc:	00005022 	andeq	r5, r0, r2, lsr #32
87808cc0:	00000305 	andeq	r0, r0, r5, lsl #6
87808cc4:	221c0000 	andscs	r0, ip, #0
87808cc8:	00000041 	andeq	r0, r0, r1, asr #32
87808ccc:	001c2241 	andseq	r2, ip, r1, asr #4
87808cd0:	3e081400 	cfcpyscc	mvf1, mvf8
87808cd4:	08001408 	stmdaeq	r0, {r3, sl, ip}
87808cd8:	08083e08 	stmdaeq	r8, {r3, r9, sl, fp, ip, sp}
87808cdc:	a0000000 	andge	r0, r0, r0
87808ce0:	08000060 	stmdaeq	r0, {r5, r6}
87808ce4:	08080808 	stmdaeq	r8, {r3, fp}
87808ce8:	60600000 	rsbvs	r0, r0, r0
87808cec:	20400000 	subcs	r0, r0, r0
87808cf0:	02040810 	andeq	r0, r4, #16, 16	; 0x100000
87808cf4:	49513e00 	ldmdbmi	r1, {r9, sl, fp, ip, sp}^
87808cf8:	00003e45 	andeq	r3, r0, r5, asr #28
87808cfc:	00407f42 	subeq	r7, r0, r2, asr #30
87808d00:	51614200 	cmnpl	r1, r0, lsl #4
87808d04:	21004649 	tstcs	r0, r9, asr #12
87808d08:	314b4541 	cmpcc	fp, r1, asr #10
87808d0c:	12141800 	andsne	r1, r4, #0, 16
87808d10:	2700107f 	smlsdxcs	r0, pc, r0, r1	; <UNPREDICTABLE>
87808d14:	39454545 	stmdbcc	r5, {r0, r2, r6, r8, sl, lr}^
87808d18:	494a3c00 	stmdbmi	sl, {sl, fp, ip, sp}^
87808d1c:	01003049 	tsteq	r0, r9, asr #32
87808d20:	03050971 	movweq	r0, #22897	; 0x5971
87808d24:	49493600 	stmdbmi	r9, {r9, sl, ip, sp}^
87808d28:	06003649 	streq	r3, [r0], -r9, asr #12
87808d2c:	1e294949 	cdpne	9, 2, cr4, cr9, cr9, {2}
87808d30:	36360000 	ldrtcc	r0, [r6], -r0
87808d34:	00000000 	andeq	r0, r0, r0
87808d38:	00003656 	andeq	r3, r0, r6, asr r6
87808d3c:	22140800 	andscs	r0, r4, #0, 16
87808d40:	14000041 	strne	r0, [r0], #-65	; 0x41
87808d44:	14141414 	ldrne	r1, [r4], #-1044	; 0x414
87808d48:	22410000 	subcs	r0, r1, #0
87808d4c:	02000814 	andeq	r0, r0, #20, 16	; 0x140000
87808d50:	06095101 	streq	r5, [r9], -r1, lsl #2
87808d54:	59493200 	stmdbpl	r9, {r9, ip, sp}^
87808d58:	7c003e51 	stcvc	14, cr3, [r0], {81}	; 0x51
87808d5c:	7c121112 	ldfvcs	f1, [r2], {18}
87808d60:	49497f00 	stmdbmi	r9, {r8, r9, sl, fp, ip, sp, lr}^
87808d64:	3e003649 	cfmadd32cc	mvax2, mvfx3, mvfx0, mvfx9
87808d68:	22414141 	subcs	r4, r1, #1073741840	; 0x40000010
87808d6c:	41417f00 	cmpmi	r1, r0, lsl #30
87808d70:	7f001c22 	svcvc	0x00001c22
87808d74:	41494949 	cmpmi	r9, r9, asr #18
87808d78:	09097f00 	stmdbeq	r9, {r8, r9, sl, fp, ip, sp, lr}
87808d7c:	3e000109 	adfccs	f0, f0, #1.0
87808d80:	7a494941 	bvc	88a5b28c <__bss_end+0x124bf44>
87808d84:	08087f00 	stmdaeq	r8, {r8, r9, sl, fp, ip, sp, lr}
87808d88:	00007f08 	andeq	r7, r0, r8, lsl #30
87808d8c:	00417f41 	subeq	r7, r1, r1, asr #30
87808d90:	41402000 	mrsmi	r2, (UNDEF: 64)
87808d94:	7f00013f 	svcvc	0x0000013f
87808d98:	41221408 	teqmi	r2, r8, lsl #8
87808d9c:	40407f00 	submi	r7, r0, r0, lsl #30
87808da0:	7f004040 	svcvc	0x00004040
87808da4:	7f020c02 	svcvc	0x00020c02
87808da8:	08047f00 	stmdaeq	r4, {r8, r9, sl, fp, ip, sp, lr}
87808dac:	3e007f10 	mcrcc	15, 0, r7, cr0, cr0, {0}
87808db0:	3e414141 	dvfccsm	f4, f1, f1
87808db4:	09097f00 	stmdbeq	r9, {r8, r9, sl, fp, ip, sp, lr}
87808db8:	3e000609 	cfmadd32cc	mvax0, mvfx0, mvfx0, mvfx9
87808dbc:	5e215141 	sufplsm	f5, f1, f1
87808dc0:	19097f00 	stmdbne	r9, {r8, r9, sl, fp, ip, sp, lr}
87808dc4:	46004629 	strmi	r4, [r0], -r9, lsr #12
87808dc8:	31494949 	cmpcc	r9, r9, asr #18
87808dcc:	7f010100 	svcvc	0x00010100
87808dd0:	3f000101 	svccc	0x00000101
87808dd4:	3f404040 	svccc	0x00404040
87808dd8:	40201f00 	eormi	r1, r0, r0, lsl #30
87808ddc:	3f001f20 	svccc	0x00001f20
87808de0:	3f403840 	svccc	0x00403840
87808de4:	08146300 	ldmdaeq	r4, {r8, r9, sp, lr}
87808de8:	07006314 	smladeq	r0, r4, r3, r6
87808dec:	07087008 	streq	r7, [r8, -r8]
87808df0:	49516100 	ldmdbmi	r1, {r8, sp, lr}^
87808df4:	00004345 	andeq	r4, r0, r5, asr #6
87808df8:	0041417f 	subeq	r4, r1, pc, ror r1
87808dfc:	10080402 	andne	r0, r8, r2, lsl #8
87808e00:	00004020 	andeq	r4, r0, r0, lsr #32
87808e04:	007f4141 	rsbseq	r4, pc, r1, asr #2
87808e08:	01020400 	tsteq	r2, r0, lsl #8
87808e0c:	40000402 	andmi	r0, r0, r2, lsl #8
87808e10:	40404040 	submi	r4, r0, r0, asr #32
87808e14:	02010000 	andeq	r0, r1, #0
87808e18:	20000004 	andcs	r0, r0, r4
87808e1c:	78545454 	ldmdavc	r4, {r2, r4, r6, sl, ip, lr}^
87808e20:	44487f00 	strbmi	r7, [r8], #-3840	; 0xf00
87808e24:	38003844 	stmdacc	r0, {r2, r6, fp, ip, sp}
87808e28:	20444444 	subcs	r4, r4, r4, asr #8
87808e2c:	44443800 	strbmi	r3, [r4], #-2048	; 0x800
87808e30:	38007f48 	stmdacc	r0, {r3, r6, r8, r9, sl, fp, ip, sp, lr}
87808e34:	18545454 	ldmdane	r4, {r2, r4, r6, sl, ip, lr}^
87808e38:	097e0800 	ldmdbeq	lr!, {fp}^
87808e3c:	18000201 	stmdane	r0, {r0, r9}
87808e40:	7ca4a4a4 	cfstrsvc	mvf10, [r4], #656	; 0x290
87808e44:	04087f00 	streq	r7, [r8], #-3840	; 0xf00
87808e48:	00007804 	andeq	r7, r0, r4, lsl #16
87808e4c:	00407d44 	subeq	r7, r0, r4, asr #26
87808e50:	84804000 	strhi	r4, [r0], #0
87808e54:	7f00007d 	svcvc	0x0000007d
87808e58:	00442810 	subeq	r2, r4, r0, lsl r8
87808e5c:	7f410000 	svcvc	0x00410000
87808e60:	7c000040 	stcvc	0, cr0, [r0], {64}	; 0x40
87808e64:	78041804 	stmdavc	r4, {r2, fp, ip}
87808e68:	04087c00 	streq	r7, [r8], #-3072	; 0xc00
87808e6c:	38007804 	stmdacc	r0, {r2, fp, ip, sp, lr}
87808e70:	38444444 	stmdacc	r4, {r2, r6, sl, lr}^
87808e74:	2424fc00 	strtcs	pc, [r4], #-3072	; 0xc00
87808e78:	18001824 	stmdane	r0, {r2, r5, fp, ip}
87808e7c:	fc182424 	ldc2	4, cr2, [r8], {36}	; 0x24
87808e80:	04087c00 	streq	r7, [r8], #-3072	; 0xc00
87808e84:	48000804 	stmdami	r0, {r2, fp}
87808e88:	20545454 	subscs	r5, r4, r4, asr r4
87808e8c:	443f0400 	ldrtmi	r0, [pc], #-1024	; 87808e94 <ascii_font_6x8+0x200>
87808e90:	3c002040 	stccc	0, cr2, [r0], {64}	; 0x40
87808e94:	7c204040 	stcvc	0, cr4, [r0], #-256	; 0xffffff00
87808e98:	40201c00 	eormi	r1, r0, r0, lsl #24
87808e9c:	3c001c20 	stccc	12, cr1, [r0], {32}
87808ea0:	3c403040 	mcrrcc	0, 4, r3, r0, cr0
87808ea4:	10284400 	eorne	r4, r8, r0, lsl #8
87808ea8:	1c004428 	cfstrsne	mvf4, [r0], {40}	; 0x28
87808eac:	7ca0a0a0 	stcvc	0, cr10, [r0], #640	; 0x280
87808eb0:	54644400 	strbtpl	r4, [r4], #-1024	; 0x400
87808eb4:	1414444c 	ldrne	r4, [r4], #-1100	; 0x44c
87808eb8:	14141414 	ldrne	r1, [r4], #-1044	; 0x414

87808ebc <ascii_font_8x16>:
	...
87808ecc:	f8000000 			; <UNDEFINED> instruction: 0xf8000000
87808ed0:	00000000 	andeq	r0, r0, r0
87808ed4:	33000000 	movwcc	r0, #0
87808ed8:	00000030 	andeq	r0, r0, r0, lsr r0
87808edc:	060c1000 	streq	r1, [ip], -r0
87808ee0:	00060c10 	andeq	r0, r6, r0, lsl ip
	...
87808eec:	4078c040 	rsbsmi	ip, r8, r0, asr #32
87808ef0:	004078c0 	subeq	r7, r0, r0, asr #17
87808ef4:	04043f04 	streq	r3, [r4], #-3844	; 0xf04
87808ef8:	0004043f 	andeq	r0, r4, pc, lsr r4
87808efc:	fc887000 	stc2	0, cr7, [r8], {0}
87808f00:	00003008 	andeq	r3, r0, r8
87808f04:	ff201800 			; <UNDEFINED> instruction: 0xff201800
87808f08:	00001e21 	andeq	r1, r0, r1, lsr #28
87808f0c:	00f008f0 	ldrshteq	r0, [r0], #128	; 0x80
87808f10:	000018e0 	andeq	r1, r0, r0, ror #17
87808f14:	031c2100 	tsteq	ip, #0, 2
87808f18:	001e211e 	andseq	r2, lr, lr, lsl r1
87808f1c:	8808f000 	stmdahi	r8, {ip, sp, lr, pc}
87808f20:	00000070 	andeq	r0, r0, r0, ror r0
87808f24:	2423211e 	strtcs	r2, [r3], #-286	; 0x11e
87808f28:	10212719 	eorne	r2, r1, r9, lsl r7
87808f2c:	000e1610 	andeq	r1, lr, r0, lsl r6
	...
87808f3c:	e0000000 	and	r0, r0, r0
87808f40:	00020418 	andeq	r0, r2, r8, lsl r4
87808f44:	07000000 	streq	r0, [r0, -r0]
87808f48:	00402018 	subeq	r2, r0, r8, lsl r0
87808f4c:	18040200 	stmdane	r4, {r9}
87808f50:	000000e0 	andeq	r0, r0, r0, ror #1
87808f54:	18204000 	stmdane	r0!, {lr}
87808f58:	00000007 	andeq	r0, r0, r7
87808f5c:	f0804040 			; <UNDEFINED> instruction: 0xf0804040
87808f60:	00404080 	subeq	r4, r0, r0, lsl #1
87808f64:	0f010202 	svceq	0x00010202
87808f68:	00020201 	andeq	r0, r2, r1, lsl #4
87808f6c:	f0000000 			; <UNDEFINED> instruction: 0xf0000000
87808f70:	00000000 	andeq	r0, r0, r0
87808f74:	1f010101 	svcne	0x00010101
87808f78:	00010101 	andeq	r0, r1, r1, lsl #2
	...
87808f84:	0070b080 	rsbseq	fp, r0, r0, lsl #1
	...
87808f94:	01010100 	mrseq	r0, (UNDEF: 17)
87808f98:	01010101 	tsteq	r1, r1, lsl #2
	...
87808fa4:	00303000 	eorseq	r3, r0, r0
	...
87808fb0:	04186080 	ldreq	r6, [r8], #-128	; 0x80
87808fb4:	06186000 	ldreq	r6, [r8], -r0
87808fb8:	00000001 	andeq	r0, r0, r1
87808fbc:	0810e000 	ldmdaeq	r0, {sp, lr, pc}
87808fc0:	00e01008 	rsceq	r1, r0, r8
87808fc4:	20100f00 	andscs	r0, r0, r0, lsl #30
87808fc8:	000f1020 	andeq	r1, pc, r0, lsr #32
87808fcc:	f8101000 			; <UNDEFINED> instruction: 0xf8101000
87808fd0:	00000000 	andeq	r0, r0, r0
87808fd4:	3f202000 	svccc	0x00202000
87808fd8:	00002020 	andeq	r2, r0, r0, lsr #32
87808fdc:	08087000 	stmdaeq	r8, {ip, sp, lr}
87808fe0:	00708808 	rsbseq	r8, r0, r8, lsl #16
87808fe4:	24283000 	strtcs	r3, [r8], #-0
87808fe8:	00302122 	eorseq	r2, r0, r2, lsr #2
87808fec:	88083000 	stmdahi	r8, {ip, sp}
87808ff0:	00304888 	eorseq	r4, r0, r8, lsl #17
87808ff4:	20201800 	eorcs	r1, r0, r0, lsl #16
87808ff8:	000e1120 	andeq	r1, lr, r0, lsr #2
87808ffc:	20c00000 	sbccs	r0, r0, r0
87809000:	0000f810 	andeq	pc, r0, r0, lsl r8	; <UNPREDICTABLE>
87809004:	24040700 	strcs	r0, [r4], #-1792	; 0x700
87809008:	00243f24 	eoreq	r3, r4, r4, lsr #30
8780900c:	8808f800 	stmdahi	r8, {fp, ip, sp, lr, pc}
87809010:	00080888 	andeq	r0, r8, r8, lsl #17
87809014:	20211900 	eorcs	r1, r1, r0, lsl #18
87809018:	000e1120 	andeq	r1, lr, r0, lsr #2
8780901c:	8810e000 	ldmdahi	r0, {sp, lr, pc}
87809020:	00001888 	andeq	r1, r0, r8, lsl #17
87809024:	20110f00 	andscs	r0, r1, r0, lsl #30
87809028:	000e1120 	andeq	r1, lr, r0, lsr #2
8780902c:	08083800 	stmdaeq	r8, {fp, ip, sp}
87809030:	000838c8 	andeq	r3, r8, r8, asr #17
87809034:	3f000000 	svccc	0x00000000
87809038:	00000000 	andeq	r0, r0, r0
8780903c:	08887000 	stmeq	r8, {ip, sp, lr}
87809040:	00708808 	rsbseq	r8, r0, r8, lsl #16
87809044:	21221c00 	teqcs	r2, r0, lsl #24
87809048:	001c2221 	andseq	r2, ip, r1, lsr #4
8780904c:	0810e000 	ldmdaeq	r0, {sp, lr, pc}
87809050:	00e01008 	rsceq	r1, r0, r8
87809054:	22310000 	eorscs	r0, r1, #0
87809058:	000f1122 	andeq	r1, pc, r2, lsr #2
8780905c:	c0000000 	andgt	r0, r0, r0
87809060:	000000c0 	andeq	r0, r0, r0, asr #1
87809064:	30000000 	andcc	r0, r0, r0
87809068:	00000030 	andeq	r0, r0, r0, lsr r0
8780906c:	80000000 	andhi	r0, r0, r0
87809070:	00000000 	andeq	r0, r0, r0
87809074:	60800000 	addvs	r0, r0, r0
87809078:	00000000 	andeq	r0, r0, r0
8780907c:	40800000 	addmi	r0, r0, r0
87809080:	00081020 	andeq	r1, r8, r0, lsr #32
87809084:	04020100 	streq	r0, [r2], #-256	; 0x100
87809088:	00201008 	eoreq	r1, r0, r8
8780908c:	40404040 	submi	r4, r0, r0, asr #32
87809090:	00404040 	subeq	r4, r0, r0, asr #32
87809094:	04040404 	streq	r0, [r4], #-1028	; 0x404
87809098:	00040404 	andeq	r0, r4, r4, lsl #8
8780909c:	20100800 	andscs	r0, r0, r0, lsl #16
878090a0:	00008040 	andeq	r8, r0, r0, asr #32
878090a4:	08102000 	ldmdaeq	r0, {sp}
878090a8:	00010204 	andeq	r0, r1, r4, lsl #4
878090ac:	08487000 	stmdaeq	r8, {ip, sp, lr}^
878090b0:	00f00808 	rscseq	r0, r0, r8, lsl #16
878090b4:	30000000 	andcc	r0, r0, r0
878090b8:	00000136 	andeq	r0, r0, r6, lsr r1
878090bc:	28c830c0 	stmiacs	r8, {r6, r7, ip, sp}^
878090c0:	00e010e8 	rsceq	r1, r0, r8, ror #1
878090c4:	24271807 	strtcs	r1, [r7], #-2055	; 0x807
878090c8:	000b1423 	andeq	r1, fp, r3, lsr #8
878090cc:	38c00000 	stmiacc	r0, {}^	; <UNPREDICTABLE>
878090d0:	000000e0 	andeq	r0, r0, r0, ror #1
878090d4:	02233c20 	eoreq	r3, r3, #32, 24	; 0x2000
878090d8:	20382702 	eorscs	r2, r8, r2, lsl #14
878090dc:	8888f808 	stmhi	r8, {r3, fp, ip, sp, lr, pc}
878090e0:	00007088 	andeq	r7, r0, r8, lsl #1
878090e4:	20203f20 	eorcs	r3, r0, r0, lsr #30
878090e8:	000e1120 	andeq	r1, lr, r0, lsr #2
878090ec:	080830c0 	stmdaeq	r8, {r6, r7, ip, sp}
878090f0:	00380808 	eorseq	r0, r8, r8, lsl #16
878090f4:	20201807 	eorcs	r1, r0, r7, lsl #16
878090f8:	00081020 	andeq	r1, r8, r0, lsr #32
878090fc:	0808f808 	stmdaeq	r8, {r3, fp, ip, sp, lr, pc}
87809100:	00e01008 	rsceq	r1, r0, r8
87809104:	20203f20 	eorcs	r3, r0, r0, lsr #30
87809108:	000f1020 	andeq	r1, pc, r0, lsr #32
8780910c:	8888f808 	stmhi	r8, {r3, fp, ip, sp, lr, pc}
87809110:	001008e8 	andseq	r0, r0, r8, ror #17
87809114:	20203f20 	eorcs	r3, r0, r0, lsr #30
87809118:	00182023 	andseq	r2, r8, r3, lsr #32
8780911c:	8888f808 	stmhi	r8, {r3, fp, ip, sp, lr, pc}
87809120:	001008e8 	andseq	r0, r0, r8, ror #17
87809124:	00203f20 	eoreq	r3, r0, r0, lsr #30
87809128:	00000003 	andeq	r0, r0, r3
8780912c:	080830c0 	stmdaeq	r8, {r6, r7, ip, sp}
87809130:	00003808 	andeq	r3, r0, r8, lsl #16
87809134:	20201807 	eorcs	r1, r0, r7, lsl #16
87809138:	00021e22 	andeq	r1, r2, r2, lsr #28
8780913c:	0008f808 	andeq	pc, r8, r8, lsl #16
87809140:	08f80800 	ldmeq	r8!, {fp}^
87809144:	01213f20 	teqeq	r1, r0, lsr #30
87809148:	203f2101 	eorscs	r2, pc, r1, lsl #2
8780914c:	f8080800 			; <UNDEFINED> instruction: 0xf8080800
87809150:	00000808 	andeq	r0, r0, r8, lsl #16
87809154:	3f202000 	svccc	0x00202000
87809158:	00002020 	andeq	r2, r0, r0, lsr #32
8780915c:	08080000 	stmdaeq	r8, {}	; <UNPREDICTABLE>
87809160:	000808f8 	strdeq	r0, [r8], -r8
87809164:	808080c0 	addhi	r8, r0, r0, asr #1
87809168:	0000007f 	andeq	r0, r0, pc, ror r0
8780916c:	c088f808 	addgt	pc, r8, r8, lsl #16
87809170:	00081828 	andeq	r1, r8, r8, lsr #16
87809174:	01203f20 	teqeq	r0, r0, lsr #30
87809178:	00203826 	eoreq	r3, r0, r6, lsr #16
8780917c:	0008f808 	andeq	pc, r8, r8, lsl #16
87809180:	00000000 	andeq	r0, r0, r0
87809184:	20203f20 	eorcs	r3, r0, r0, lsr #30
87809188:	00302020 	eorseq	r2, r0, r0, lsr #32
8780918c:	00f8f808 	rscseq	pc, r8, r8, lsl #16
87809190:	0008f8f8 	strdeq	pc, [r8], -r8
87809194:	3f003f20 	svccc	0x00003f20
87809198:	00203f00 	eoreq	r3, r0, r0, lsl #30
8780919c:	c030f808 	eorsgt	pc, r0, r8, lsl #16
878091a0:	08f80800 	ldmeq	r8!, {fp}^
878091a4:	00203f20 	eoreq	r3, r0, r0, lsr #30
878091a8:	003f1807 	eorseq	r1, pc, r7, lsl #16
878091ac:	080810e0 	stmdaeq	r8, {r5, r6, r7, ip}
878091b0:	00e01008 	rsceq	r1, r0, r8
878091b4:	2020100f 	eorcs	r1, r0, pc
878091b8:	000f1020 	andeq	r1, pc, r0, lsr #32
878091bc:	0808f808 	stmdaeq	r8, {r3, fp, ip, sp, lr, pc}
878091c0:	00f00808 	rscseq	r0, r0, r8, lsl #16
878091c4:	01213f20 	teqeq	r1, r0, lsr #30
878091c8:	00000101 	andeq	r0, r0, r1, lsl #2
878091cc:	080810e0 	stmdaeq	r8, {r5, r6, r7, ip}
878091d0:	00e01008 	rsceq	r1, r0, r8
878091d4:	2424180f 	strtcs	r1, [r4], #-2063	; 0x80f
878091d8:	004f5038 	subeq	r5, pc, r8, lsr r0	; <UNPREDICTABLE>
878091dc:	8888f808 	stmhi	r8, {r3, fp, ip, sp, lr, pc}
878091e0:	00708888 	rsbseq	r8, r0, r8, lsl #17
878091e4:	00203f20 	eoreq	r3, r0, r0, lsr #30
878091e8:	20300c03 	eorscs	r0, r0, r3, lsl #24
878091ec:	08887000 	stmeq	r8, {ip, sp, lr}
878091f0:	00380808 	eorseq	r0, r8, r8, lsl #16
878091f4:	21203800 	teqcs	r0, r0, lsl #16
878091f8:	001c2221 	andseq	r2, ip, r1, lsr #4
878091fc:	f8080818 			; <UNDEFINED> instruction: 0xf8080818
87809200:	00180808 	andseq	r0, r8, r8, lsl #16
87809204:	3f200000 	svccc	0x00200000
87809208:	00000020 	andeq	r0, r0, r0, lsr #32
8780920c:	0008f808 	andeq	pc, r8, r8, lsl #16
87809210:	08f80800 	ldmeq	r8!, {fp}^
87809214:	20201f00 	eorcs	r1, r0, r0, lsl #30
87809218:	001f2020 	andseq	r2, pc, r0, lsr #32
8780921c:	00887808 	addeq	r7, r8, r8, lsl #16
87809220:	0838c800 	ldmdaeq	r8!, {fp, lr, pc}
87809224:	38070000 	stmdacc	r7, {}	; <UNPREDICTABLE>
87809228:	0000010e 	andeq	r0, r0, lr, lsl #2
8780922c:	f80008f8 			; <UNDEFINED> instruction: 0xf80008f8
87809230:	00f80800 	rscseq	r0, r8, r0, lsl #16
87809234:	00073c03 	andeq	r3, r7, r3, lsl #24
87809238:	00033c07 	andeq	r3, r3, r7, lsl #24
8780923c:	80681808 	rsbhi	r1, r8, r8, lsl #16
87809240:	08186880 	ldmdaeq	r8, {r7, fp, sp, lr}
87809244:	032c3020 	teqeq	ip, #32
87809248:	20302c03 	eorscs	r2, r0, r3, lsl #24
8780924c:	00c83808 	sbceq	r3, r8, r8, lsl #16
87809250:	000838c8 	andeq	r3, r8, r8, asr #17
87809254:	3f200000 	svccc	0x00200000
87809258:	00000020 	andeq	r0, r0, r0, lsr #32
8780925c:	08080810 	stmdaeq	r8, {r4, fp}
87809260:	000838c8 	andeq	r3, r8, r8, asr #17
87809264:	21263820 	teqcs	r6, r0, lsr #16
87809268:	00182020 	andseq	r2, r8, r0, lsr #32
8780926c:	fe000000 	cdp2	0, 0, cr0, cr0, cr0, {0}
87809270:	00020202 	andeq	r0, r2, r2, lsl #4
87809274:	7f000000 	svcvc	0x00000000
87809278:	00404040 	subeq	r4, r0, r0, asr #32
8780927c:	c0300c00 	eorsgt	r0, r0, r0, lsl #24
87809280:	00000000 	andeq	r0, r0, r0
87809284:	01000000 	mrseq	r0, (UNDEF: 0)
87809288:	00c03806 	sbceq	r3, r0, r6, lsl #16
8780928c:	02020200 	andeq	r0, r2, #0, 4
87809290:	000000fe 	strdeq	r0, [r0], -lr
87809294:	40404000 	submi	r4, r0, r0
87809298:	0000007f 	andeq	r0, r0, pc, ror r0
8780929c:	02040000 	andeq	r0, r4, #0
878092a0:	00040202 	andeq	r0, r4, r2, lsl #4
	...
878092b4:	80808080 	addhi	r8, r0, r0, lsl #1
878092b8:	80808080 	addhi	r8, r0, r0, lsl #1
878092bc:	04020200 	streq	r0, [r2], #-512	; 0x200
	...
878092cc:	80800000 	addhi	r0, r0, r0
878092d0:	00008080 	andeq	r8, r0, r0, lsl #1
878092d4:	22241900 	eorcs	r1, r4, #0, 18
878092d8:	203f2222 	eorscs	r2, pc, r2, lsr #4
878092dc:	8000f808 	andhi	pc, r0, r8, lsl #16
878092e0:	00000080 	andeq	r0, r0, r0, lsl #1
878092e4:	20113f00 	andscs	r3, r1, r0, lsl #30
878092e8:	000e1120 	andeq	r1, lr, r0, lsr #2
878092ec:	80000000 	andhi	r0, r0, r0
878092f0:	00008080 	andeq	r8, r0, r0, lsl #1
878092f4:	20110e00 	andscs	r0, r1, r0, lsl #28
878092f8:	00112020 	andseq	r2, r1, r0, lsr #32
878092fc:	80000000 	andhi	r0, r0, r0
87809300:	00f88880 	rscseq	r8, r8, r0, lsl #17
87809304:	20110e00 	andscs	r0, r1, r0, lsl #28
87809308:	203f1020 	eorscs	r1, pc, r0, lsr #32
8780930c:	80800000 	addhi	r0, r0, r0
87809310:	00008080 	andeq	r8, r0, r0, lsl #1
87809314:	22221f00 	eorcs	r1, r2, #0, 30
87809318:	00132222 	andseq	r2, r3, r2, lsr #4
8780931c:	f0808000 			; <UNDEFINED> instruction: 0xf0808000
87809320:	18888888 	stmne	r8, {r3, r7, fp, pc}
87809324:	3f202000 	svccc	0x00202000
87809328:	00002020 	andeq	r2, r0, r0, lsr #32
8780932c:	80800000 	addhi	r0, r0, r0
87809330:	00808080 	addeq	r8, r0, r0, lsl #1
87809334:	94946b00 	ldrls	r6, [r4], #2816	; 0xb00
87809338:	00609394 	mlseq	r0, r4, r3, r9
8780933c:	8000f808 	andhi	pc, r0, r8, lsl #16
87809340:	00008080 	andeq	r8, r0, r0, lsl #1
87809344:	00213f20 	eoreq	r3, r1, r0, lsr #30
87809348:	203f2000 	eorscs	r2, pc, r0
8780934c:	98988000 	ldmls	r8, {pc}
87809350:	00000000 	andeq	r0, r0, r0
87809354:	3f202000 	svccc	0x00202000
87809358:	00002020 	andeq	r2, r0, r0, lsr #32
8780935c:	80000000 	andhi	r0, r0, r0
87809360:	00009898 	muleq	r0, r8, r8
87809364:	8080c000 	addhi	ip, r0, r0
87809368:	00007f80 	andeq	r7, r0, r0, lsl #31
8780936c:	0000f808 	andeq	pc, r0, r8, lsl #16
87809370:	00808080 	addeq	r8, r0, r0, lsl #1
87809374:	02243f20 	eoreq	r3, r4, #32, 30	; 0x80
87809378:	0020302d 	eoreq	r3, r0, sp, lsr #32
8780937c:	f8080800 			; <UNDEFINED> instruction: 0xf8080800
87809380:	00000000 	andeq	r0, r0, r0
87809384:	3f202000 	svccc	0x00202000
87809388:	00002020 	andeq	r2, r0, r0, lsr #32
8780938c:	80808080 	addhi	r8, r0, r0, lsl #1
87809390:	00808080 	addeq	r8, r0, r0, lsl #1
87809394:	00203f20 	eoreq	r3, r0, r0, lsr #30
87809398:	3f00203f 	svccc	0x0000203f
8780939c:	80008080 	andhi	r8, r0, r0, lsl #1
878093a0:	00008080 	andeq	r8, r0, r0, lsl #1
878093a4:	00213f20 	eoreq	r3, r1, r0, lsr #30
878093a8:	203f2000 	eorscs	r2, pc, r0
878093ac:	80800000 	addhi	r0, r0, r0
878093b0:	00008080 	andeq	r8, r0, r0, lsl #1
878093b4:	20201f00 	eorcs	r1, r0, r0, lsl #30
878093b8:	001f2020 	andseq	r2, pc, r0, lsr #32
878093bc:	80008080 	andhi	r8, r0, r0, lsl #1
878093c0:	00000080 	andeq	r0, r0, r0, lsl #1
878093c4:	20a1ff80 	adccs	pc, r1, r0, lsl #31
878093c8:	000e1120 	andeq	r1, lr, r0, lsr #2
878093cc:	80000000 	andhi	r0, r0, r0
878093d0:	00808080 	addeq	r8, r0, r0, lsl #1
878093d4:	20110e00 	andscs	r0, r1, r0, lsl #28
878093d8:	80ffa020 	rscshi	sl, pc, r0, lsr #32
878093dc:	00808080 	addeq	r8, r0, r0, lsl #1
878093e0:	00808080 	addeq	r8, r0, r0, lsl #1
878093e4:	213f2020 	teqcs	pc, r0, lsr #32
878093e8:	00010020 	andeq	r0, r1, r0, lsr #32
878093ec:	80800000 	addhi	r0, r0, r0
878093f0:	00808080 	addeq	r8, r0, r0, lsl #1
878093f4:	24243300 	strtcs	r3, [r4], #-768	; 0x300
878093f8:	00192424 	andseq	r2, r9, r4, lsr #8
878093fc:	e0808000 	add	r8, r0, r0
87809400:	00008080 	andeq	r8, r0, r0, lsl #1
87809404:	1f000000 	svcne	0x00000000
87809408:	00002020 	andeq	r2, r0, r0, lsr #32
8780940c:	00008080 	andeq	r8, r0, r0, lsl #1
87809410:	00808000 	addeq	r8, r0, r0
87809414:	20201f00 	eorcs	r1, r0, r0, lsl #30
87809418:	203f1020 	eorscs	r1, pc, r0, lsr #32
8780941c:	00808080 	addeq	r8, r0, r0, lsl #1
87809420:	80808000 	addhi	r8, r0, r0
87809424:	300e0100 	andcc	r0, lr, r0, lsl #2
87809428:	00010608 	andeq	r0, r1, r8, lsl #12
8780942c:	80008080 	andhi	r8, r0, r0, lsl #1
87809430:	80808000 	addhi	r8, r0, r0
87809434:	030c300f 	movweq	r3, #49167	; 0xc00f
87809438:	000f300c 	andeq	r3, pc, ip
8780943c:	00808000 	addeq	r8, r0, r0
87809440:	00808080 	addeq	r8, r0, r0, lsl #1
87809444:	2e312000 	cdpcs	0, 3, cr2, cr1, cr0, {0}
87809448:	0020310e 	eoreq	r3, r0, lr, lsl #2
8780944c:	00808080 	addeq	r8, r0, r0, lsl #1
87809450:	80808000 	addhi	r8, r0, r0
87809454:	708e8180 	addvc	r8, lr, r0, lsl #3
87809458:	00010618 	andeq	r0, r1, r8, lsl r6
8780945c:	80808000 	addhi	r8, r0, r0
87809460:	00808080 	addeq	r8, r0, r0, lsl #1
87809464:	2c302100 	ldfcss	f2, [r0], #-0
87809468:	00302122 	eorseq	r2, r0, r2, lsr #2
8780946c:	00000000 	andeq	r0, r0, r0
87809470:	02027c80 	andeq	r7, r2, #128, 24	; 0x8000
87809474:	00000000 	andeq	r0, r0, r0
87809478:	40403f00 	submi	r3, r0, r0, lsl #30
8780947c:	00000000 	andeq	r0, r0, r0
87809480:	000000ff 	strdeq	r0, [r0], -pc	; <UNPREDICTABLE>
87809484:	00000000 	andeq	r0, r0, r0
87809488:	000000ff 	strdeq	r0, [r0], -pc	; <UNPREDICTABLE>
8780948c:	7c020200 	sfmvc	f0, 4, [r2], {-0}
87809490:	00000080 	andeq	r0, r0, r0, lsl #1
87809494:	3f404000 	svccc	0x00404000
87809498:	00000000 	andeq	r0, r0, r0
8780949c:	01010600 	tsteq	r1, r0, lsl #12
878094a0:	04040202 	streq	r0, [r4], #-514	; 0x202
	...

878094ac <ascii_font_32x32>:
	...
87809544:	c000f007 	andgt	pc, r0, r7
87809548:	e0e1ff07 	rsc	pc, r1, r7, lsl #30
8780954c:	e001f007 	and	pc, r1, r7
87809550:	c0000000 	andgt	r0, r0, r0
	...
878095b4:	00002000 	andeq	r2, r0, r0
878095b8:	0000c001 	andeq	ip, r0, r1
878095bc:	00008007 	andeq	r8, r0, r7
878095c0:	0000001f 	andeq	r0, r0, pc, lsl r0
878095c4:	0000001e 	andeq	r0, r0, lr, lsl r0
878095c8:	0000201c 	andeq	r2, r0, ip, lsl r0
878095cc:	0000c001 	andeq	ip, r0, r1
878095d0:	00008007 	andeq	r8, r0, r7
878095d4:	0000001f 	andeq	r0, r0, pc, lsl r0
878095d8:	0000001e 	andeq	r0, r0, lr, lsl r0
878095dc:	0000001c 	andeq	r0, r0, ip, lsl r0
	...
87809630:	000c1800 	andeq	r1, ip, r0, lsl #16
87809634:	000c1800 	andeq	r1, ip, r0, lsl #16
87809638:	e00f1800 	and	r1, pc, r0, lsl #16
8780963c:	00fc1f00 	rscseq	r1, ip, r0, lsl #30
87809640:	000cf803 	andeq	pc, ip, r3, lsl #16
87809644:	000c1800 	andeq	r1, ip, r0, lsl #16
87809648:	000c1800 	andeq	r1, ip, r0, lsl #16
8780964c:	000c1800 	andeq	r1, ip, r0, lsl #16
87809650:	000c1800 	andeq	r1, ip, r0, lsl #16
87809654:	e00f1800 	and	r1, pc, r0, lsl #16
87809658:	00fc1f00 	rscseq	r1, ip, r0, lsl #30
8780965c:	000cf803 	andeq	pc, ip, r3, lsl #16
87809660:	000c1800 	andeq	r1, ip, r0, lsl #16
87809664:	000c1800 	andeq	r1, ip, r0, lsl #16
	...
878096b4:	80070000 	andhi	r0, r7, r0
878096b8:	c0077800 	andgt	r7, r7, r0, lsl #16
878096bc:	4006fc00 	andmi	pc, r6, r0, lsl #24
878096c0:	20000e01 	andcs	r0, r0, r1, lsl #28
878096c4:	20000703 	andcs	r0, r0, r3, lsl #14
878096c8:	20800302 	addcs	r0, r0, r2, lsl #6
878096cc:	fcffff0f 	ldc2l	15, cr15, [pc], #60	; 87809710 <ascii_font_32x32+0x264>
878096d0:	20c00102 	sbccs	r0, r0, r2, lsl #2
878096d4:	60e00002 	rscvs	r0, r0, r2
878096d8:	40703001 	rsbsmi	r3, r0, r1
878096dc:	803ff001 	eorshi	pc, pc, r1
878096e0:	001ff000 	andseq	pc, pc, r0
	...
8780972c:	0000fe00 	andeq	pc, r0, r0, lsl #28
87809730:	0000ff01 	andeq	pc, r0, r1, lsl #30
87809734:	00800103 	addeq	r0, r0, r3, lsl #2
87809738:	60800002 	addvs	r0, r0, r2
8780973c:	c0810103 	addgt	r0, r1, r3, lsl #2
87809740:	0007ff01 	andeq	pc, r7, r1, lsl #30
87809744:	0018fe00 	andseq	pc, r8, r0, lsl #28
87809748:	00e00000 	rsceq	r0, r0, r0
8780974c:	00bf0300 	adcseq	r0, pc, r0, lsl #6
87809750:	c0ff0c00 	rscsgt	r0, pc, r0, lsl #24
87809754:	60807100 	addvs	r7, r0, r0, lsl #2
87809758:	2000c101 	andcs	ip, r0, r1, lsl #2
8780975c:	60800103 	addvs	r0, r0, r3, lsl #2
87809760:	c0ff0000 	rscsgt	r0, pc, r0
87809764:	003f0000 	eorseq	r0, pc, r0
	...
878097ac:	001f0000 	andseq	r0, pc, r0
878097b0:	c07f0000 	rsbsgt	r0, pc, r0
878097b4:	c0c0fc00 	sbcgt	pc, r0, r0, lsl #24
878097b8:	6080ff01 	addvs	pc, r0, r1, lsl #30
878097bc:	20e00303 	rsccs	r0, r0, r3, lsl #6
878097c0:	20780202 	rsbscs	r0, r8, r2, lsl #4
878097c4:	201e0602 	andscs	r0, lr, r2, lsl #12
878097c8:	4007fc03 	andmi	pc, r7, r3, lsl #24
878097cc:	8003f001 	andhi	pc, r3, r1
878097d0:	c0030100 	andgt	r0, r3, r0, lsl #2
878097d4:	601c0100 	andsvs	r0, ip, r0, lsl #2
878097d8:	20e00100 	rsccs	r0, r0, r0, lsl #2
878097dc:	20000100 	andcs	r0, r0, r0, lsl #2
878097e0:	40000100 	andmi	r0, r0, r0, lsl #2
878097e4:	80010000 	andhi	r0, r1, r0
	...
87809830:	00002000 	andeq	r2, r0, r0
87809834:	0000601c 	andeq	r6, r0, ip, lsl r0
87809838:	0000401c 	andeq	r4, r0, ip, lsl r0
8780983c:	0000801f 	andeq	r8, r0, pc, lsl r0
87809840:	0000000f 	andeq	r0, r0, pc
	...
878098c8:	00f80700 	rscseq	r0, r8, r0, lsl #14
878098cc:	00ff3f00 	rscseq	r3, pc, r0, lsl #30
878098d0:	c0077800 	andgt	r7, r7, r0, lsl #16
878098d4:	e000c001 	and	ip, r0, r1
878098d8:	30000003 	andcc	r0, r0, r3
878098dc:	08000004 	stmdaeq	r0, {r2}
878098e0:	04000008 	streq	r0, [r0], #-8
878098e4:	02000010 	andeq	r0, r0, #16
	...
87809930:	02000010 	andeq	r0, r0, #16
87809934:	04000008 	streq	r0, [r0], #-8
87809938:	08000004 	stmdaeq	r0, {r2}
8780993c:	30000003 	andcc	r0, r0, r3
87809940:	e000c001 	and	ip, r0, r1
87809944:	c0077800 	andgt	r7, r7, r0, lsl #16
87809948:	00ff3f00 	rscseq	r3, pc, r0, lsl #30
8780994c:	00f80700 	rscseq	r0, r8, r0, lsl #14
	...
878099b4:	00180c00 	andseq	r0, r8, r0, lsl #24
878099b8:	00380e00 	eorseq	r0, r8, r0, lsl #28
878099bc:	00380e00 	eorseq	r0, r8, r0, lsl #28
878099c0:	00300600 	eorseq	r0, r0, r0, lsl #12
878099c4:	00600300 	rsbeq	r0, r0, r0, lsl #6
878099c8:	80436100 	subhi	r6, r3, r0, lsl #2
878099cc:	80ffff00 	rscshi	pc, pc, r0, lsl #30
878099d0:	00436100 	subeq	r6, r3, r0, lsl #2
878099d4:	00600300 	rsbeq	r0, r0, r0, lsl #6
878099d8:	00300600 	eorseq	r0, r0, r0, lsl #12
878099dc:	00380e00 	eorseq	r0, r8, r0, lsl #28
878099e0:	00380e00 	eorseq	r0, r8, r0, lsl #28
878099e4:	00180c00 	andseq	r0, r8, r0, lsl #24
	...
87809a34:	00800000 	addeq	r0, r0, r0
87809a38:	00800000 	addeq	r0, r0, r0
87809a3c:	00800000 	addeq	r0, r0, r0
87809a40:	00800000 	addeq	r0, r0, r0
87809a44:	00800000 	addeq	r0, r0, r0
87809a48:	00800000 	addeq	r0, r0, r0
87809a4c:	00ff7f00 	rscseq	r7, pc, r0, lsl #30
87809a50:	00800000 	addeq	r0, r0, r0
87809a54:	00800000 	addeq	r0, r0, r0
87809a58:	00800000 	addeq	r0, r0, r0
87809a5c:	00800000 	addeq	r0, r0, r0
87809a60:	00800000 	addeq	r0, r0, r0
87809a64:	00800000 	addeq	r0, r0, r0
	...
87809ab0:	01000000 	mrseq	r0, (UNDEF: 0)
87809ab4:	e3000000 	movw	r0, #0
87809ab8:	e2000000 	and	r0, r0, #0
87809abc:	fc000000 	stc2	0, cr0, [r0], {-0}
87809ac0:	78000000 	stmdavc	r0, {}	; <UNPREDICTABLE>
	...
87809b30:	00800000 	addeq	r0, r0, r0
87809b34:	00800000 	addeq	r0, r0, r0
87809b38:	00800000 	addeq	r0, r0, r0
87809b3c:	00800000 	addeq	r0, r0, r0
87809b40:	00800000 	addeq	r0, r0, r0
87809b44:	00800000 	addeq	r0, r0, r0
87809b48:	00800000 	addeq	r0, r0, r0
87809b4c:	00800000 	addeq	r0, r0, r0
87809b50:	00800000 	addeq	r0, r0, r0
87809b54:	00800000 	addeq	r0, r0, r0
87809b58:	00800000 	addeq	r0, r0, r0
87809b5c:	00800000 	addeq	r0, r0, r0
87809b60:	00800000 	addeq	r0, r0, r0
87809b64:	00800000 	addeq	r0, r0, r0
	...
87809bb4:	c0000000 	andgt	r0, r0, r0
87809bb8:	e0010000 	and	r0, r1, r0
87809bbc:	e0010000 	and	r0, r1, r0
87809bc0:	c0000000 	andgt	r0, r0, r0
	...
87809c30:	0c000000 	stceq	0, cr0, [r0], {-0}
87809c34:	38000000 	stmdacc	r0, {}	; <UNPREDICTABLE>
87809c38:	e0000000 	and	r0, r0, r0
87809c3c:	80030000 	andhi	r0, r3, r0
87809c40:	000e0000 	andeq	r0, lr, r0
87809c44:	00380000 	eorseq	r0, r8, r0
87809c48:	00e00000 	rsceq	r0, r0, r0
87809c4c:	00800300 	addeq	r0, r0, r0, lsl #6
87809c50:	00000e00 	andeq	r0, r0, r0, lsl #28
87809c54:	00003800 	andeq	r3, r0, r0, lsl #16
87809c58:	0000e000 	andeq	lr, r0, r0
87809c5c:	00008003 	andeq	r8, r0, r3
87809c60:	0000000e 	andeq	r0, r0, lr
87809c64:	00000018 	andeq	r0, r0, r8, lsl r0
	...
87809cb4:	00f80f00 	rscseq	r0, r8, r0, lsl #30
87809cb8:	00ff7f00 	rscseq	r7, pc, r0, lsl #30
87809cbc:	8007f000 	andhi	pc, r7, r0
87809cc0:	c0008001 	andgt	r8, r0, r1
87809cc4:	60000003 	andvs	r0, r0, r3
87809cc8:	20000002 	andcs	r0, r0, r2
87809ccc:	20000002 	andcs	r0, r0, r2
87809cd0:	20000002 	andcs	r0, r0, r2
87809cd4:	60000003 	andvs	r0, r0, r3
87809cd8:	c0008001 	andgt	r8, r0, r1
87809cdc:	8003e000 	andhi	lr, r3, r0
87809ce0:	00ff7f00 	rscseq	r7, pc, r0, lsl #30
87809ce4:	00f80f00 	rscseq	r0, r8, r0, lsl #30
	...
87809d38:	20008000 	andcs	r8, r0, r0
87809d3c:	20008000 	andcs	r8, r0, r0
87809d40:	20008000 	andcs	r8, r0, r0
87809d44:	60008000 	andvs	r8, r0, r0
87809d48:	e0ffff01 	rscs	pc, pc, r1, lsl #30
87809d4c:	e0ffff03 	rscs	pc, pc, r3, lsl #30
87809d50:	60000000 	andvs	r0, r0, r0
87809d54:	20000000 	andcs	r0, r0, r0
87809d58:	20000000 	andcs	r0, r0, r0
87809d5c:	20000000 	andcs	r0, r0, r0
	...
87809db4:	e0007800 	and	r7, r0, r0, lsl #16
87809db8:	60019800 	andvs	r9, r1, r0, lsl #16
87809dbc:	60020001 	andvs	r0, r2, r1
87809dc0:	60040002 	andvs	r0, r4, r2
87809dc4:	60080002 	andvs	r0, r8, r2
87809dc8:	60100002 	andsvs	r0, r0, r2
87809dcc:	60200002 	eorvs	r0, r0, r2
87809dd0:	60400002 	subvs	r0, r0, r2
87809dd4:	60800003 	addvs	r0, r0, r3
87809dd8:	60008301 	andvs	r8, r0, r1, lsl #6
87809ddc:	e000fe01 	and	pc, r0, r1, lsl #28
87809de0:	80077c00 	andhi	r7, r7, r0, lsl #24
	...
87809e34:	8007f000 	andhi	pc, r7, r0
87809e38:	c007f001 	andgt	pc, r7, r1
87809e3c:	40000001 	andmi	r0, r0, r1
87809e40:	20000002 	andcs	r0, r0, r2
87809e44:	20000102 	andcs	r0, r0, r2, lsl #2
87809e48:	20000102 	andcs	r0, r0, r2, lsl #2
87809e4c:	20000102 	andcs	r0, r0, r2, lsl #2
87809e50:	20800303 	addcs	r0, r0, r3, lsl #6
87809e54:	40808601 	addmi	r8, r0, r1, lsl #12
87809e58:	c0c0fc01 	sbcgt	pc, r0, r1, lsl #24
87809e5c:	807f7800 	rsbshi	r7, pc, r0, lsl #16
87809e60:	001e0000 	andseq	r0, lr, r0
	...
87809eb0:	00080000 	andeq	r0, r8, r0
87809eb4:	00380000 	eorseq	r0, r8, r0
87809eb8:	00480000 	subeq	r0, r8, r0
87809ebc:	00880100 	addeq	r0, r8, r0, lsl #2
87809ec0:	00080600 	andeq	r0, r8, r0, lsl #12
87809ec4:	10080c00 	andne	r0, r8, r0, lsl #24
87809ec8:	10083000 	andne	r3, r8, r0
87809ecc:	10084000 	andne	r4, r8, r0
87809ed0:	f0ffff01 			; <UNDEFINED> instruction: 0xf0ffff01
87809ed4:	f0ffff03 			; <UNDEFINED> instruction: 0xf0ffff03
87809ed8:	f0ffff03 			; <UNDEFINED> instruction: 0xf0ffff03
87809edc:	10080000 	andne	r0, r8, r0
87809ee0:	10080000 	andne	r0, r8, r0
87809ee4:	10080000 	andne	r0, r8, r0
	...
87809f34:	80070000 	andhi	r0, r7, r0
87809f38:	40861f00 	addmi	r1, r6, r0, lsl #30
87809f3c:	2000e103 	andcs	lr, r0, r3, lsl #2
87809f40:	20000203 	andcs	r0, r0, r3, lsl #4
87809f44:	20000403 	andcs	r0, r0, r3, lsl #8
87809f48:	20000403 	andcs	r0, r0, r3, lsl #8
87809f4c:	20000403 	andcs	r0, r0, r3, lsl #8
87809f50:	20000403 	andcs	r0, r0, r3, lsl #8
87809f54:	40000603 	andmi	r0, r0, r3, lsl #12
87809f58:	c0010303 	andgt	r0, r1, r3, lsl #6
87809f5c:	80ff0103 	rscshi	r0, pc, r3, lsl #2
87809f60:	007e0003 	rsbseq	r0, lr, r3
	...
87809fb4:	00fc0700 	rscseq	r0, ip, r0, lsl #14
87809fb8:	00ff3f00 	rscseq	r3, pc, r0, lsl #30
87809fbc:	80c37000 	sbchi	r7, r3, r0
87809fc0:	c0808100 	addgt	r8, r0, r0, lsl #2
87809fc4:	60000101 	andvs	r0, r0, r1, lsl #2
87809fc8:	20000203 	andcs	r0, r0, r3, lsl #4
87809fcc:	20000202 	andcs	r0, r0, r2, lsl #4
87809fd0:	20000202 	andcs	r0, r0, r2, lsl #4
87809fd4:	20000202 	andcs	r0, r0, r2, lsl #4
87809fd8:	40000302 	andmi	r0, r0, r2, lsl #6
87809fdc:	c080c101 	addgt	ip, r0, r1, lsl #2
87809fe0:	80ffc000 	rscshi	ip, pc, r0
87809fe4:	007e0000 	rsbseq	r0, lr, r0
	...
8780a034:	0000f000 	andeq	pc, r0, r0
8780a038:	0000c003 	andeq	ip, r0, r3
8780a03c:	00008003 	andeq	r8, r0, r3
8780a040:	00000003 	andeq	r0, r0, r3
8780a044:	e0070003 	and	r0, r7, r3
8780a048:	e03f0003 	eors	r0, pc, r3
8780a04c:	00c00103 	sbceq	r0, r0, r3, lsl #2
8780a050:	00000603 	andeq	r0, r0, r3, lsl #12
8780a054:	00001803 	andeq	r1, r0, r3, lsl #16
8780a058:	00006003 	andeq	r6, r0, r3
8780a05c:	00008003 	andeq	r8, r0, r3
8780a060:	00000003 	andeq	r0, r0, r3
	...
8780a0b0:	001f0000 	andseq	r0, pc, r0
8780a0b4:	803f7800 	eorshi	r7, pc, r0, lsl #16
8780a0b8:	c060fc00 	rsbgt	pc, r0, r0, lsl #24
8780a0bc:	40c08e01 	sbcmi	r8, r0, r1, lsl #28
8780a0c0:	20800703 	addcs	r0, r0, r3, lsl #14
8780a0c4:	20000302 	andcs	r0, r0, r2, lsl #6
8780a0c8:	20800102 	addcs	r0, r0, r2, lsl #2
8780a0cc:	20800102 	addcs	r0, r0, r2, lsl #2
8780a0d0:	20c00102 	sbccs	r0, r0, r2, lsl #2
8780a0d4:	40e00103 	rscmi	r0, r0, r3, lsl #2
8780a0d8:	c0708601 	rsbsgt	r8, r0, r1, lsl #12
8780a0dc:	803ffc00 	eorshi	pc, pc, r0, lsl #24
8780a0e0:	001f7800 	andseq	r7, pc, r0, lsl #16
	...
8780a130:	00003f00 	andeq	r3, r0, r0, lsl #30
8780a134:	c081ff00 	addgt	pc, r1, r0, lsl #30
8780a138:	c0c1c001 	sbcgt	ip, r1, r1
8780a13c:	20600001 	rsbcs	r0, r0, r1
8780a140:	20200002 	eorcs	r0, r0, r2
8780a144:	20200002 	eorcs	r0, r0, r2
8780a148:	20200002 	eorcs	r0, r0, r2
8780a14c:	60200002 	eorvs	r0, r0, r2
8780a150:	c0400002 	subgt	r0, r0, r2
8780a154:	80c10001 	sbchi	r0, r1, r1
8780a158:	008fc100 	addeq	ip, pc, r0, lsl #2
8780a15c:	00fe7f00 	rscseq	r7, lr, r0, lsl #30
8780a160:	00f01f00 	rscseq	r1, r0, r0, lsl #30
	...
8780a1c4:	c0000300 	andgt	r0, r0, r0, lsl #6
8780a1c8:	e0810700 	add	r0, r1, r0, lsl #14
8780a1cc:	e0810700 	add	r0, r1, r0, lsl #14
8780a1d0:	c0000300 	andgt	r0, r0, r0, lsl #6
	...
8780a244:	66000600 	strvs	r0, [r0], -r0, lsl #12
8780a248:	78000600 	stmdavc	r0, {r9, sl}
	...
8780a2b4:	00800000 	addeq	r0, r0, r0
8780a2b8:	00c00100 	sbceq	r0, r0, r0, lsl #2
8780a2bc:	00600300 	rsbeq	r0, r0, r0, lsl #6
8780a2c0:	00300600 	eorseq	r0, r0, r0, lsl #12
8780a2c4:	00180c00 	andseq	r0, r8, r0, lsl #24
8780a2c8:	000c1800 	andeq	r1, ip, r0, lsl #16
8780a2cc:	00063000 	andeq	r3, r6, r0
8780a2d0:	00036000 	andeq	r6, r3, r0
8780a2d4:	8001c000 	andhi	ip, r1, r0
8780a2d8:	40000001 	andmi	r0, r0, r1
8780a2dc:	20000002 	andcs	r0, r0, r2
8780a2e0:	10000004 	andne	r0, r0, r4
	...
8780a330:	00100400 	andseq	r0, r0, r0, lsl #8
8780a334:	00100400 	andseq	r0, r0, r0, lsl #8
8780a338:	00100400 	andseq	r0, r0, r0, lsl #8
8780a33c:	00100400 	andseq	r0, r0, r0, lsl #8
8780a340:	00100400 	andseq	r0, r0, r0, lsl #8
8780a344:	00100400 	andseq	r0, r0, r0, lsl #8
8780a348:	00100400 	andseq	r0, r0, r0, lsl #8
8780a34c:	00100400 	andseq	r0, r0, r0, lsl #8
8780a350:	00100400 	andseq	r0, r0, r0, lsl #8
8780a354:	00100400 	andseq	r0, r0, r0, lsl #8
8780a358:	00100400 	andseq	r0, r0, r0, lsl #8
8780a35c:	00100400 	andseq	r0, r0, r0, lsl #8
8780a360:	00100400 	andseq	r0, r0, r0, lsl #8
8780a364:	00100400 	andseq	r0, r0, r0, lsl #8
	...
8780a3b4:	10000004 	andne	r0, r0, r4
8780a3b8:	20000002 	andcs	r0, r0, r2
8780a3bc:	40000001 	andmi	r0, r0, r1
8780a3c0:	8001c000 	andhi	ip, r1, r0
8780a3c4:	00036000 	andeq	r6, r3, r0
8780a3c8:	00063000 	andeq	r3, r6, r0
8780a3cc:	000c1800 	andeq	r1, ip, r0, lsl #16
8780a3d0:	00180c00 	andseq	r0, r8, r0, lsl #24
8780a3d4:	00300600 	eorseq	r0, r0, r0, lsl #12
8780a3d8:	00600300 	rsbeq	r0, r0, r0, lsl #6
8780a3dc:	00c00100 	sbceq	r0, r0, r0, lsl #2
8780a3e0:	00800000 	addeq	r0, r0, r0
	...
8780a434:	00007800 	andeq	r7, r0, r0, lsl #16
8780a438:	0000f801 	andeq	pc, r0, r1, lsl #16
8780a43c:	00003802 	andeq	r3, r0, r2, lsl #16
8780a440:	00000002 	andeq	r0, r0, r2
8780a444:	c0000004 	andgt	r0, r0, r4
8780a448:	e0790004 	rsbs	r0, r9, r4
8780a44c:	e0810004 	add	r0, r1, r4
8780a450:	c0000104 	andgt	r0, r0, r4, lsl #2
8780a454:	00000304 	andeq	r0, r0, r4, lsl #6
8780a458:	00000202 	andeq	r0, r0, r2, lsl #4
8780a45c:	00000603 	andeq	r0, r0, r3, lsl #12
8780a460:	0000fc01 	andeq	pc, r0, r1, lsl #24
8780a464:	0000f800 	andeq	pc, r0, r0, lsl #16
	...
8780a4b0:	00f80f00 	rscseq	r0, r8, r0, lsl #30
8780a4b4:	00fe3f00 	rscseq	r3, lr, r0, lsl #30
8780a4b8:	80077000 	andhi	r7, r7, r0
8780a4bc:	c000c000 	andgt	ip, r0, r0
8780a4c0:	40f80101 	rscsmi	r0, r8, r1, lsl #2
8780a4c4:	20fc0703 	rscscs	r0, ip, r3, lsl #14
8780a4c8:	20041e02 	andcs	r1, r4, r2, lsl #28
8780a4cc:	20083002 	andcs	r3, r8, r2
8780a4d0:	20302002 	eorscs	r2, r0, r2
8780a4d4:	20fc3f02 	rscscs	r3, ip, r2, lsl #30
8780a4d8:	40043f01 	andmi	r3, r4, r1, lsl #30
8780a4dc:	c00c8001 	andgt	r8, ip, r1
8780a4e0:	8031e000 	eorshi	lr, r1, r0
8780a4e4:	00c21f00 	sbceq	r1, r2, r0, lsl #30
	...
8780a52c:	20000000 	andcs	r0, r0, r0
8780a530:	60000000 	andvs	r0, r0, r0
8780a534:	e0030000 	and	r0, r3, r0
8780a538:	203e0000 	eorscs	r0, lr, r0
8780a53c:	20e00300 	rsccs	r0, r0, r0, lsl #6
8780a540:	00203e00 	eoreq	r3, r0, r0, lsl #28
8780a544:	0020e003 	eoreq	lr, r0, r3
8780a548:	00208003 	eoreq	r8, r0, r3
8780a54c:	0020fc07 	eoreq	pc, r0, r7, lsl #24
8780a550:	00e03f00 	rsceq	r3, r0, r0, lsl #30
8780a554:	20fe0300 	rscscs	r0, lr, r0, lsl #6
8780a558:	e03f0000 	eors	r0, pc, r0
8780a55c:	e0010000 	and	r0, r1, r0
8780a560:	20000000 	andcs	r0, r0, r0
8780a564:	20000000 	andcs	r0, r0, r0
	...
8780a5b0:	20000002 	andcs	r0, r0, r2
8780a5b4:	20000002 	andcs	r0, r0, r2
8780a5b8:	e0ffff03 	rscs	pc, pc, r3, lsl #30
8780a5bc:	e0ffff03 	rscs	pc, pc, r3, lsl #30
8780a5c0:	20000102 	andcs	r0, r0, r2, lsl #2
8780a5c4:	20000102 	andcs	r0, r0, r2, lsl #2
8780a5c8:	20000102 	andcs	r0, r0, r2, lsl #2
8780a5cc:	20000102 	andcs	r0, r0, r2, lsl #2
8780a5d0:	20000102 	andcs	r0, r0, r2, lsl #2
8780a5d4:	20000303 	andcs	r0, r0, r3, lsl #6
8780a5d8:	60808601 	addvs	r8, r0, r1, lsl #12
8780a5dc:	c0c0fc01 	sbcgt	pc, r0, r1, lsl #24
8780a5e0:	807ff800 	rsbshi	pc, pc, r0, lsl #16
8780a5e4:	001f0000 	andseq	r0, pc, r0
	...
8780a630:	00f80700 	rscseq	r0, r8, r0, lsl #14
8780a634:	00ff3f00 	rscseq	r3, pc, r0, lsl #30
8780a638:	80077000 	andhi	r7, r7, r0
8780a63c:	c000c000 	andgt	ip, r0, r0
8780a640:	40000001 	andmi	r0, r0, r1
8780a644:	20000003 	andcs	r0, r0, r3
8780a648:	20000002 	andcs	r0, r0, r2
8780a64c:	20000002 	andcs	r0, r0, r2
8780a650:	20000002 	andcs	r0, r0, r2
8780a654:	20000002 	andcs	r0, r0, r2
8780a658:	40000001 	andmi	r0, r0, r1
8780a65c:	c0008001 	andgt	r8, r0, r1
8780a660:	8001c003 	andhi	ip, r1, r3
8780a664:	00063000 	andeq	r3, r6, r0
	...
8780a6b0:	20000002 	andcs	r0, r0, r2
8780a6b4:	20000002 	andcs	r0, r0, r2
8780a6b8:	e0ffff03 	rscs	pc, pc, r3, lsl #30
8780a6bc:	e0ffff03 	rscs	pc, pc, r3, lsl #30
8780a6c0:	20000002 	andcs	r0, r0, r2
8780a6c4:	20000002 	andcs	r0, r0, r2
8780a6c8:	20000002 	andcs	r0, r0, r2
8780a6cc:	20000002 	andcs	r0, r0, r2
8780a6d0:	60000003 	andvs	r0, r0, r3
8780a6d4:	40000001 	andmi	r0, r0, r1
8780a6d8:	c0008001 	andgt	r8, r0, r1
8780a6dc:	8007f000 	andhi	pc, r7, r0
8780a6e0:	00fe7f00 	rscseq	r7, lr, r0, lsl #30
8780a6e4:	00f80f00 	rscseq	r0, r8, r0, lsl #30
	...
8780a730:	20000002 	andcs	r0, r0, r2
8780a734:	20000002 	andcs	r0, r0, r2
8780a738:	e0ffff03 	rscs	pc, pc, r3, lsl #30
8780a73c:	e0ffff03 	rscs	pc, pc, r3, lsl #30
8780a740:	20000102 	andcs	r0, r0, r2, lsl #2
8780a744:	20000102 	andcs	r0, r0, r2, lsl #2
8780a748:	20000102 	andcs	r0, r0, r2, lsl #2
8780a74c:	20000102 	andcs	r0, r0, r2, lsl #2
8780a750:	20000102 	andcs	r0, r0, r2, lsl #2
8780a754:	20800302 	addcs	r0, r0, r2, lsl #6
8780a758:	20e00f02 	rsccs	r0, r0, r2, lsl #30
8780a75c:	60000003 	andvs	r0, r0, r3
8780a760:	e000c003 	and	ip, r0, r3
8780a764:	00036000 	andeq	r6, r3, r0
	...
8780a7b0:	20000002 	andcs	r0, r0, r2
8780a7b4:	20000002 	andcs	r0, r0, r2
8780a7b8:	e0ffff03 	rscs	pc, pc, r3, lsl #30
8780a7bc:	e0ffff03 	rscs	pc, pc, r3, lsl #30
8780a7c0:	20000102 	andcs	r0, r0, r2, lsl #2
8780a7c4:	20000102 	andcs	r0, r0, r2, lsl #2
8780a7c8:	00000102 	andeq	r0, r0, r2, lsl #2
8780a7cc:	00000102 	andeq	r0, r0, r2, lsl #2
8780a7d0:	00000102 	andeq	r0, r0, r2, lsl #2
8780a7d4:	00000102 	andeq	r0, r0, r2, lsl #2
8780a7d8:	00800302 	addeq	r0, r0, r2, lsl #6
8780a7dc:	00e00f03 	rsceq	r0, r0, r3, lsl #30
8780a7e0:	00000003 	andeq	r0, r0, r3
8780a7e4:	0000c003 	andeq	ip, r0, r3
8780a7e8:	00006000 	andeq	r6, r0, r0
	...
8780a830:	00f80700 	rscseq	r0, r8, r0, lsl #14
8780a834:	00fe3f00 	rscseq	r3, lr, r0, lsl #30
8780a838:	80077000 	andhi	r7, r7, r0
8780a83c:	c001c001 	andgt	ip, r1, r1
8780a840:	40000001 	andmi	r0, r0, r1
8780a844:	20000003 	andcs	r0, r0, r3
8780a848:	20000002 	andcs	r0, r0, r2
8780a84c:	20000002 	andcs	r0, r0, r2
8780a850:	20000002 	andcs	r0, r0, r2
8780a854:	20200001 	eorcs	r0, r0, r1
8780a858:	40200001 	eormi	r0, r0, r1
8780a85c:	803fc003 	eorshi	ip, pc, r3
8780a860:	803f3000 	eorshi	r3, pc, r0
8780a864:	00200000 	eoreq	r0, r0, r0
8780a868:	00200000 	eoreq	r0, r0, r0
	...
8780a8ac:	20000002 	andcs	r0, r0, r2
8780a8b0:	20000002 	andcs	r0, r0, r2
8780a8b4:	e0ffff03 	rscs	pc, pc, r3, lsl #30
8780a8b8:	e0ffff03 	rscs	pc, pc, r3, lsl #30
8780a8bc:	20800002 	addcs	r0, r0, r2
8780a8c0:	20800002 	addcs	r0, r0, r2
8780a8c4:	00800000 	addeq	r0, r0, r0
8780a8c8:	00800000 	addeq	r0, r0, r0
8780a8cc:	00800000 	addeq	r0, r0, r0
8780a8d0:	20800002 	addcs	r0, r0, r2
8780a8d4:	20800002 	addcs	r0, r0, r2
8780a8d8:	e0ffff03 	rscs	pc, pc, r3, lsl #30
8780a8dc:	e0ffff03 	rscs	pc, pc, r3, lsl #30
8780a8e0:	20000002 	andcs	r0, r0, r2
8780a8e4:	20000002 	andcs	r0, r0, r2
	...
8780a938:	20000002 	andcs	r0, r0, r2
8780a93c:	20000002 	andcs	r0, r0, r2
8780a940:	20000002 	andcs	r0, r0, r2
8780a944:	20000002 	andcs	r0, r0, r2
8780a948:	e0ffff03 	rscs	pc, pc, r3, lsl #30
8780a94c:	e0ffff03 	rscs	pc, pc, r3, lsl #30
8780a950:	20000002 	andcs	r0, r0, r2
8780a954:	20000002 	andcs	r0, r0, r2
8780a958:	20000002 	andcs	r0, r0, r2
8780a95c:	20000002 	andcs	r0, r0, r2
	...
8780a9b0:	0e000000 	cdpeq	0, 0, cr0, cr0, cr0, {0}
8780a9b4:	0f000000 	svceq	0x00000000
8780a9b8:	0f000000 	svceq	0x00000000
8780a9bc:	01000000 	mrseq	r0, (UNDEF: 0)
8780a9c0:	01000002 	tsteq	r0, r2
8780a9c4:	01000002 	tsteq	r0, r2
8780a9c8:	03000002 	movweq	r0, #2
8780a9cc:	06000002 	streq	r0, [r0], -r2
8780a9d0:	fcffff03 	ldc2l	15, cr15, [pc], #12	; 8780a9e4 <ascii_font_32x32+0x1538>
8780a9d4:	f8ffff03 			; <UNDEFINED> instruction: 0xf8ffff03
8780a9d8:	00000002 	andeq	r0, r0, r2
8780a9dc:	00000002 	andeq	r0, r0, r2
8780a9e0:	00000002 	andeq	r0, r0, r2
8780a9e4:	00000002 	andeq	r0, r0, r2
	...
8780aa30:	20000002 	andcs	r0, r0, r2
8780aa34:	20000002 	andcs	r0, r0, r2
8780aa38:	e0ffff03 	rscs	pc, pc, r3, lsl #30
8780aa3c:	e0ffff03 	rscs	pc, pc, r3, lsl #30
8780aa40:	20c00002 	sbccs	r0, r0, r2
8780aa44:	20000102 	andcs	r0, r0, r2, lsl #2
8780aa48:	00800700 	addeq	r0, r0, r0, lsl #14
8780aa4c:	00e00f00 	rsceq	r0, r0, r0, lsl #30
8780aa50:	00f83000 	rscseq	r3, r8, r0
8780aa54:	203e6002 	eorscs	r6, lr, r2
8780aa58:	200f8003 	andcs	r8, pc, r3
8780aa5c:	e0030003 	and	r0, r3, r3
8780aa60:	e0000002 	and	r0, r0, r2
8780aa64:	20000002 	andcs	r0, r0, r2
8780aa68:	20000000 	andcs	r0, r0, r0
	...
8780aab0:	20000002 	andcs	r0, r0, r2
8780aab4:	20000002 	andcs	r0, r0, r2
8780aab8:	e0ffff03 	rscs	pc, pc, r3, lsl #30
8780aabc:	e0ffff03 	rscs	pc, pc, r3, lsl #30
8780aac0:	20000002 	andcs	r0, r0, r2
8780aac4:	20000002 	andcs	r0, r0, r2
8780aac8:	20000000 	andcs	r0, r0, r0
8780aacc:	20000000 	andcs	r0, r0, r0
8780aad0:	20000000 	andcs	r0, r0, r0
8780aad4:	20000000 	andcs	r0, r0, r0
8780aad8:	20000000 	andcs	r0, r0, r0
8780aadc:	60000000 	andvs	r0, r0, r0
8780aae0:	e0000000 	and	r0, r0, r0
8780aae4:	00030000 	andeq	r0, r3, r0
	...
8780ab2c:	20000002 	andcs	r0, r0, r2
8780ab30:	20000002 	andcs	r0, r0, r2
8780ab34:	e0ffff03 	rscs	pc, pc, r3, lsl #30
8780ab38:	2000e003 	andcs	lr, r0, r3
8780ab3c:	2000ff03 	andcs	pc, r0, r3, lsl #30
8780ab40:	00f01f00 	rscseq	r1, r0, r0, lsl #30
8780ab44:	80ff0100 	rscshi	r0, pc, r0, lsl #2
8780ab48:	e00f0000 	and	r0, pc, r0
8780ab4c:	001e0000 	andseq	r0, lr, r0
8780ab50:	00e00300 	rsceq	r0, r0, r0, lsl #6
8780ab54:	20003e00 	andcs	r3, r0, r0, lsl #28
8780ab58:	2000e003 	andcs	lr, r0, r3
8780ab5c:	e0ffff03 	rscs	pc, pc, r3, lsl #30
8780ab60:	e0ffff03 	rscs	pc, pc, r3, lsl #30
8780ab64:	20000002 	andcs	r0, r0, r2
8780ab68:	20000002 	andcs	r0, r0, r2
	...
8780abac:	20000002 	andcs	r0, r0, r2
8780abb0:	20000002 	andcs	r0, r0, r2
8780abb4:	e0ffff03 	rscs	pc, pc, r3, lsl #30
8780abb8:	20008003 	andcs	r8, r0, r3
8780abbc:	2000f003 	andcs	pc, r0, r3
8780abc0:	0000fc00 	andeq	pc, r0, r0, lsl #24
8780abc4:	00001f00 	andeq	r1, r0, r0, lsl #30
8780abc8:	00c00700 	sbceq	r0, r0, r0, lsl #14
8780abcc:	00f00100 	rscseq	r0, r0, r0, lsl #2
8780abd0:	007c0000 	rsbseq	r0, ip, r0
8780abd4:	801f0002 	andshi	r0, pc, r2
8780abd8:	e0070002 	and	r0, r7, r2
8780abdc:	e0ffff03 	rscs	pc, pc, r3, lsl #30
8780abe0:	00000002 	andeq	r0, r0, r2
8780abe4:	00000002 	andeq	r0, r0, r2
	...
8780ac30:	00f80f00 	rscseq	r0, r8, r0, lsl #30
8780ac34:	00fe3f00 	rscseq	r3, lr, r0, lsl #30
8780ac38:	8007f000 	andhi	pc, r7, r0
8780ac3c:	c0008001 	andgt	r8, r0, r1
8780ac40:	40000001 	andmi	r0, r0, r1
8780ac44:	20000002 	andcs	r0, r0, r2
8780ac48:	20000002 	andcs	r0, r0, r2
8780ac4c:	20000002 	andcs	r0, r0, r2
8780ac50:	20000002 	andcs	r0, r0, r2
8780ac54:	40000001 	andmi	r0, r0, r1
8780ac58:	c0008001 	andgt	r8, r0, r1
8780ac5c:	8003f000 	andhi	pc, r3, r0
8780ac60:	00fe3f00 	rscseq	r3, lr, r0, lsl #30
8780ac64:	00f80f00 	rscseq	r0, r8, r0, lsl #30
	...
8780acb0:	20000002 	andcs	r0, r0, r2
8780acb4:	20000002 	andcs	r0, r0, r2
8780acb8:	e0ffff03 	rscs	pc, pc, r3, lsl #30
8780acbc:	e0ffff03 	rscs	pc, pc, r3, lsl #30
8780acc0:	20800002 	addcs	r0, r0, r2
8780acc4:	20800002 	addcs	r0, r0, r2
8780acc8:	00800002 	addeq	r0, r0, r2
8780accc:	00800002 	addeq	r0, r0, r2
8780acd0:	00800002 	addeq	r0, r0, r2
8780acd4:	00800002 	addeq	r0, r0, r2
8780acd8:	00800103 	addeq	r0, r0, r3, lsl #2
8780acdc:	00008301 	andeq	r8, r0, r1, lsl #6
8780ace0:	0000fe00 	andeq	pc, r0, r0, lsl #28
8780ace4:	00007c00 	andeq	r7, r0, r0, lsl #24
	...
8780ad30:	00f80f00 	rscseq	r0, r8, r0, lsl #30
8780ad34:	00ff7f00 	rscseq	r7, pc, r0, lsl #30
8780ad38:	8003f000 	andhi	pc, r3, r0
8780ad3c:	c0018001 	andgt	r8, r1, r1
8780ad40:	40060001 	andmi	r0, r6, r1
8780ad44:	20040002 	andcs	r0, r4, r2
8780ad48:	20040002 	andcs	r0, r4, r2
8780ad4c:	20060002 	andcs	r0, r6, r2
8780ad50:	e0030002 	and	r0, r3, r2
8780ad54:	f8000001 			; <UNDEFINED> instruction: 0xf8000001
8780ad58:	5c008001 	stcpl	0, cr8, [r0], {1}
8780ad5c:	8c03e000 	stchi	0, cr14, [r3], {-0}
8780ad60:	0cff3f00 	ldcleq	15, cr3, [pc]	; 8780ad68 <ascii_font_32x32+0x18bc>
8780ad64:	18fc0f00 	ldmne	ip!, {r8, r9, sl, fp}^
	...
8780adb0:	20000002 	andcs	r0, r0, r2
8780adb4:	20000002 	andcs	r0, r0, r2
8780adb8:	e0ffff03 	rscs	pc, pc, r3, lsl #30
8780adbc:	e0ffff03 	rscs	pc, pc, r3, lsl #30
8780adc0:	20000102 	andcs	r0, r0, r2, lsl #2
8780adc4:	20000102 	andcs	r0, r0, r2, lsl #2
8780adc8:	00800102 	addeq	r0, r0, r2, lsl #2
8780adcc:	00e00102 	rsceq	r0, r0, r2, lsl #2
8780add0:	00fc0102 	rscseq	r0, ip, r2, lsl #2
8780add4:	803f0303 	eorshi	r0, pc, r3, lsl #6
8780add8:	e0078601 	and	r8, r7, r1, lsl #12
8780addc:	e000fc01 	and	pc, r0, r1, lsl #24
8780ade0:	2000f800 	andcs	pc, r0, r0, lsl #16
8780ade4:	20000000 	andcs	r0, r0, r0
	...
8780ae34:	00067800 	andeq	r7, r6, r0, lsl #16
8780ae38:	e001fe00 	and	pc, r1, r0, lsl #28
8780ae3c:	c0008601 	andgt	r8, r0, r1, lsl #12
8780ae40:	40000303 	andmi	r0, r0, r3, lsl #6
8780ae44:	20000302 	andcs	r0, r0, r2, lsl #6
8780ae48:	20800102 	addcs	r0, r0, r2, lsl #2
8780ae4c:	20800102 	addcs	r0, r0, r2, lsl #2
8780ae50:	20c00102 	sbccs	r0, r0, r2, lsl #2
8780ae54:	20c00002 	sbccs	r0, r0, r2
8780ae58:	60e00001 	rscvs	r0, r0, r1
8780ae5c:	c0708001 	rsbsgt	r8, r0, r1
8780ae60:	803fe003 	eorshi	lr, pc, r3
8780ae64:	001f0000 	andseq	r0, pc, r0
	...
8780aeb0:	00006000 	andeq	r6, r0, r0
8780aeb4:	00008003 	andeq	r8, r0, r3
8780aeb8:	00000003 	andeq	r0, r0, r3
8780aebc:	00000002 	andeq	r0, r0, r2
8780aec0:	20000002 	andcs	r0, r0, r2
8780aec4:	20000002 	andcs	r0, r0, r2
8780aec8:	e0ffff03 	rscs	pc, pc, r3, lsl #30
8780aecc:	e0ffff03 	rscs	pc, pc, r3, lsl #30
8780aed0:	20000002 	andcs	r0, r0, r2
8780aed4:	20000002 	andcs	r0, r0, r2
8780aed8:	00000002 	andeq	r0, r0, r2
8780aedc:	00000002 	andeq	r0, r0, r2
8780aee0:	00008003 	andeq	r8, r0, r3
8780aee4:	0000e000 	andeq	lr, r0, r0
	...
8780af2c:	00000002 	andeq	r0, r0, r2
8780af30:	00000002 	andeq	r0, r0, r2
8780af34:	00ffff03 	rscseq	pc, pc, r3, lsl #30
8780af38:	c0ffff03 	rscsgt	pc, pc, r3, lsl #30
8780af3c:	40000002 	andmi	r0, r0, r2
8780af40:	60000002 	andvs	r0, r0, r2
8780af44:	20000000 	andcs	r0, r0, r0
8780af48:	20000000 	andcs	r0, r0, r0
8780af4c:	20000000 	andcs	r0, r0, r0
8780af50:	20000000 	andcs	r0, r0, r0
8780af54:	40000002 	andmi	r0, r0, r2
8780af58:	80000002 	andhi	r0, r0, r2
8780af5c:	00ffff03 	rscseq	pc, pc, r3, lsl #30
8780af60:	00000002 	andeq	r0, r0, r2
8780af64:	00000002 	andeq	r0, r0, r2
	...
8780afb0:	00000002 	andeq	r0, r0, r2
8780afb4:	00000002 	andeq	r0, r0, r2
8780afb8:	0000c003 	andeq	ip, r0, r3
8780afbc:	0000fc03 	andeq	pc, r0, r3, lsl #24
8780afc0:	00c03f02 	sbceq	r3, r0, r2, lsl #30
8780afc4:	00f80300 	rscseq	r0, r8, r0, lsl #6
8780afc8:	807f0000 	rsbshi	r0, pc, r0
8780afcc:	e0070000 	and	r0, r7, r0
8780afd0:	80070000 	andhi	r0, r7, r0
8780afd4:	00780000 	rsbseq	r0, r8, r0
8780afd8:	00c00302 	sbceq	r0, r0, r2, lsl #6
8780afdc:	00003c02 	andeq	r3, r0, r2, lsl #24
8780afe0:	0000c003 	andeq	ip, r0, r3
8780afe4:	00000002 	andeq	r0, r0, r2
8780afe8:	00000002 	andeq	r0, r0, r2
	...
8780b02c:	00000002 	andeq	r0, r0, r2
8780b030:	0000c003 	andeq	ip, r0, r3
8780b034:	0080ff03 	addeq	pc, r0, r3, lsl #30
8780b038:	00fe3f02 	rscseq	r3, lr, r2, lsl #30
8780b03c:	e07f0002 	rsbs	r0, pc, r2
8780b040:	000f0000 	andeq	r0, pc, r0
8780b044:	00f00002 	rscseq	r0, r0, r2
8780b048:	0000ef03 	andeq	lr, r0, r3, lsl #30
8780b04c:	0080ff03 	addeq	pc, r0, r3, lsl #30
8780b050:	00fe0f02 	rscseq	r0, lr, r2, lsl #30
8780b054:	e03f0000 	eors	r0, pc, r0
8780b058:	001f0000 	andseq	r0, pc, r0
8780b05c:	00e00702 	rsceq	r0, r0, r2, lsl #14
8780b060:	0000f803 	andeq	pc, r0, r3, lsl #16
8780b064:	00000003 	andeq	r0, r0, r3
8780b068:	00000002 	andeq	r0, r0, r2
	...
8780b0b0:	20000002 	andcs	r0, r0, r2
8780b0b4:	20000002 	andcs	r0, r0, r2
8780b0b8:	e0008003 	and	r8, r0, r3
8780b0bc:	2003f003 	andcs	pc, r3, r3
8780b0c0:	200cfc02 	andcs	pc, ip, r2, lsl #24
8780b0c4:	00301f02 	eorseq	r1, r0, r2, lsl #30
8780b0c8:	00c00700 	sbceq	r0, r0, r0, lsl #14
8780b0cc:	00f00700 	rscseq	r0, r0, r0, lsl #14
8780b0d0:	007c1802 	rsbseq	r1, ip, r2, lsl #16
8780b0d4:	201f6002 	andscs	r6, pc, r2
8780b0d8:	e0038003 	and	r8, r3, r3
8780b0dc:	e0000002 	and	r0, r0, r2
8780b0e0:	20000002 	andcs	r0, r0, r2
8780b0e4:	20000000 	andcs	r0, r0, r0
	...
8780b130:	00000002 	andeq	r0, r0, r2
8780b134:	00000003 	andeq	r0, r0, r3
8780b138:	0000c003 	andeq	ip, r0, r3
8780b13c:	0000f803 	andeq	pc, r0, r3, lsl #16
8780b140:	20003e02 	andcs	r3, r0, r2, lsl #28
8780b144:	20c00f02 	sbccs	r0, r0, r2, lsl #30
8780b148:	e0ff0100 	rscs	r0, pc, r0, lsl #2
8780b14c:	e07f0000 	rsbs	r0, pc, r0
8780b150:	20800300 	addcs	r0, r0, r0, lsl #6
8780b154:	20001c02 	andcs	r1, r0, r2, lsl #24
8780b158:	00007002 	andeq	r7, r0, r2
8780b15c:	00008003 	andeq	r8, r0, r3
8780b160:	00000002 	andeq	r0, r0, r2
8780b164:	00000002 	andeq	r0, r0, r2
	...
8780b1b0:	20000000 	andcs	r0, r0, r0
8780b1b4:	e0006000 	and	r6, r0, r0
8780b1b8:	e0038003 	and	r8, r3, r3
8780b1bc:	a00f0003 	andge	r0, pc, r3
8780b1c0:	203e0002 	eorscs	r0, lr, r2
8780b1c4:	20f80002 	rscscs	r0, r8, r2
8780b1c8:	20e00302 	rsccs	r0, r0, r2, lsl #6
8780b1cc:	20800f02 	addcs	r0, r0, r2, lsl #30
8780b1d0:	20003e02 	andcs	r3, r0, r2, lsl #28
8780b1d4:	20007802 	andcs	r7, r0, r2, lsl #16
8780b1d8:	6000e003 	andvs	lr, r0, r3
8780b1dc:	e0008003 	and	r8, r0, r3
8780b1e0:	00030002 	andeq	r0, r3, r2
	...
8780b244:	fcffff1f 	ldc2l	15, cr15, [pc], #124	; 8780b2c8 <ascii_font_32x32+0x1e1c>
8780b248:	04000010 	streq	r0, [r0], #-16
8780b24c:	04000010 	streq	r0, [r0], #-16
8780b250:	04000010 	streq	r0, [r0], #-16
8780b254:	04000010 	streq	r0, [r0], #-16
8780b258:	04000010 	streq	r0, [r0], #-16
8780b25c:	04000010 	streq	r0, [r0], #-16
8780b260:	04000010 	streq	r0, [r0], #-16
	...
8780b2b8:	00000007 	andeq	r0, r0, r7
8780b2bc:	0000c003 	andeq	ip, r0, r3
8780b2c0:	00007800 	andeq	r7, r0, r0, lsl #16
8780b2c4:	00001e00 	andeq	r1, r0, r0, lsl #28
8780b2c8:	00c00300 	sbceq	r0, r0, r0, lsl #6
8780b2cc:	00f00000 	rscseq	r0, r0, r0
8780b2d0:	001e0000 	andseq	r0, lr, r0
8780b2d4:	80070000 	andhi	r0, r7, r0
8780b2d8:	f0000000 			; <UNDEFINED> instruction: 0xf0000000
8780b2dc:	3c000000 	stccc	0, cr0, [r0], {-0}
8780b2e0:	06000000 	streq	r0, [r0], -r0
	...
8780b334:	04000010 	streq	r0, [r0], #-16
8780b338:	04000010 	streq	r0, [r0], #-16
8780b33c:	04000010 	streq	r0, [r0], #-16
8780b340:	04000010 	streq	r0, [r0], #-16
8780b344:	04000010 	streq	r0, [r0], #-16
8780b348:	04000010 	streq	r0, [r0], #-16
8780b34c:	04000010 	streq	r0, [r0], #-16
8780b350:	fcffff1f 	ldc2l	15, cr15, [pc], #124	; 8780b3d4 <ascii_font_32x32+0x1f28>
	...
8780b3bc:	00000002 	andeq	r0, r0, r2
8780b3c0:	00000004 	andeq	r0, r0, r4
8780b3c4:	00000008 	andeq	r0, r0, r8
8780b3c8:	00000018 	andeq	r0, r0, r8, lsl r0
8780b3cc:	00000010 	andeq	r0, r0, r0, lsl r0
8780b3d0:	00000018 	andeq	r0, r0, r8, lsl r0
8780b3d4:	00000018 	andeq	r0, r0, r8, lsl r0
8780b3d8:	00000004 	andeq	r0, r0, r4
8780b3dc:	00000002 	andeq	r0, r0, r2
	...
8780b42c:	01000000 	mrseq	r0, (UNDEF: 0)
8780b430:	01000000 	mrseq	r0, (UNDEF: 0)
8780b434:	01000000 	mrseq	r0, (UNDEF: 0)
8780b438:	01000000 	mrseq	r0, (UNDEF: 0)
8780b43c:	01000000 	mrseq	r0, (UNDEF: 0)
8780b440:	01000000 	mrseq	r0, (UNDEF: 0)
8780b444:	01000000 	mrseq	r0, (UNDEF: 0)
8780b448:	01000000 	mrseq	r0, (UNDEF: 0)
8780b44c:	01000000 	mrseq	r0, (UNDEF: 0)
8780b450:	01000000 	mrseq	r0, (UNDEF: 0)
8780b454:	01000000 	mrseq	r0, (UNDEF: 0)
8780b458:	01000000 	mrseq	r0, (UNDEF: 0)
8780b45c:	01000000 	mrseq	r0, (UNDEF: 0)
8780b460:	01000000 	mrseq	r0, (UNDEF: 0)
8780b464:	01000000 	mrseq	r0, (UNDEF: 0)
8780b468:	01000000 	mrseq	r0, (UNDEF: 0)
	...
8780b4b8:	00000010 	andeq	r0, r0, r0, lsl r0
8780b4bc:	00000010 	andeq	r0, r0, r0, lsl r0
8780b4c0:	00000010 	andeq	r0, r0, r0, lsl r0
8780b4c4:	00000018 	andeq	r0, r0, r8, lsl r0
8780b4c8:	00000008 	andeq	r0, r0, r8
8780b4cc:	00000004 	andeq	r0, r0, r4
	...
8780b530:	80030000 	andhi	r0, r3, r0
8780b534:	c08f0100 	addgt	r0, pc, r0, lsl #2
8780b538:	608c0300 	addvs	r0, ip, r0, lsl #6
8780b53c:	20180600 	andscs	r0, r8, r0, lsl #12
8780b540:	20100400 	andscs	r0, r0, r0, lsl #8
8780b544:	20100400 	andscs	r0, r0, r0, lsl #8
8780b548:	20200400 	eorcs	r0, r0, r0, lsl #8
8780b54c:	40200400 	eormi	r0, r0, r0, lsl #8
8780b550:	40200600 	eormi	r0, r0, r0, lsl #12
8780b554:	c0ff0300 	rscsgt	r0, pc, r0, lsl #6
8780b558:	e0ff0100 	rscs	r0, pc, r0, lsl #2
8780b55c:	20000000 	andcs	r0, r0, r0
8780b560:	20000000 	andcs	r0, r0, r0
8780b564:	c0000000 	andgt	r0, r0, r0
	...
8780b5b0:	00000002 	andeq	r0, r0, r2
8780b5b4:	00000002 	andeq	r0, r0, r2
8780b5b8:	e0ffff03 	rscs	pc, pc, r3, lsl #30
8780b5bc:	c0ffff07 	rscsgt	pc, pc, r7, lsl #30
8780b5c0:	c0800100 	addgt	r0, r0, r0, lsl #2
8780b5c4:	60000200 	andvs	r0, r0, r0, lsl #4
8780b5c8:	20000200 	andcs	r0, r0, r0, lsl #4
8780b5cc:	20000400 	andcs	r0, r0, r0, lsl #8
8780b5d0:	20000400 	andcs	r0, r0, r0, lsl #8
8780b5d4:	20000400 	andcs	r0, r0, r0, lsl #8
8780b5d8:	40000600 	andmi	r0, r0, r0, lsl #12
8780b5dc:	c0000300 	andgt	r0, r0, r0, lsl #6
8780b5e0:	80ff0100 	rscshi	r0, pc, r0, lsl #2
8780b5e4:	00fe0000 	rscseq	r0, lr, r0
	...
8780b634:	007e0000 	rsbseq	r0, lr, r0
8780b638:	80ff0100 	rscshi	r0, pc, r0, lsl #2
8780b63c:	c0810300 	addgt	r0, r1, r0, lsl #6
8780b640:	40000200 	andmi	r0, r0, r0, lsl #4
8780b644:	20000600 	andcs	r0, r0, r0, lsl #12
8780b648:	20000400 	andcs	r0, r0, r0, lsl #8
8780b64c:	20000400 	andcs	r0, r0, r0, lsl #8
8780b650:	20000400 	andcs	r0, r0, r0, lsl #8
8780b654:	20000600 	andcs	r0, r0, r0, lsl #12
8780b658:	40c00300 	sbcmi	r0, r0, r0, lsl #6
8780b65c:	80c00100 	sbchi	r0, r0, r0, lsl #2
8780b660:	00030000 	andeq	r0, r3, r0
	...
8780b6b4:	007e0000 	rsbseq	r0, lr, r0
8780b6b8:	80ff0100 	rscshi	r0, pc, r0, lsl #2
8780b6bc:	c0800300 	addgt	r0, r0, r0, lsl #6
8780b6c0:	60000600 	andvs	r0, r0, r0, lsl #12
8780b6c4:	20000400 	andcs	r0, r0, r0, lsl #8
8780b6c8:	20000400 	andcs	r0, r0, r0, lsl #8
8780b6cc:	20000400 	andcs	r0, r0, r0, lsl #8
8780b6d0:	40000402 	andmi	r0, r0, r2, lsl #8
8780b6d4:	80000202 	andhi	r0, r0, r2, lsl #4
8780b6d8:	e0ffff03 	rscs	pc, pc, r3, lsl #30
8780b6dc:	c0ffff07 	rscsgt	pc, pc, r7, lsl #30
8780b6e0:	40000000 	andmi	r0, r0, r0
8780b6e4:	40000000 	andmi	r0, r0, r0
	...
8780b734:	007e0000 	rsbseq	r0, lr, r0
8780b738:	80ff0100 	rscshi	r0, pc, r0, lsl #2
8780b73c:	c0110300 	andsgt	r0, r1, r0, lsl #6
8780b740:	40100200 	andsmi	r0, r0, r0, lsl #4
8780b744:	60100400 	andsvs	r0, r0, r0, lsl #8
8780b748:	20100400 	andscs	r0, r0, r0, lsl #8
8780b74c:	20100400 	andscs	r0, r0, r0, lsl #8
8780b750:	20100400 	andscs	r0, r0, r0, lsl #8
8780b754:	20100600 	andscs	r0, r0, r0, lsl #12
8780b758:	40100300 	andsmi	r0, r0, r0, lsl #6
8780b75c:	c0f00100 	rscsgt	r0, r0, r0, lsl #2
8780b760:	00710000 	rsbseq	r0, r1, r0
	...
8780b7b4:	00000400 	andeq	r0, r0, r0, lsl #8
8780b7b8:	20000400 	andcs	r0, r0, r0, lsl #8
8780b7bc:	20000400 	andcs	r0, r0, r0, lsl #8
8780b7c0:	20000400 	andcs	r0, r0, r0, lsl #8
8780b7c4:	e0ff7f00 	rscs	r7, pc, r0, lsl #30
8780b7c8:	e0ffff01 	rscs	pc, pc, r1, lsl #30
8780b7cc:	20000401 	andcs	r0, r0, r1, lsl #8
8780b7d0:	20000403 	andcs	r0, r0, r3, lsl #8
8780b7d4:	20000402 	andcs	r0, r0, r2, lsl #8
8780b7d8:	20000402 	andcs	r0, r0, r2, lsl #8
8780b7dc:	00000402 	andeq	r0, r0, r2, lsl #8
8780b7e0:	00000002 	andeq	r0, r0, r2
8780b7e4:	0000c001 	andeq	ip, r0, r1
8780b7e8:	0000c001 	andeq	ip, r0, r1
	...
8780b834:	1c000000 	stcne	0, cr0, [r0], {-0}
8780b838:	3ee30000 	cdpcc	0, 14, cr0, cr3, cr0, {0}
8780b83c:	c2ff0300 	rscsgt	r0, pc, #0, 6
8780b840:	c30c0200 	movwgt	r0, #49664	; 0xc200
8780b844:	c1040400 	tstgt	r4, r0, lsl #8
8780b848:	c1040400 	tstgt	r4, r0, lsl #8
8780b84c:	c1040400 	tstgt	r4, r0, lsl #8
8780b850:	c1040400 	tstgt	r4, r0, lsl #8
8780b854:	c10c0600 	tstgt	ip, r0, lsl #12
8780b858:	c3f80300 	mvnsgt	r0, #0, 6
8780b85c:	62f00500 	rscsvs	r0, r0, #0, 10
8780b860:	7e000600 	cfmadd32vc	mvax0, mvfx0, mvfx0, mvfx0
8780b864:	3c000600 	stccc	6, cr0, [r0], {-0}
	...
8780b8b0:	20000002 	andcs	r0, r0, r2
8780b8b4:	20000002 	andcs	r0, r0, r2
8780b8b8:	e0ffff03 	rscs	pc, pc, r3, lsl #30
8780b8bc:	e0ffff07 	rscs	pc, pc, r7, lsl #30
8780b8c0:	20000100 	andcs	r0, r0, r0, lsl #2
8780b8c4:	20000200 	andcs	r0, r0, r0, lsl #4
8780b8c8:	00000600 	andeq	r0, r0, r0, lsl #12
8780b8cc:	00000400 	andeq	r0, r0, r0, lsl #8
8780b8d0:	00000400 	andeq	r0, r0, r0, lsl #8
8780b8d4:	20000400 	andcs	r0, r0, r0, lsl #8
8780b8d8:	20000600 	andcs	r0, r0, r0, lsl #12
8780b8dc:	e0ff0300 	rscs	r0, pc, r0, lsl #6
8780b8e0:	e0ff0100 	rscs	r0, pc, r0, lsl #2
8780b8e4:	20000000 	andcs	r0, r0, r0
8780b8e8:	20000000 	andcs	r0, r0, r0
	...
8780b938:	20000400 	andcs	r0, r0, r0, lsl #8
8780b93c:	20000400 	andcs	r0, r0, r0, lsl #8
8780b940:	20000400 	andcs	r0, r0, r0, lsl #8
8780b944:	20000400 	andcs	r0, r0, r0, lsl #8
8780b948:	e0ff8703 	rscs	r8, pc, r3, lsl #14
8780b94c:	e0ff8f03 	rscs	r8, pc, r3, lsl #30
8780b950:	20008003 	andcs	r8, r0, r3
8780b954:	20000000 	andcs	r0, r0, r0
8780b958:	20000000 	andcs	r0, r0, r0
8780b95c:	20000000 	andcs	r0, r0, r0
	...
8780b9b8:	06000000 	streq	r0, [r0], -r0
8780b9bc:	07000000 	streq	r0, [r0, -r0]
8780b9c0:	01000000 	mrseq	r0, (UNDEF: 0)
8780b9c4:	01000000 	mrseq	r0, (UNDEF: 0)
8780b9c8:	01000400 	tsteq	r0, r0, lsl #8
8780b9cc:	01000400 	tsteq	r0, r0, lsl #8
8780b9d0:	03000400 	movweq	r0, #1024	; 0x400
8780b9d4:	06000400 	streq	r0, [r0], -r0, lsl #8
8780b9d8:	fcff8703 	ldc2l	7, cr8, [pc], #12	; 8780b9ec <ascii_font_32x32+0x2540>
8780b9dc:	f8ff8f03 			; <UNDEFINED> instruction: 0xf8ff8f03
8780b9e0:	00008003 	andeq	r8, r0, r3
	...
8780ba30:	20000002 	andcs	r0, r0, r2
8780ba34:	20000002 	andcs	r0, r0, r2
8780ba38:	e0ffff03 	rscs	pc, pc, r3, lsl #30
8780ba3c:	e0ffff07 	rscs	pc, pc, r7, lsl #30
8780ba40:	20080000 	andcs	r0, r8, r0
8780ba44:	20100000 	andscs	r0, r0, r0
8780ba48:	00300000 	eorseq	r0, r0, r0
8780ba4c:	00fc0000 	rscseq	r0, ip, r0
8780ba50:	008e0500 	addeq	r0, lr, r0, lsl #10
8780ba54:	a0070700 	andge	r0, r7, r0, lsl #14
8780ba58:	e0010600 	and	r0, r1, r0, lsl #12
8780ba5c:	e0000400 	and	r0, r0, r0, lsl #8
8780ba60:	20000400 	andcs	r0, r0, r0, lsl #8
8780ba64:	20000000 	andcs	r0, r0, r0
	...
8780bab8:	20000002 	andcs	r0, r0, r2
8780babc:	20000002 	andcs	r0, r0, r2
8780bac0:	20000002 	andcs	r0, r0, r2
8780bac4:	20000002 	andcs	r0, r0, r2
8780bac8:	e0ffff03 	rscs	pc, pc, r3, lsl #30
8780bacc:	e0ffff07 	rscs	pc, pc, r7, lsl #30
8780bad0:	20000000 	andcs	r0, r0, r0
8780bad4:	20000000 	andcs	r0, r0, r0
8780bad8:	20000000 	andcs	r0, r0, r0
8780badc:	20000000 	andcs	r0, r0, r0
	...
8780bb30:	20000400 	andcs	r0, r0, r0, lsl #8
8780bb34:	e0ff0700 	rscs	r0, pc, r0, lsl #14
8780bb38:	e0ff0f00 	rscs	r0, pc, r0, lsl #30
8780bb3c:	20000200 	andcs	r0, r0, r0, lsl #4
8780bb40:	00000400 	andeq	r0, r0, r0, lsl #8
8780bb44:	20000400 	andcs	r0, r0, r0, lsl #8
8780bb48:	e0ff0700 	rscs	r0, pc, r0, lsl #14
8780bb4c:	e0ff0300 	rscs	r0, pc, r0, lsl #6
8780bb50:	20000200 	andcs	r0, r0, r0, lsl #4
8780bb54:	00000400 	andeq	r0, r0, r0, lsl #8
8780bb58:	20000400 	andcs	r0, r0, r0, lsl #8
8780bb5c:	e0ff0700 	rscs	r0, pc, r0, lsl #14
8780bb60:	e0ff0300 	rscs	r0, pc, r0, lsl #6
8780bb64:	20000000 	andcs	r0, r0, r0
	...
8780bbb0:	20000400 	andcs	r0, r0, r0, lsl #8
8780bbb4:	20000400 	andcs	r0, r0, r0, lsl #8
8780bbb8:	e0ff0700 	rscs	r0, pc, r0, lsl #14
8780bbbc:	e0ff0f00 	rscs	r0, pc, r0, lsl #30
8780bbc0:	20000100 	andcs	r0, r0, r0, lsl #2
8780bbc4:	20000200 	andcs	r0, r0, r0, lsl #4
8780bbc8:	00000200 	andeq	r0, r0, r0, lsl #4
8780bbcc:	00000400 	andeq	r0, r0, r0, lsl #8
8780bbd0:	00000400 	andeq	r0, r0, r0, lsl #8
8780bbd4:	20000400 	andcs	r0, r0, r0, lsl #8
8780bbd8:	20000600 	andcs	r0, r0, r0, lsl #12
8780bbdc:	e0ff0300 	rscs	r0, pc, r0, lsl #6
8780bbe0:	e0ff0100 	rscs	r0, pc, r0, lsl #2
8780bbe4:	20000000 	andcs	r0, r0, r0
8780bbe8:	20000000 	andcs	r0, r0, r0
	...
8780bc34:	007e0000 	rsbseq	r0, lr, r0
8780bc38:	80ff0000 	rscshi	r0, pc, r0
8780bc3c:	c0810300 	addgt	r0, r1, r0, lsl #6
8780bc40:	40000200 	andmi	r0, r0, r0, lsl #4
8780bc44:	20000600 	andcs	r0, r0, r0, lsl #12
8780bc48:	20000400 	andcs	r0, r0, r0, lsl #8
8780bc4c:	20000400 	andcs	r0, r0, r0, lsl #8
8780bc50:	20000400 	andcs	r0, r0, r0, lsl #8
8780bc54:	20000600 	andcs	r0, r0, r0, lsl #12
8780bc58:	40000200 	andmi	r0, r0, r0, lsl #4
8780bc5c:	c0810300 	addgt	r0, r1, r0, lsl #6
8780bc60:	80ff0100 	rscshi	r0, pc, r0, lsl #2
8780bc64:	007e0000 	rsbseq	r0, lr, r0
	...
8780bcb0:	01000400 	tsteq	r0, r0, lsl #8
8780bcb4:	01000400 	tsteq	r0, r0, lsl #8
8780bcb8:	ffff0700 			; <UNDEFINED> instruction: 0xffff0700
8780bcbc:	ffff0f00 			; <UNDEFINED> instruction: 0xffff0f00
8780bcc0:	c1000100 	mrsgt	r0, (UNDEF: 16)
8780bcc4:	41000200 	mrsmi	r0, R8_usr
8780bcc8:	20000400 	andcs	r0, r0, r0, lsl #8
8780bccc:	20000400 	andcs	r0, r0, r0, lsl #8
8780bcd0:	20000400 	andcs	r0, r0, r0, lsl #8
8780bcd4:	20000400 	andcs	r0, r0, r0, lsl #8
8780bcd8:	40000600 	andmi	r0, r0, r0, lsl #12
8780bcdc:	c0010300 	andgt	r0, r1, r0, lsl #6
8780bce0:	80ff0100 	rscshi	r0, pc, r0, lsl #2
8780bce4:	007e0000 	rsbseq	r0, lr, r0
	...
8780bd34:	007e0000 	rsbseq	r0, lr, r0
8780bd38:	80ff0100 	rscshi	r0, pc, r0, lsl #2
8780bd3c:	c0800300 	addgt	r0, r0, r0, lsl #6
8780bd40:	60000200 	andvs	r0, r0, r0, lsl #4
8780bd44:	20000400 	andcs	r0, r0, r0, lsl #8
8780bd48:	20000400 	andcs	r0, r0, r0, lsl #8
8780bd4c:	20000400 	andcs	r0, r0, r0, lsl #8
8780bd50:	20000400 	andcs	r0, r0, r0, lsl #8
8780bd54:	41000200 	mrsmi	r0, R8_usr
8780bd58:	c1000300 	mrsgt	r0, LR_irq
8780bd5c:	ffff0300 			; <UNDEFINED> instruction: 0xffff0300
8780bd60:	ffff0700 			; <UNDEFINED> instruction: 0xffff0700
8780bd64:	01000000 	mrseq	r0, (UNDEF: 0)
8780bd68:	01000000 	mrseq	r0, (UNDEF: 0)
	...
8780bdb0:	20000400 	andcs	r0, r0, r0, lsl #8
8780bdb4:	20000400 	andcs	r0, r0, r0, lsl #8
8780bdb8:	20000400 	andcs	r0, r0, r0, lsl #8
8780bdbc:	20000400 	andcs	r0, r0, r0, lsl #8
8780bdc0:	e0ff0f00 	rscs	r0, pc, r0, lsl #30
8780bdc4:	e0ff0f00 	rscs	r0, pc, r0, lsl #30
8780bdc8:	20c00000 	sbccs	r0, r0, r0
8780bdcc:	20000100 	andcs	r0, r0, r0, lsl #2
8780bdd0:	20000200 	andcs	r0, r0, r0, lsl #4
8780bdd4:	20000600 	andcs	r0, r0, r0, lsl #12
8780bdd8:	00000400 	andeq	r0, r0, r0, lsl #8
8780bddc:	00000400 	andeq	r0, r0, r0, lsl #8
8780bde0:	00000700 	andeq	r0, r0, r0, lsl #14
8780bde4:	00000300 	andeq	r0, r0, r0, lsl #6
	...
8780be34:	e0030000 	and	r0, r3, r0
8780be38:	e0c00100 	sbc	r0, r0, r0, lsl #2
8780be3c:	40e00300 	rscmi	r0, r0, r0, lsl #6
8780be40:	20300600 	eorscs	r0, r0, r0, lsl #12
8780be44:	20300400 	eorscs	r0, r0, r0, lsl #8
8780be48:	20180400 	andscs	r0, r8, r0, lsl #8
8780be4c:	20180400 	andscs	r0, r8, r0, lsl #8
8780be50:	20180400 	andscs	r0, r8, r0, lsl #8
8780be54:	200c0400 	andcs	r0, ip, r0, lsl #8
8780be58:	600c0200 	andvs	r0, ip, r0, lsl #4
8780be5c:	c0070300 	andgt	r0, r7, r0, lsl #6
8780be60:	80830700 	addhi	r0, r3, r0, lsl #14
	...
8780beb4:	00000400 	andeq	r0, r0, r0, lsl #8
8780beb8:	00000400 	andeq	r0, r0, r0, lsl #8
8780bebc:	00000400 	andeq	r0, r0, r0, lsl #8
8780bec0:	00000c00 	andeq	r0, r0, r0, lsl #24
8780bec4:	80ff1f00 	rscshi	r1, pc, r0, lsl #30
8780bec8:	c0ffff00 	rscsgt	pc, pc, r0, lsl #30
8780becc:	60000400 	andvs	r0, r0, r0, lsl #8
8780bed0:	20000400 	andcs	r0, r0, r0, lsl #8
8780bed4:	20000400 	andcs	r0, r0, r0, lsl #8
8780bed8:	20000400 	andcs	r0, r0, r0, lsl #8
8780bedc:	40000400 	andmi	r0, r0, r0, lsl #8
8780bee0:	80010000 	andhi	r0, r1, r0
	...
8780bf30:	00000400 	andeq	r0, r0, r0, lsl #8
8780bf34:	00000400 	andeq	r0, r0, r0, lsl #8
8780bf38:	80ff0700 	rscshi	r0, pc, r0, lsl #14
8780bf3c:	c0ff0f00 	rscsgt	r0, pc, r0, lsl #30
8780bf40:	60000000 	andvs	r0, r0, r0
8780bf44:	20000000 	andcs	r0, r0, r0
8780bf48:	20000000 	andcs	r0, r0, r0
8780bf4c:	20000000 	andcs	r0, r0, r0
8780bf50:	20000000 	andcs	r0, r0, r0
8780bf54:	40000400 	andmi	r0, r0, r0, lsl #8
8780bf58:	80000400 	andhi	r0, r0, r0, lsl #8
8780bf5c:	e0ff0700 	rscs	r0, pc, r0, lsl #14
8780bf60:	c0ff0f00 	rscsgt	r0, pc, r0, lsl #30
8780bf64:	40000000 	andmi	r0, r0, r0
8780bf68:	40000000 	andmi	r0, r0, r0
	...
8780bfb0:	00000400 	andeq	r0, r0, r0, lsl #8
8780bfb4:	00000400 	andeq	r0, r0, r0, lsl #8
8780bfb8:	00800700 	addeq	r0, r0, r0, lsl #14
8780bfbc:	00f00700 	rscseq	r0, r0, r0, lsl #14
8780bfc0:	00fe0400 	rscseq	r0, lr, r0, lsl #8
8780bfc4:	c01f0400 	andsgt	r0, pc, r0, lsl #8
8780bfc8:	e0030000 	and	r0, r3, r0
8780bfcc:	80030000 	andhi	r0, r3, r0
8780bfd0:	001c0000 	andseq	r0, ip, r0
8780bfd4:	00600400 	rsbeq	r0, r0, r0, lsl #8
8780bfd8:	00800700 	addeq	r0, r0, r0, lsl #14
8780bfdc:	00000600 	andeq	r0, r0, r0, lsl #12
8780bfe0:	00000400 	andeq	r0, r0, r0, lsl #8
	...
8780c02c:	00000400 	andeq	r0, r0, r0, lsl #8
8780c030:	00000600 	andeq	r0, r0, r0, lsl #12
8780c034:	00c00700 	sbceq	r0, r0, r0, lsl #14
8780c038:	00fc0700 	rscseq	r0, ip, r0, lsl #14
8780c03c:	803f0400 	eorshi	r0, pc, r0, lsl #8
8780c040:	e0030000 	and	r0, r3, r0
8780c044:	800f0400 	andhi	r0, pc, r0, lsl #8
8780c048:	00f00600 	rscseq	r0, r0, r0, lsl #12
8780c04c:	00f00700 	rscseq	r0, r0, r0, lsl #14
8780c050:	80ff0700 	rscshi	r0, pc, r0, lsl #14
8780c054:	e00f0400 	and	r0, pc, r0, lsl #8
8780c058:	80030000 	andhi	r0, r3, r0
8780c05c:	003c0400 	eorseq	r0, ip, r0, lsl #8
8780c060:	00c00700 	sbceq	r0, r0, r0, lsl #14
8780c064:	00000600 	andeq	r0, r0, r0, lsl #12
8780c068:	00000400 	andeq	r0, r0, r0, lsl #8
	...
8780c0b0:	20000000 	andcs	r0, r0, r0
8780c0b4:	20000400 	andcs	r0, r0, r0, lsl #8
8780c0b8:	60000400 	andvs	r0, r0, r0, lsl #8
8780c0bc:	e0000700 	and	r0, r0, r0, lsl #14
8780c0c0:	20830700 	addcs	r0, r3, r0, lsl #14
8780c0c4:	00e60700 	rsceq	r0, r6, r0, lsl #14
8780c0c8:	00f80400 	rscseq	r0, r8, r0, lsl #8
8780c0cc:	003c0000 	eorseq	r0, ip, r0
8780c0d0:	205e0400 	subscs	r0, lr, r0, lsl #8
8780c0d4:	a0870500 	addge	r0, r7, r0, lsl #10
8780c0d8:	e0010600 	and	r0, r1, r0, lsl #12
8780c0dc:	60000400 	andvs	r0, r0, r0, lsl #8
8780c0e0:	20000400 	andcs	r0, r0, r0, lsl #8
8780c0e4:	20000000 	andcs	r0, r0, r0
	...
8780c130:	00000400 	andeq	r0, r0, r0, lsl #8
8780c134:	03000400 	movweq	r0, #1024	; 0x400
8780c138:	03000700 	movweq	r0, #1792	; 0x700
8780c13c:	01e00700 	mvneq	r0, r0, lsl #14
8780c140:	01f80400 	mvnseq	r0, r0, lsl #8
8780c144:	021f0400 	andseq	r0, pc, #0, 8
8780c148:	fc070000 	stc2	0, cr0, [r7], {-0}
8780c14c:	e0000000 	and	r0, r0, r0
8780c150:	00070000 	andeq	r0, r7, r0
8780c154:	00380400 	eorseq	r0, r8, r0, lsl #8
8780c158:	00c00700 	sbceq	r0, r0, r0, lsl #14
8780c15c:	00000600 	andeq	r0, r0, r0, lsl #12
8780c160:	00000400 	andeq	r0, r0, r0, lsl #8
8780c164:	00000400 	andeq	r0, r0, r0, lsl #8
	...
8780c1b4:	60800700 	addvs	r0, r0, r0, lsl #14
8780c1b8:	e0000600 	and	r0, r0, r0, lsl #12
8780c1bc:	e0030400 	and	r0, r3, r0, lsl #8
8780c1c0:	a0070400 	andge	r0, r7, r0, lsl #8
8780c1c4:	200e0400 	andcs	r0, lr, r0, lsl #8
8780c1c8:	203c0400 	eorscs	r0, ip, r0, lsl #8
8780c1cc:	20700400 	rsbscs	r0, r0, r0, lsl #8
8780c1d0:	20e00500 	rsccs	r0, r0, r0, lsl #10
8780c1d4:	20800700 	addcs	r0, r0, r0, lsl #14
8780c1d8:	60000700 	andvs	r0, r0, r0, lsl #14
8780c1dc:	e0000400 	and	r0, r0, r0, lsl #8
8780c1e0:	80030000 	andhi	r0, r3, r0
	...
8780c248:	00800000 	addeq	r0, r0, r0
8780c24c:	00800000 	addeq	r0, r0, r0
8780c250:	00400100 	subeq	r0, r0, r0, lsl #2
8780c254:	f83ffe07 			; <UNDEFINED> instruction: 0xf83ffe07
8780c258:	04000008 	streq	r0, [r0], #-8
8780c25c:	02000010 	andeq	r0, r0, #16
8780c260:	02000010 	andeq	r0, r0, #16
	...
8780c2cc:	ffffffff 			; <UNDEFINED> instruction: 0xffffffff
	...
8780c334:	02000010 	andeq	r0, r0, #16
8780c338:	02000010 	andeq	r0, r0, #16
8780c33c:	04000008 	streq	r0, [r0], #-8
8780c340:	f83ffe07 			; <UNDEFINED> instruction: 0xf83ffe07
8780c344:	00400100 	subeq	r0, r0, r0, lsl #2
8780c348:	00800000 	addeq	r0, r0, r0
8780c34c:	00800000 	addeq	r0, r0, r0
	...
8780c3b0:	00000018 	andeq	r0, r0, r8, lsl r0
8780c3b4:	00000030 	andeq	r0, r0, r0, lsr r0
8780c3b8:	00000040 	andeq	r0, r0, r0, asr #32
8780c3bc:	00000040 	andeq	r0, r0, r0, asr #32
8780c3c0:	00000040 	andeq	r0, r0, r0, asr #32
8780c3c4:	00000020 	andeq	r0, r0, r0, lsr #32
8780c3c8:	00000030 	andeq	r0, r0, r0, lsr r0
8780c3cc:	00000008 	andeq	r0, r0, r8
8780c3d0:	00000004 	andeq	r0, r0, r4
8780c3d4:	00000002 	andeq	r0, r0, r2
8780c3d8:	00000002 	andeq	r0, r0, r2
8780c3dc:	00000002 	andeq	r0, r0, r2
8780c3e0:	0000000c 	andeq	r0, r0, ip
8780c3e4:	00000018 	andeq	r0, r0, r8, lsl r0
	...

8780c42c <ascii_font_24x24>:
	...
8780c45c:	0f000000 	svceq	0x00000000
8780c460:	fe0f3880 	cdp2	8, 0, cr3, cr15, cr0, {4}
8780c464:	38800f38 	stmcc	r0, {r3, r4, r5, r8, r9, sl, fp}
	...
8780c478:	00010000 	andeq	r0, r1, r0
8780c47c:	00000600 	andeq	r0, r0, r0, lsl #12
8780c480:	3800000c 	stmdacc	r0, {r2, r3}
8780c484:	00310000 	eorseq	r0, r1, r0
8780c488:	00000600 	andeq	r0, r0, r0, lsl #12
8780c48c:	3800000c 	stmdacc	r0, {r2, r3}
8780c490:	00300000 	eorseq	r0, r0, r0
	...
8780c49c:	67008061 	strvs	r8, [r0, -r1, rrx]
8780c4a0:	80f907f8 	ldrshthi	r0, [r9], #120	; 0x78
8780c4a4:	00806100 	addeq	r6, r0, r0, lsl #2
8780c4a8:	61008061 	tstvs	r0, r1, rrx
8780c4ac:	80610080 	rsbhi	r0, r1, r0, lsl #1
8780c4b0:	07f86700 	ldrbeq	r6, [r8, r0, lsl #14]!
8780c4b4:	610080f9 	strdvs	r8, [r0, -r9]
8780c4b8:	00000080 	andeq	r0, r0, r0, lsl #1
8780c4bc:	00000000 	andeq	r0, r0, r0
8780c4c0:	c0010000 	andgt	r0, r1, r0
8780c4c4:	f0e003e0 			; <UNDEFINED> instruction: 0xf0e003e0
8780c4c8:	04083006 	streq	r3, [r8], #-6
8780c4cc:	ff1f0818 			; <UNDEFINED> instruction: 0xff1f0818
8780c4d0:	080e04fe 	stmdaeq	lr, {r1, r2, r3, r4, r5, r6, r7, sl}
8780c4d4:	03f08707 	mvnseq	r8, #1835008	; 0x1c0000
8780c4d8:	0000e081 	andeq	lr, r0, r1, lsl #1
8780c4dc:	00000000 	andeq	r0, r0, r0
8780c4e0:	0600f001 	streq	pc, [r0], -r1
8780c4e4:	0404000c 	streq	r0, [r4], #-12
8780c4e8:	700c0608 	andvc	r0, ip, r8, lsl #12
8780c4ec:	00c0f901 	sbceq	pc, r0, r1, lsl #18
8780c4f0:	3b00000e 	blcc	8780c530 <ascii_font_24x24+0x104>
8780c4f4:	18ec00e0 	stmiane	ip!, {r5, r6, r7}^
8780c4f8:	04080807 	streq	r0, [r8], #-2055	; 0x807
8780c4fc:	0300180c 	movweq	r1, #2060	; 0x80c
8780c500:	000000e0 	andeq	r0, r0, r0, ror #1
8780c504:	00e00100 	rsceq	r0, r0, r0, lsl #2
8780c508:	f803f007 			; <UNDEFINED> instruction: 0xf803f007
8780c50c:	081c0418 	ldmdaeq	ip, {r3, r4, sl}
8780c510:	07081704 	streq	r1, [r8, -r4, lsl #14]
8780c514:	c003d0e1 	andgt	sp, r3, r1, ror #1
8780c518:	b02300e0 	eorlt	r0, r3, r0, ror #1
8780c51c:	00083c00 	andeq	r3, r8, r0, lsl #24
8780c520:	00000820 	andeq	r0, r0, r0, lsr #16
8780c524:	00000010 	andeq	r0, r0, r0, lsl r0
8780c528:	01000000 	mrseq	r0, (UNDEF: 0)
8780c52c:	00310000 	eorseq	r0, r1, r0
8780c530:	00003200 	andeq	r3, r0, r0, lsl #4
8780c534:	0000001c 	andeq	r0, r0, ip, lsl r0
	...
8780c55c:	ff01007f 			; <UNDEFINED> instruction: 0xff01007f
8780c560:	f08007c0 			; <UNDEFINED> instruction: 0xf08007c0
8780c564:	1018000c 	andsne	r0, r8, ip
8780c568:	00200400 	eoreq	r0, r0, r0, lsl #8
8780c56c:	00000002 	andeq	r0, r0, r2
8780c570:	20000000 	andcs	r0, r0, r0
8780c574:	00100200 	andseq	r0, r0, r0, lsl #4
8780c578:	18000c04 	stmdane	r0, {r2, sl, fp}
8780c57c:	01f08007 	mvnseq	r8, r7
8780c580:	7f00c0ff 	svcvc	0x0000c0ff
	...
8780c598:	66000042 	strvs	r0, [r0], -r2, asr #32
8780c59c:	00660000 	rsbeq	r0, r6, r0
8780c5a0:	00003c00 	andeq	r3, r0, r0, lsl #24
8780c5a4:	ff030018 			; <UNDEFINED> instruction: 0xff030018
8780c5a8:	001800c0 	andseq	r0, r8, r0, asr #1
8780c5ac:	00003c00 	andeq	r3, r0, r0, lsl #24
8780c5b0:	66000066 	strvs	r0, [r0], -r6, rrx
8780c5b4:	00420000 	subeq	r0, r2, r0
8780c5b8:	00000000 	andeq	r0, r0, r0
8780c5bc:	08000008 	stmdaeq	r0, {r3}
8780c5c0:	00080000 	andeq	r0, r8, r0
8780c5c4:	00000800 	andeq	r0, r0, r0, lsl #16
8780c5c8:	ff010008 			; <UNDEFINED> instruction: 0xff010008
8780c5cc:	000800c0 	andeq	r0, r8, r0, asr #1
8780c5d0:	00000800 	andeq	r0, r0, r0, lsl #16
8780c5d4:	08000008 	stmdaeq	r0, {r3}
8780c5d8:	00080000 	andeq	r0, r8, r0
8780c5dc:	00000000 	andeq	r0, r0, r0
8780c5e0:	00000100 	andeq	r0, r0, r0, lsl #2
8780c5e4:	32000031 	andcc	r0, r0, #49	; 0x31
8780c5e8:	001c0000 	andseq	r0, ip, r0
	...
8780c604:	08000008 	stmdaeq	r0, {r3}
8780c608:	00080000 	andeq	r0, r8, r0
8780c60c:	00000800 	andeq	r0, r0, r0, lsl #16
8780c610:	08000008 	stmdaeq	r0, {r3}
8780c614:	00080000 	andeq	r0, r8, r0
8780c618:	00000800 	andeq	r0, r0, r0, lsl #16
8780c61c:	08000008 	stmdaeq	r0, {r3}
	...
8780c62c:	38000038 	stmdacc	r0, {r3, r4, r5}
8780c630:	00380000 	eorseq	r0, r8, r0
	...
8780c64c:	00000600 	andeq	r0, r0, r0, lsl #12
8780c650:	7000001c 	andvc	r0, r0, ip, lsl r0
8780c654:	00800100 	addeq	r0, r0, r0, lsl #2
8780c658:	3800000e 	stmdacc	r0, {r1, r2, r3}
8780c65c:	00c00000 	sbceq	r0, r0, r0
8780c660:	1c000007 	stcne	0, cr0, [r0], {7}
8780c664:	00300000 	eorseq	r0, r0, r0
	...
8780c670:	ff01807f 			; <UNDEFINED> instruction: 0xff01807f
8780c674:	708003e0 	addvc	r0, r0, r0, ror #7
8780c678:	04180006 	ldreq	r0, [r8], #-6
8780c67c:	00040800 	andeq	r0, r4, r0, lsl #16
8780c680:	18000608 	stmdane	r0, {r3, r9, sl}
8780c684:	01708003 	cmneq	r0, r3
8780c688:	7f00e0ff 	svcvc	0x0000e0ff
8780c68c:	00000080 	andeq	r0, r0, r0, lsl #1
8780c690:	00000000 	andeq	r0, r0, r0
8780c694:	00010000 	andeq	r0, r1, r0
8780c698:	08000108 	stmdaeq	r0, {r3, r8}
8780c69c:	03080001 	movweq	r0, #32769	; 0x8001
8780c6a0:	ff07f8ff 			; <UNDEFINED> instruction: 0xff07f8ff
8780c6a4:	080000f8 	stmdaeq	r0, {r3, r4, r5, r6, r7}
8780c6a8:	00080000 	andeq	r0, r8, r0
8780c6ac:	00000800 	andeq	r0, r0, r0, lsl #16
8780c6b0:	00000000 	andeq	r0, r0, r0
8780c6b4:	01000000 	mrseq	r0, (UNDEF: 0)
8780c6b8:	c00238c0 	andgt	r3, r2, r0, asr #17
8780c6bc:	98000458 	stmdals	r0, {r3, r4, r6, sl}
8780c6c0:	04180104 	ldreq	r0, [r8], #-260	; 0x104
8780c6c4:	04041802 	streq	r1, [r4], #-2050	; 0x802
8780c6c8:	181c0618 	ldmdane	ip, {r3, r4, r9, sl}
8780c6cc:	0118f803 	tsteq	r8, r3, lsl #16
8780c6d0:	0000f8e0 	andeq	pc, r0, r0, ror #17
8780c6d4:	00000000 	andeq	r0, r0, r0
8780c6d8:	01000000 	mrseq	r0, (UNDEF: 0)
8780c6dc:	c003e0c0 	andgt	lr, r3, r0, asr #1
8780c6e0:	080004f0 	stmdaeq	r0, {r4, r5, r6, r7, sl}
8780c6e4:	04080804 	streq	r0, [r8], #-2052	; 0x804
8780c6e8:	18060808 	stmdane	r6, {r3, fp}
8780c6ec:	18f40308 	ldmne	r4!, {r3, r8, r9}^
8780c6f0:	00f0e701 	rscseq	lr, r0, r1, lsl #14
8780c6f4:	0000e001 	andeq	lr, r0, r1
	...
8780c700:	0d000003 	stceq	0, cr0, [r0, #-12]
8780c704:	00110000 	andseq	r0, r1, r0
8780c708:	00006100 	andeq	r6, r0, r0, lsl #2
8780c70c:	01030881 	smlabbeq	r3, r1, r8, r0
8780c710:	f8ff0708 			; <UNDEFINED> instruction: 0xf8ff0708
8780c714:	00f8ff0f 	rscseq	pc, r8, pc, lsl #30
8780c718:	01000801 	tsteq	r0, r1, lsl #16
8780c71c:	00000008 	andeq	r0, r0, r8
8780c720:	00000000 	andeq	r0, r0, r0
8780c724:	fc07e000 	stc2	0, cr14, [r7], {-0}
8780c728:	080806d0 	stmdaeq	r8, {r4, r6, r7, r9, sl}
8780c72c:	06081006 	streq	r1, [r8], -r6
8780c730:	10060810 	andne	r0, r6, r0, lsl r8
8780c734:	38180608 	ldmdacc	r8, {r3, r9, sl}
8780c738:	06f00f06 	ldrbteq	r0, [r0], r6, lsl #30
8780c73c:	0000c007 	andeq	ip, r0, r7
	...
8780c748:	ff01803f 			; <UNDEFINED> instruction: 0xff01803f
8780c74c:	308403e0 	addcc	r0, r4, r0, ror #7
8780c750:	04180802 	ldreq	r0, [r8], #-2050	; 0x802
8780c754:	10040810 	andne	r0, r4, r0, lsl r8
8780c758:	08100408 	ldmdaeq	r0, {r3, sl}
8780c75c:	03101807 	tsteq	r0, #458752	; 0x70000
8780c760:	0700f00f 	streq	pc, [r0, -pc]
8780c764:	000000c0 	andeq	r0, r0, r0, asr #1
8780c768:	00000000 	andeq	r0, r0, r0
8780c76c:	c0030000 	andgt	r0, r3, r0
8780c770:	00000700 	andeq	r0, r0, r0, lsl #14
8780c774:	06000006 	streq	r0, [r0], -r6
8780c778:	0706f800 	streq	pc, [r6, -r0, lsl #16]
8780c77c:	001806f8 			; <UNDEFINED> instruction: 0x001806f8
8780c780:	0700e006 	streq	lr, [r0, -r6]
8780c784:	00060000 	andeq	r0, r6, r0
8780c788:	00000000 	andeq	r0, r0, r0
8780c78c:	01000000 	mrseq	r0, (UNDEF: 0)
8780c790:	f703e0e1 			; <UNDEFINED> instruction: 0xf703e0e1
8780c794:	103406f0 	ldrshtne	r0, [r4], -r0
8780c798:	04081804 	streq	r1, [r8], #-2052	; 0x804
8780c79c:	0c040818 	stceq	8, cr0, [r4], {24}
8780c7a0:	080c0408 	stmdaeq	ip, {r3, sl}
8780c7a4:	03181606 	tsteq	r8, #6291456	; 0x600000
8780c7a8:	c101f0f3 	strdgt	pc, [r1, -r3]
8780c7ac:	000000e0 	andeq	r0, r0, r0, ror #1
8780c7b0:	00000000 	andeq	r0, r0, r0
8780c7b4:	fc0300f8 	stc2	0, cr0, [r3], {248}	; 0xf8
8780c7b8:	38060330 	stmdacc	r6, {r4, r5, r8, r9}
8780c7bc:	04080204 	streq	r0, [r8], #-516	; 0x204
8780c7c0:	02040802 	andeq	r0, r4, #131072	; 0x20000
8780c7c4:	10040408 	andne	r0, r4, r8, lsl #8
8780c7c8:	01f00803 	mvnseq	r0, r3, lsl #16
8780c7cc:	7f00c0ff 	svcvc	0x0000c0ff
	...
8780c7e4:	70003870 	andvc	r3, r0, r0, ror r8
8780c7e8:	38700038 	ldmdacc	r0!, {r3, r4, r5}^
	...
8780c808:	30001a30 	andcc	r1, r0, r0, lsr sl
8780c80c:	0000001c 	andeq	r0, r0, ip, lsl r0
	...
8780c820:	08000000 	stmdaeq	r0, {}	; <UNPREDICTABLE>
8780c824:	00140000 	andseq	r0, r4, r0
8780c828:	00002200 	andeq	r2, r0, r0, lsl #4
8780c82c:	80000041 	andhi	r0, r0, r1, asr #32
8780c830:	40000180 	andmi	r0, r0, r0, lsl #3
8780c834:	04200002 	strteq	r0, [r0], #-2
8780c838:	00081000 	andeq	r1, r8, r0
8780c83c:	00000008 	andeq	r0, r0, r8
8780c840:	00000000 	andeq	r0, r0, r0
8780c844:	21000021 	tstcs	r0, r1, lsr #32
8780c848:	00210000 	eoreq	r0, r1, r0
8780c84c:	00002100 	andeq	r2, r0, r0, lsl #2
8780c850:	21000021 	tstcs	r0, r1, lsr #32
8780c854:	00210000 	eoreq	r0, r1, r0
8780c858:	00002100 	andeq	r2, r0, r0, lsl #2
8780c85c:	21000021 	tstcs	r0, r1, lsr #32
	...
8780c868:	00080000 	andeq	r0, r8, r0
8780c86c:	10000408 	andne	r0, r0, r8, lsl #8
8780c870:	01200002 	teqeq	r0, r2
8780c874:	80004000 	andhi	r4, r0, r0
8780c878:	00410080 	subeq	r0, r1, r0, lsl #1
8780c87c:	00002200 	andeq	r2, r0, r0, lsl #4
8780c880:	08000014 	stmdaeq	r0, {r2, r4}
8780c884:	00000000 	andeq	r0, r0, r0
8780c888:	03000000 	movweq	r0, #0
8780c88c:	c00400c0 	andgt	r0, r4, r0, asr #1
8780c890:	00000400 	andeq	r0, r0, r0, lsl #8
8780c894:	08380008 	ldmdaeq	r8!, {r3}
8780c898:	0808380f 	stmdaeq	r8, {r0, r1, r2, r3, fp, ip, sp}
8780c89c:	00100838 	andseq	r0, r0, r8, lsr r8
8780c8a0:	0700300c 	streq	r3, [r0, -ip]
8780c8a4:	c00300e0 	andgt	r0, r3, r0, ror #1
	...
8780c8b0:	ff00803f 			; <UNDEFINED> instruction: 0xff00803f
8780c8b4:	708003e0 	addvc	r0, r0, r0, ror #7
8780c8b8:	06100f02 	ldreq	r0, [r0], -r2, lsl #30
8780c8bc:	c0048870 	andgt	r8, r4, r0, ror r8
8780c8c0:	08830488 	stmeq	r3, {r3, r7, sl}
8780c8c4:	02887f04 	addeq	r7, r8, #4, 30
8780c8c8:	010390c0 	smlabteq	r3, r0, r0, r9
8780c8cc:	40fe0020 	rscsmi	r0, lr, r0, lsr #32
8780c8d0:	00080000 	andeq	r0, r8, r0
8780c8d4:	01001800 	tsteq	r0, r0, lsl #16
8780c8d8:	083e00f8 	ldmdaeq	lr!, {r3, r4, r5, r6, r7}
8780c8dc:	0700c201 	streq	ip, [r0, -r1, lsl #4]
8780c8e0:	e2070002 	and	r0, r7, #2
8780c8e4:	00fe0000 	rscseq	r0, lr, r0
8780c8e8:	00c81f00 	sbceq	r1, r8, r0, lsl #30
8780c8ec:	0000f801 	andeq	pc, r0, r1, lsl #16
8780c8f0:	08000038 	stmdaeq	r0, {r3, r4, r5}
8780c8f4:	07080004 	streq	r0, [r8, -r4]
8780c8f8:	ff07f8ff 			; <UNDEFINED> instruction: 0xff07f8ff
8780c8fc:	080804f8 	stmdaeq	r8, {r3, r4, r5, r6, r7, sl}
8780c900:	04080804 	streq	r0, [r8], #-2052	; 0x804
8780c904:	08040808 	stmdaeq	r4, {r3, fp}
8780c908:	08180608 	ldmdaeq	r8, {r3, r9, sl}
8780c90c:	0118f403 	tsteq	r8, r3, lsl #8
8780c910:	0100f0e7 	smlatteq	r0, r7, r0, pc	; <UNPREDICTABLE>
8780c914:	000000e0 	andeq	r0, r0, r0, ror #1
8780c918:	00000000 	andeq	r0, r0, r0
8780c91c:	ff01803f 			; <UNDEFINED> instruction: 0xff01803f
8780c920:	708003e0 	addvc	r0, r0, r0, ror #7
8780c924:	04180002 	ldreq	r0, [r8], #-2
8780c928:	00040800 	andeq	r0, r4, r0, lsl #16
8780c92c:	08000408 	stmdaeq	r0, {r3, sl}
8780c930:	06100004 	ldreq	r0, [r0], -r4
8780c934:	80072000 	andhi	r2, r7, r0
8780c938:	000000c0 	andeq	r0, r0, r0, asr #1
8780c93c:	07080004 	streq	r0, [r8, -r4]
8780c940:	ff07f8ff 			; <UNDEFINED> instruction: 0xff07f8ff
8780c944:	080004f8 	stmdaeq	r0, {r3, r4, r5, r6, r7, sl}
8780c948:	04080004 	streq	r0, [r8], #-4
8780c94c:	00040800 	andeq	r0, r4, r0, lsl #16
8780c950:	10000218 	andne	r0, r0, r8, lsl r2
8780c954:	01708003 	cmneq	r0, r3
8780c958:	7f00e0ff 	svcvc	0x0000e0ff
8780c95c:	00000080 	andeq	r0, r0, r0, lsl #1
8780c960:	07080004 	streq	r0, [r8, -r4]
8780c964:	ff07f8ff 			; <UNDEFINED> instruction: 0xff07f8ff
8780c968:	080804f8 	stmdaeq	r8, {r3, r4, r5, r6, r7, sl}
8780c96c:	04080804 	streq	r0, [r8], #-2052	; 0x804
8780c970:	08040808 	stmdaeq	r4, {r3, fp}
8780c974:	083e0408 	ldmdaeq	lr!, {r3, sl}
8780c978:	06080004 	streq	r0, [r8], -r4
8780c97c:	00011800 	andeq	r1, r1, r0, lsl #16
8780c980:	00000060 	andeq	r0, r0, r0, rrx
8780c984:	07080004 	streq	r0, [r8, -r4]
8780c988:	ff07f8ff 			; <UNDEFINED> instruction: 0xff07f8ff
8780c98c:	080804f8 	stmdaeq	r8, {r3, r4, r5, r6, r7, sl}
8780c990:	04000804 	streq	r0, [r0], #-2052	; 0x804
8780c994:	08040008 	stmdaeq	r4, {r3}
8780c998:	003e0400 	eorseq	r0, lr, r0, lsl #8
8780c99c:	06000006 	streq	r0, [r0], -r6
8780c9a0:	80010000 	andhi	r0, r1, r0
	...
8780c9ac:	ff01803f 			; <UNDEFINED> instruction: 0xff01803f
8780c9b0:	708003e0 	addvc	r0, r0, r0, ror #7
8780c9b4:	04180006 	ldreq	r0, [r8], #-6
8780c9b8:	02040800 	andeq	r0, r4, #0, 16
8780c9bc:	08020408 	stmdaeq	r2, {r3, sl}
8780c9c0:	07f00302 	ldrbeq	r0, [r0, r2, lsl #6]!
8780c9c4:	0200f083 	andeq	pc, r0, #131	; 0x83
8780c9c8:	00020000 	andeq	r0, r2, r0
8780c9cc:	07080004 	streq	r0, [r8, -r4]
8780c9d0:	ff07f8ff 			; <UNDEFINED> instruction: 0xff07f8ff
8780c9d4:	080804f8 	stmdaeq	r8, {r3, r4, r5, r6, r7, sl}
8780c9d8:	00000800 	andeq	r0, r0, r0, lsl #16
8780c9dc:	08000008 	stmdaeq	r0, {r3}
8780c9e0:	00080000 	andeq	r0, r8, r0
8780c9e4:	07080804 	streq	r0, [r8, -r4, lsl #16]
8780c9e8:	ff07f8ff 			; <UNDEFINED> instruction: 0xff07f8ff
8780c9ec:	080004f8 	stmdaeq	r0, {r3, r4, r5, r6, r7, sl}
8780c9f0:	00000000 	andeq	r0, r0, r0
8780c9f4:	00040000 	andeq	r0, r4, r0
8780c9f8:	08000408 	stmdaeq	r0, {r3, sl}
8780c9fc:	07080004 	streq	r0, [r8, -r4]
8780ca00:	ff07f8ff 			; <UNDEFINED> instruction: 0xff07f8ff
8780ca04:	080004f8 	stmdaeq	r0, {r3, r4, r5, r6, r7, sl}
8780ca08:	04080004 	streq	r0, [r8], #-4
8780ca0c:	00000800 	andeq	r0, r0, r0, lsl #16
	...
8780ca18:	00000600 	andeq	r0, r0, r0, lsl #12
8780ca1c:	01000007 	tsteq	r0, r7
8780ca20:	04010004 	streq	r0, [r1], #-4
8780ca24:	00040100 	andeq	r0, r4, r0, lsl #2
8780ca28:	feff0703 	cdp2	7, 15, cr0, cr15, cr3, {0}
8780ca2c:	04fcff07 	ldrbteq	pc, [ip], #3847	; 0xf07	; <UNPREDICTABLE>
8780ca30:	00040000 	andeq	r0, r4, r0
8780ca34:	00000400 	andeq	r0, r0, r0, lsl #8
8780ca38:	07080004 	streq	r0, [r8, -r4]
8780ca3c:	ff07f8ff 			; <UNDEFINED> instruction: 0xff07f8ff
8780ca40:	080c04f8 	stmdaeq	ip, {r3, r4, r5, r6, r7, sl}
8780ca44:	00001800 	andeq	r1, r0, r0, lsl #16
8780ca48:	c704003e 	smladxgt	r4, lr, r0, r0
8780ca4c:	c8030580 	stmdagt	r3, {r7, r8, sl}
8780ca50:	04f80006 	ldrbteq	r0, [r8], #6
8780ca54:	00043800 	andeq	r3, r4, r0, lsl #16
8780ca58:	08000018 	stmdaeq	r0, {r3, r4}
8780ca5c:	07080004 	streq	r0, [r8, -r4]
8780ca60:	ff07f8ff 			; <UNDEFINED> instruction: 0xff07f8ff
8780ca64:	080004f8 	stmdaeq	r0, {r3, r4, r5, r6, r7, sl}
8780ca68:	00080000 	andeq	r0, r8, r0
8780ca6c:	00000800 	andeq	r0, r0, r0, lsl #16
8780ca70:	08000008 	stmdaeq	r0, {r3}
8780ca74:	00080000 	andeq	r0, r8, r0
8780ca78:	00001800 	andeq	r1, r0, r0, lsl #16
8780ca7c:	00000060 	andeq	r0, r0, r0, rrx
8780ca80:	07080004 	streq	r0, [r8, -r4]
8780ca84:	8007f8ff 	strdhi	pc, [r7], -pc	; <UNPREDICTABLE>
8780ca88:	00fc0708 	rscseq	r0, ip, r8, lsl #14
8780ca8c:	00c07f00 	sbceq	r7, r0, r0, lsl #30
8780ca90:	0700f803 	streq	pc, [r0, -r3, lsl #16]
8780ca94:	007800c0 	rsbseq	r0, r8, r0, asr #1
8780ca98:	07088007 	streq	r8, [r8, -r7]
8780ca9c:	ff07f8ff 			; <UNDEFINED> instruction: 0xff07f8ff
8780caa0:	080004f8 	stmdaeq	r0, {r3, r4, r5, r6, r7, sl}
8780caa4:	07080004 	streq	r0, [r8, -r4]
8780caa8:	0007f8ff 	strdeq	pc, [r7], -pc	; <UNPREDICTABLE>
8780caac:	00c00308 	sbceq	r0, r0, r8, lsl #6
8780cab0:	0000e000 	andeq	lr, r0, r0
8780cab4:	1e000038 	mcrne	0, 0, r0, cr0, cr8, {1}
8780cab8:	00070000 	andeq	r0, r7, r0
8780cabc:	04c00100 	strbeq	r0, [r0], #256	; 0x100
8780cac0:	ff07f000 			; <UNDEFINED> instruction: 0xff07f000
8780cac4:	000004f8 	strdeq	r0, [r0], -r8
8780cac8:	00000000 	andeq	r0, r0, r0
8780cacc:	ff01807f 			; <UNDEFINED> instruction: 0xff01807f
8780cad0:	708003e0 	addvc	r0, r0, r0, ror #7
8780cad4:	04180006 	ldreq	r0, [r8], #-6
8780cad8:	00040800 	andeq	r0, r4, r0, lsl #16
8780cadc:	18000608 	stmdane	r0, {r3, r9, sl}
8780cae0:	01300003 	teqeq	r0, r3
8780cae4:	7f00e0ff 	svcvc	0x0000e0ff
8780cae8:	00000080 	andeq	r0, r0, r0, lsl #1
8780caec:	07080004 	streq	r0, [r8, -r4]
8780caf0:	ff07f8ff 			; <UNDEFINED> instruction: 0xff07f8ff
8780caf4:	080404f8 	stmdaeq	r4, {r3, r4, r5, r6, r7, sl}
8780caf8:	04000404 	streq	r0, [r0], #-1028	; 0x404
8780cafc:	04040004 	streq	r0, [r4], #-4
8780cb00:	00040400 	andeq	r0, r4, r0, lsl #8
8780cb04:	03000c06 	movweq	r0, #3078	; 0xc06
8780cb08:	f00100f8 			; <UNDEFINED> instruction: 0xf00100f8
	...
8780cb14:	ff01807f 			; <UNDEFINED> instruction: 0xff01807f
8780cb18:	708003e0 	addvc	r0, r0, r0, ror #7
8780cb1c:	04880006 	streq	r0, [r8], #6
8780cb20:	00048800 	andeq	r8, r4, r0, lsl #16
8780cb24:	3c0006c8 	stccc	6, cr0, [r0], {200}	; 0xc8
8780cb28:	013e0003 	teqeq	lr, r3
8780cb2c:	7f00e6ff 	svcvc	0x0000e6ff
8780cb30:	00000084 	andeq	r0, r0, r4, lsl #1
8780cb34:	07080004 	streq	r0, [r8, -r4]
8780cb38:	ff07f8ff 			; <UNDEFINED> instruction: 0xff07f8ff
8780cb3c:	080804f8 	stmdaeq	r8, {r3, r4, r5, r6, r7, sl}
8780cb40:	04000804 	streq	r0, [r0], #-2052	; 0x804
8780cb44:	0f04000c 	svceq	0x0004000c
8780cb48:	c00b0400 	andgt	r0, fp, r0, lsl #8
8780cb4c:	03f01006 	mvnseq	r1, #6
8780cb50:	e00138f0 	strd	r3, [r1], -r0
8780cb54:	08000008 	stmdaeq	r0, {r3}
8780cb58:	01000000 	mrseq	r0, (UNDEF: 0)
8780cb5c:	f003f8e0 			; <UNDEFINED> instruction: 0xf003f8e0
8780cb60:	10300630 	eorsne	r0, r0, r0, lsr r6
8780cb64:	04081804 	streq	r1, [r8], #-2052	; 0x804
8780cb68:	0c040818 	stceq	8, cr0, [r4], {24}
8780cb6c:	080c0408 	stmdaeq	ip, {r3, sl}
8780cb70:	02180602 	andseq	r0, r8, #2097152	; 0x200000
8780cb74:	8107f007 	tsthi	r7, r7
8780cb78:	000000e0 	andeq	r0, r0, r0, ror #1
8780cb7c:	06008001 	streq	r8, [r0], -r1
8780cb80:	00040000 	andeq	r0, r4, r0
8780cb84:	00000400 	andeq	r0, r0, r0, lsl #8
8780cb88:	07080004 	streq	r0, [r8, -r4]
8780cb8c:	ff07f8ff 			; <UNDEFINED> instruction: 0xff07f8ff
8780cb90:	080004f8 	stmdaeq	r0, {r3, r4, r5, r6, r7, sl}
8780cb94:	04000004 	streq	r0, [r0], #-4
8780cb98:	00060000 	andeq	r0, r6, r0
8780cb9c:	00800100 	addeq	r0, r0, r0, lsl #2
8780cba0:	07000004 	streq	r0, [r0, -r4]
8780cba4:	ff07e0ff 			; <UNDEFINED> instruction: 0xff07e0ff
8780cba8:	180004f0 	stmdane	r0, {r4, r5, r6, r7, sl}
8780cbac:	00080000 	andeq	r0, r8, r0
8780cbb0:	00000800 	andeq	r0, r0, r0, lsl #16
8780cbb4:	08000008 	stmdaeq	r0, {r3}
8780cbb8:	04080000 	streq	r0, [r8], #-0
8780cbbc:	ff071000 			; <UNDEFINED> instruction: 0xff071000
8780cbc0:	000004e0 	andeq	r0, r0, r0, ror #9
8780cbc4:	06000004 	streq	r0, [r0], -r4
8780cbc8:	e0070000 	and	r0, r7, r0
8780cbcc:	00fe0700 	rscseq	r0, lr, r0, lsl #14
8780cbd0:	00e01f04 	rsceq	r1, r0, r4, lsl #30
8780cbd4:	0000f801 	andeq	pc, r0, r1, lsl #16
8780cbd8:	e0010038 	and	r0, r1, r8, lsr r0
8780cbdc:	07003e04 	streq	r3, [r0, -r4, lsl #28]
8780cbe0:	000600c0 	andeq	r0, r6, r0, asr #1
8780cbe4:	00000400 	andeq	r0, r0, r0, lsl #8
8780cbe8:	07000004 	streq	r0, [r0, -r4]
8780cbec:	ff0700e0 			; <UNDEFINED> instruction: 0xff0700e0
8780cbf0:	f81f04c0 			; <UNDEFINED> instruction: 0xf81f04c0
8780cbf4:	07c00700 	strbeq	r0, [r0, r0, lsl #14]
8780cbf8:	ff0700f8 			; <UNDEFINED> instruction: 0xff0700f8
8780cbfc:	f83f0480 			; <UNDEFINED> instruction: 0xf83f0480
8780cc00:	04c00700 	strbeq	r0, [r0], #1792	; 0x700
8780cc04:	000700f8 	strdeq	r0, [r7], -r8
8780cc08:	00000400 	andeq	r0, r0, r0, lsl #8
8780cc0c:	04000000 	streq	r0, [r0], #-0
8780cc10:	00060800 	andeq	r0, r6, r0, lsl #16
8780cc14:	78c00718 	stmiavc	r0, {r3, r4, r8, r9, sl}^
8780cc18:	00c8f105 	sbceq	pc, r8, r5, lsl #2
8780cc1c:	1f00003e 	svcne	0x0000003e
8780cc20:	e8630480 	stmda	r3!, {r7, sl}^
8780cc24:	06f88007 	ldrbteq	r8, [r8], r7
8780cc28:	00041800 	andeq	r1, r4, r0, lsl #16
8780cc2c:	00000008 	andeq	r0, r0, r8
8780cc30:	06000004 	streq	r0, [r0], -r4
8780cc34:	80070000 	andhi	r0, r7, r0
8780cc38:	08e00700 	stmiaeq	r0!, {r8, r9, sl}^
8780cc3c:	00087c04 	andeq	r7, r8, r4, lsl #24
8780cc40:	0700f81f 	smuadeq	r0, pc, r8	; <UNPREDICTABLE>
8780cc44:	081800f8 	ldmdaeq	r8, {r3, r4, r5, r6, r7}
8780cc48:	0708e004 	streq	lr, [r8, -r4]
8780cc4c:	00060000 	andeq	r0, r6, r0
8780cc50:	00000400 	andeq	r0, r0, r0, lsl #8
8780cc54:	01000000 	mrseq	r0, (UNDEF: 0)
8780cc58:	00060800 	andeq	r0, r6, r0, lsl #16
8780cc5c:	f8000438 			; <UNDEFINED> instruction: 0xf8000438
8780cc60:	04e80304 	strbteq	r0, [r8], #772	; 0x304
8780cc64:	7c04080f 	stcvc	8, cr0, [r4], {15}
8780cc68:	08f00508 	ldmeq	r0!, {r3, r8, sl}^
8780cc6c:	0708c007 	streq	ip, [r8, -r7]
8780cc70:	00041800 	andeq	r1, r4, r0, lsl #16
8780cc74:	00000060 	andeq	r0, r0, r0, rrx
	...
8780cc84:	3f000000 	svccc	0x00000000
8780cc88:	0020feff 	strdeq	pc, [r0], -pc	; <UNPREDICTABLE>
8780cc8c:	02002002 	andeq	r2, r0, #2
8780cc90:	20020020 	andcs	r0, r2, r0, lsr #32
8780cc94:	00200200 	eoreq	r0, r0, r0, lsl #4
8780cc98:	00000002 	andeq	r0, r0, r2
8780cc9c:	00000000 	andeq	r0, r0, r0
8780cca0:	00080000 	andeq	r0, r8, r0
8780cca4:	00000700 	andeq	r0, r0, r0, lsl #14
8780cca8:	0000c000 	andeq	ip, r0, r0
8780ccac:	06000038 			; <UNDEFINED> instruction: 0x06000038
8780ccb0:	c0010000 	andgt	r0, r1, r0
8780ccb4:	00300000 	eorseq	r0, r0, r0
8780ccb8:	00000e00 	andeq	r0, r0, r0, lsl #28
8780ccbc:	00000001 	andeq	r0, r0, r1
8780ccc0:	00000000 	andeq	r0, r0, r0
8780ccc4:	00200000 	eoreq	r0, r0, r0
8780ccc8:	02002002 	andeq	r2, r0, #2
8780cccc:	20020020 	andcs	r0, r2, r0, lsr #32
8780ccd0:	00200200 	eoreq	r0, r0, r0, lsl #4
8780ccd4:	feff3f02 	cdp2	15, 15, cr3, cr15, cr2, {0}
	...
8780ccec:	00000800 	andeq	r0, r0, r0, lsl #16
8780ccf0:	30000010 	andcc	r0, r0, r0, lsl r0
8780ccf4:	00200000 	eoreq	r0, r0, r0
8780ccf8:	00003000 	andeq	r3, r0, r0
8780ccfc:	08000010 	stmdaeq	r0, {r4}
	...
8780cd08:	00010000 	andeq	r0, r1, r0
8780cd0c:	00000100 	andeq	r0, r0, r0, lsl #2
8780cd10:	01000001 	tsteq	r0, r1
8780cd14:	00010000 	andeq	r0, r1, r0
8780cd18:	00000100 	andeq	r0, r0, r0, lsl #2
8780cd1c:	01000001 	tsteq	r0, r1
8780cd20:	00010000 	andeq	r0, r1, r0
8780cd24:	00000100 	andeq	r0, r0, r0, lsl #2
8780cd28:	01000001 	tsteq	r0, r1
	...
8780cd34:	00002000 	andeq	r2, r0, r0
8780cd38:	10000020 	andne	r0, r0, r0, lsr #32
8780cd3c:	00100000 	andseq	r0, r0, r0
	...
8780cd54:	1900f000 	stmdbne	r0, {ip, sp, lr, pc}
8780cd58:	181b00f8 	ldmdane	fp, {r3, r4, r5, r6, r7}
8780cd5c:	00082200 	andeq	r2, r8, r0, lsl #4
8780cd60:	24000826 	strcs	r0, [r0], #-2086	; 0x826
8780cd64:	10240008 	eorne	r0, r4, r8
8780cd68:	00f83f00 	rscseq	r3, r8, r0, lsl #30
8780cd6c:	0000f81f 	andeq	pc, r0, pc, lsl r8	; <UNPREDICTABLE>
8780cd70:	18000008 	stmdane	r0, {r3}
8780cd74:	04000000 	streq	r0, [r0], #-0
8780cd78:	ff070000 			; <UNDEFINED> instruction: 0xff070000
8780cd7c:	f0ff0ff8 			; <UNDEFINED> instruction: 0xf0ff0ff8
8780cd80:	00181800 	andseq	r1, r8, r0, lsl #16
8780cd84:	20000810 	andcs	r0, r0, r0, lsl r8
8780cd88:	08200008 	stmdaeq	r0!, {r3}
8780cd8c:	00183000 	andseq	r3, r8, r0
8780cd90:	0f00f01f 	svceq	0x0000f01f
8780cd94:	000000c0 	andeq	r0, r0, r0, asr #1
8780cd98:	00000000 	andeq	r0, r0, r0
8780cd9c:	1f00c007 	svcne	0x0000c007
8780cda0:	301800f0 	ldrshcc	r0, [r8], -r0	; <UNPREDICTABLE>
8780cda4:	00082000 	andeq	r2, r8, r0
8780cda8:	20000820 	andcs	r0, r0, r0, lsr #16
8780cdac:	083c0008 	ldmdaeq	ip!, {r3}
8780cdb0:	00101c00 	andseq	r1, r0, r0, lsl #24
8780cdb4:	00006000 	andeq	r6, r0, r0
	...
8780cdc0:	1f00c007 	svcne	0x0000c007
8780cdc4:	183800f0 	ldmdane	r8!, {r4, r5, r6, r7}
8780cdc8:	00082000 	andeq	r2, r8, r0
8780cdcc:	20000820 	andcs	r0, r0, r0, lsr #16
8780cdd0:	10100408 	andsne	r0, r0, r8, lsl #8
8780cdd4:	0ff8ff07 	svceq	0x00f8ff07
8780cdd8:	0000f0ff 	strdeq	pc, [r0], -pc	; <UNPREDICTABLE>
8780cddc:	00000010 	andeq	r0, r0, r0, lsl r0
8780cde0:	00000000 	andeq	r0, r0, r0
8780cde4:	07000000 	streq	r0, [r0, -r0]
8780cde8:	f01f00c0 			; <UNDEFINED> instruction: 0xf01f00c0
8780cdec:	00301200 	eorseq	r1, r0, r0, lsl #4
8780cdf0:	22001822 	andcs	r1, r0, #2228224	; 0x220000
8780cdf4:	08220008 	stmdaeq	r2!, {r3}
8780cdf8:	00083200 	andeq	r3, r8, r0, lsl #4
8780cdfc:	0e00101e 	mcreq	0, 0, r1, cr0, cr14, {0}
8780ce00:	00000020 	andeq	r0, r0, r0, lsr #32
8780ce04:	00000000 	andeq	r0, r0, r0
8780ce08:	20000020 	andcs	r0, r0, r0, lsr #32
8780ce0c:	08200008 	stmdaeq	r0!, {r3}
8780ce10:	03f8ff01 	mvnseq	pc, #1, 30
8780ce14:	2006f8ff 	strdcs	pc, [r6], -pc	; <UNPREDICTABLE>
8780ce18:	08200408 	stmdaeq	r0!, {r3, sl}
8780ce1c:	07082004 	streq	r2, [r8, -r4]
8780ce20:	00030020 	andeq	r0, r3, r0, lsr #32
	...
8780ce2c:	0e000e00 	cdpeq	14, 0, cr0, cr0, cr0, {0}
8780ce30:	f31f006e 	vhadd.u16	q0, <illegal reg q7.5>, q15
8780ce34:	00b13100 	adcseq	r3, r1, r0, lsl #2
8780ce38:	2000b120 	andcs	fp, r0, r0, lsr #2
8780ce3c:	913100b1 	ldrhls	r0, [r1, -r1]!
8780ce40:	00131f00 	andseq	r1, r3, r0, lsl #30
8780ce44:	20001e2e 	andcs	r1, r0, lr, lsr #28
8780ce48:	0030000e 	eorseq	r0, r0, lr
8780ce4c:	04000000 	streq	r0, [r0], #-0
8780ce50:	ff070800 			; <UNDEFINED> instruction: 0xff070800
8780ce54:	f8ff0ff8 			; <UNDEFINED> instruction: 0xf8ff0ff8
8780ce58:	00081000 	andeq	r1, r8, r0
8780ce5c:	20000020 	andcs	r0, r0, r0, lsr #32
8780ce60:	08200000 	stmdaeq	r0!, {}	; <UNPREDICTABLE>
8780ce64:	00f83f00 	rscseq	r3, r8, r0, lsl #30
8780ce68:	0000f81f 	andeq	pc, r0, pc, lsl r8	; <UNPREDICTABLE>
8780ce6c:	00000008 	andeq	r0, r0, r8
8780ce70:	00000000 	andeq	r0, r0, r0
8780ce74:	20000000 	andcs	r0, r0, r0
8780ce78:	08200008 	stmdaeq	r0!, {r3}
8780ce7c:	06082000 	streq	r2, [r8], -r0
8780ce80:	3f06f83f 	svccc	0x0006f83f
8780ce84:	080000f8 	stmdaeq	r0, {r3, r4, r5, r6, r7}
8780ce88:	00080000 	andeq	r0, r8, r0
8780ce8c:	00000800 	andeq	r0, r0, r0, lsl #16
	...
8780ce9c:	03000003 	movweq	r0, #3
8780cea0:	00012000 	andeq	r2, r1, r0
8780cea4:	20000120 	andcs	r0, r0, r0, lsr #2
8780cea8:	fe3f0603 	cdp2	6, 3, cr0, cr15, cr3, {0}
8780ceac:	00fc3f06 	rscseq	r3, ip, r6, lsl #30
	...
8780ceb8:	04000000 	streq	r0, [r0], #-0
8780cebc:	ff070800 			; <UNDEFINED> instruction: 0xff070800
8780cec0:	f8ff0ff8 			; <UNDEFINED> instruction: 0xf8ff0ff8
8780cec4:	00880100 	addeq	r0, r8, r0, lsl #2
8780cec8:	2f000003 	svccs	0x00000003
8780cecc:	f83800c0 			; <UNDEFINED> instruction: 0xf83800c0
8780ced0:	00382000 	eorseq	r2, r8, r0
8780ced4:	00000820 	andeq	r0, r0, r0, lsr #16
8780ced8:	00000008 	andeq	r0, r0, r8
8780cedc:	00000000 	andeq	r0, r0, r0
8780cee0:	00040000 	andeq	r0, r4, r0
8780cee4:	08000408 	stmdaeq	r0, {r3, sl}
8780cee8:	07080004 	streq	r0, [r8, -r4]
8780ceec:	ff0ff8ff 			; <UNDEFINED> instruction: 0xff0ff8ff
8780cef0:	080000f8 	stmdaeq	r0, {r3, r4, r5, r6, r7}
8780cef4:	00080000 	andeq	r0, r8, r0
8780cef8:	00000800 	andeq	r0, r0, r0, lsl #16
8780cefc:	00000000 	andeq	r0, r0, r0
8780cf00:	00082000 	andeq	r2, r8, r0
8780cf04:	3f00f83f 	svccc	0x0000f83f
8780cf08:	081000f8 	ldmdaeq	r0, {r3, r4, r5, r6, r7}
8780cf0c:	00002000 	andeq	r2, r0, r0
8780cf10:	3f00f83f 	svccc	0x0000f83f
8780cf14:	081000f8 	ldmdaeq	r0, {r3, r4, r5, r6, r7}
8780cf18:	00002000 	andeq	r2, r0, r0
8780cf1c:	3f00f83f 	svccc	0x0000f83f
8780cf20:	080000f8 	stmdaeq	r0, {r3, r4, r5, r6, r7}
8780cf24:	00000000 	andeq	r0, r0, r0
8780cf28:	3f000820 	svccc	0x00000820
8780cf2c:	f83f00f8 			; <UNDEFINED> instruction: 0xf83f00f8
8780cf30:	00081000 	andeq	r1, r8, r0
8780cf34:	20000010 	andcs	r0, r0, r0, lsl r0
8780cf38:	08200000 	stmdaeq	r0!, {}	; <UNPREDICTABLE>
8780cf3c:	00f83f00 	rscseq	r3, r8, r0, lsl #30
8780cf40:	0000f81f 	andeq	pc, r0, pc, lsl r8	; <UNPREDICTABLE>
8780cf44:	00000008 	andeq	r0, r0, r8
8780cf48:	00000000 	andeq	r0, r0, r0
8780cf4c:	0f00c007 	svceq	0x0000c007
8780cf50:	301800f0 	ldrshcc	r0, [r8], -r0	; <UNPREDICTABLE>
8780cf54:	00083000 	andeq	r3, r8, r0
8780cf58:	20000820 	andcs	r0, r0, r0, lsr #16
8780cf5c:	08300008 	ldmdaeq	r0!, {r3}
8780cf60:	00301800 	eorseq	r1, r0, r0, lsl #16
8780cf64:	0700f00f 	streq	pc, [r0, -pc]
8780cf68:	000000c0 	andeq	r0, r0, r0, asr #1
8780cf6c:	00000000 	andeq	r0, r0, r0
8780cf70:	3f000120 	svccc	0x00000120
8780cf74:	ff3f00ff 			; <UNDEFINED> instruction: 0xff3f00ff
8780cf78:	00111000 	andseq	r1, r1, r0
8780cf7c:	20000920 	andcs	r0, r0, r0, lsr #18
8780cf80:	08200008 	stmdaeq	r0!, {r3}
8780cf84:	00383000 	eorseq	r3, r8, r0
8780cf88:	0f00f01f 	svceq	0x0000f01f
8780cf8c:	000000c0 	andeq	r0, r0, r0, asr #1
8780cf90:	00000000 	andeq	r0, r0, r0
8780cf94:	1f00c007 	svcne	0x0000c007
8780cf98:	183800f0 	ldmdane	r8!, {r4, r5, r6, r7}
8780cf9c:	00082000 	andeq	r2, r8, r0
8780cfa0:	20000820 	andcs	r0, r0, r0, lsr #16
8780cfa4:	11100009 	tstne	r0, r9
8780cfa8:	00ff1f00 	rscseq	r1, pc, r0, lsl #30
8780cfac:	0000ff3f 	andeq	pc, r0, pc, lsr pc	; <UNPREDICTABLE>
8780cfb0:	00000001 	andeq	r0, r0, r1
8780cfb4:	00082000 	andeq	r2, r8, r0
8780cfb8:	20000820 	andcs	r0, r0, r0, lsr #16
8780cfbc:	f83f0008 			; <UNDEFINED> instruction: 0xf83f0008
8780cfc0:	00f83f00 	rscseq	r3, r8, r0, lsl #30
8780cfc4:	10000808 	andne	r0, r0, r8, lsl #16
8780cfc8:	08200008 	stmdaeq	r0!, {r3}
8780cfcc:	00002000 	andeq	r2, r0, r0
8780cfd0:	30000030 	andcc	r0, r0, r0, lsr r0
	...
8780cfdc:	0c000000 	stceq	0, cr0, [r0], {-0}
8780cfe0:	181e0078 	ldmdane	lr, {r3, r4, r5, r6}
8780cfe4:	00083300 	andeq	r3, r8, r0, lsl #6
8780cfe8:	21000823 	tstcs	r0, r3, lsr #16
8780cfec:	88210008 	stmdahi	r1!, {r3}
8780cff0:	00982100 	addseq	r2, r8, r0, lsl #2
8780cff4:	3800f030 	stmdacc	r0, {r4, r5, ip, sp, lr, pc}
8780cff8:	00000060 	andeq	r0, r0, r0, rrx
8780cffc:	00000000 	andeq	r0, r0, r0
8780d000:	20000020 	andcs	r0, r0, r0, lsr #32
8780d004:	00200000 	eoreq	r0, r0, r0
8780d008:	03f0ff00 	mvnseq	pc, #0, 30
8780d00c:	2000f8ff 	strdcs	pc, [r0], -pc	; <UNPREDICTABLE>
8780d010:	08200008 	stmdaeq	r0!, {r3}
8780d014:	00082000 	andeq	r2, r8, r0
8780d018:	00003000 	andeq	r3, r0, r0
	...
8780d024:	3f000020 	svccc	0x00000020
8780d028:	f87f00f0 			; <UNDEFINED> instruction: 0xf87f00f0
8780d02c:	00180000 	andseq	r0, r8, r0
8780d030:	00000800 	andeq	r0, r0, r0, lsl #16
8780d034:	10200008 	eorne	r0, r0, r8
8780d038:	00f83f00 	rscseq	r3, r8, r0, lsl #30
8780d03c:	0000f07f 	andeq	pc, r0, pc, ror r0	; <UNPREDICTABLE>
8780d040:	00000010 	andeq	r0, r0, r0, lsl r0
8780d044:	00000000 	andeq	r0, r0, r0
8780d048:	30000020 	andcc	r0, r0, r0, lsr #32
8780d04c:	003c0000 	eorseq	r0, ip, r0
8780d050:	00803f00 	addeq	r3, r0, r0, lsl #30
8780d054:	0000f023 	andeq	pc, r0, r3, lsr #32
8780d058:	70000078 	andvc	r0, r0, r8, ror r0
8780d05c:	00802300 	addeq	r2, r0, r0, lsl #6
8780d060:	3000003c 	andcc	r0, r0, ip, lsr r0
8780d064:	00200000 	eoreq	r0, r0, r0
8780d068:	00002000 	andeq	r2, r0, r0
8780d06c:	3f00003c 	svccc	0x0000003c
8780d070:	f82300e0 			; <UNDEFINED> instruction: 0xf82300e0
8780d074:	00e00000 	rsceq	r0, r0, r0
8780d078:	3e000027 	cdpcc	0, 0, cr0, cr0, cr7, {1}
8780d07c:	e03f0000 	eors	r0, pc, r0
8780d080:	00f82100 	rscseq	r2, r8, r0, lsl #2
8780d084:	3e00e001 	cdpcc	0, 0, cr14, cr0, cr1, {0}
8780d088:	00200000 	eoreq	r0, r0, r0
8780d08c:	00000000 	andeq	r0, r0, r0
8780d090:	20000820 	andcs	r0, r0, r0, lsr #16
8780d094:	38380008 	ldmdacc	r8!, {r3}
8780d098:	00683e00 	rsbeq	r3, r8, r0, lsl #28
8780d09c:	03008027 	movweq	r8, #39	; 0x27
8780d0a0:	f82c00c8 			; <UNDEFINED> instruction: 0xf82c00c8
8780d0a4:	00383800 	eorseq	r3, r8, r0, lsl #16
8780d0a8:	20001820 	andcs	r1, r0, r0, lsr #16
8780d0ac:	00000008 	andeq	r0, r0, r8
8780d0b0:	00000000 	andeq	r0, r0, r0
8780d0b4:	30000020 	andcc	r0, r0, r0, lsr #32
8780d0b8:	013c0003 	teqeq	ip, r3
8780d0bc:	00833f00 	addeq	r3, r3, r0, lsl #30
8780d0c0:	0000ec23 	andeq	lr, r0, r3, lsr #24
8780d0c4:	80230070 	eorhi	r0, r3, r0, ror r0
8780d0c8:	00003c00 	andeq	r3, r0, r0, lsl #24
8780d0cc:	20000020 	andcs	r0, r0, r0, lsr #32
	...
8780d0d8:	38000000 	stmdacc	r0, {}	; <UNPREDICTABLE>
8780d0dc:	38200008 	stmdacc	r0!, {r3}
8780d0e0:	00f82000 	rscseq	r2, r8, r0
8780d0e4:	2f00e823 	svccs	0x0000e823
8780d0e8:	083e0088 	ldmdaeq	lr!, {r3, r7}
8780d0ec:	00083800 	andeq	r3, r8, r0, lsl #16
8780d0f0:	00001820 	andeq	r1, r0, r0, lsr #16
8780d0f4:	00000070 	andeq	r0, r0, r0, ror r0
	...
8780d108:	14000008 	strne	r0, [r0], #-8
8780d10c:	fcf71f00 	ldc2l	15, cr1, [r7]
8780d110:	20060030 	andcs	r0, r6, r0, lsr r0
8780d114:	00000200 	andeq	r0, r0, r0, lsl #4
	...
8780d12c:	ffff0000 			; <UNDEFINED> instruction: 0xffff0000
8780d130:	000000ff 	strdeq	r0, [r0], -pc	; <UNPREDICTABLE>
	...
8780d144:	00200000 	eoreq	r0, r0, r0
8780d148:	06003002 	streq	r3, [r0], -r2
8780d14c:	00fcf71f 	rscseq	pc, ip, pc, lsl r7	; <UNPREDICTABLE>
8780d150:	08000014 	stmdaeq	r0, {r2, r4}
	...
8780d164:	18000000 	stmdane	r0, {}	; <UNPREDICTABLE>
8780d168:	00600000 	rsbeq	r0, r0, r0
8780d16c:	00004000 	andeq	r4, r0, r0
8780d170:	20000040 	andcs	r0, r0, r0, asr #32
8780d174:	00100000 	andseq	r0, r0, r0
8780d178:	00000800 	andeq	r0, r0, r0, lsl #16
8780d17c:	04000004 	streq	r0, [r0], #-4
8780d180:	000c0000 	andeq	r0, ip, r0
8780d184:	00001000 	andeq	r1, r0, r0

8780d188 <ascii_font_16x16>:
	...
8780d19c:	cc1f0000 	ldcgt	0, cr0, [pc], {-0}
8780d1a0:	00000c00 	andeq	r0, r0, r0, lsl #24
8780d1a4:	00000000 	andeq	r0, r0, r0
8780d1a8:	00080000 	andeq	r0, r8, r0
8780d1ac:	00600030 	rsbeq	r0, r0, r0, lsr r0
8780d1b0:	00300008 	eorseq	r0, r0, r8
8780d1b4:	00000060 	andeq	r0, r0, r0, rrx
8780d1b8:	fc032002 	stc2	0, cr2, [r3], {2}
8780d1bc:	2002201e 	andcs	r2, r2, lr, lsl r0
8780d1c0:	201efc03 	andscs	pc, lr, r3, lsl #24
8780d1c4:	00002002 	andeq	r2, r0, r2
8780d1c8:	180e0000 	stmdane	lr, {}	; <UNPREDICTABLE>
8780d1cc:	ff3f0411 			; <UNDEFINED> instruction: 0xff3f0411
8780d1d0:	780c8410 	stmdavc	ip, {r4, sl, pc}
8780d1d4:	00000000 	andeq	r0, r0, r0
8780d1d8:	8410000f 	ldrhi	r0, [r0], #-15
8780d1dc:	c000380f 	andgt	r3, r0, pc, lsl #16
8780d1e0:	84187807 	ldrhi	r7, [r8], #-2055	; 0x807
8780d1e4:	00007800 	andeq	r7, r0, r0, lsl #16
8780d1e8:	840f7800 	strhi	r7, [pc], #-2048	; 8780d1f0 <ascii_font_16x16+0x68>
8780d1ec:	2411c410 	ldrcs	ip, [r1], #-1040	; 0x410
8780d1f0:	e400980e 	str	r9, [r0], #-2062	; 0x80e
8780d1f4:	08008400 	stmdaeq	r0, {sl, pc}
8780d1f8:	00680008 	rsbeq	r0, r8, r8
8780d1fc:	00000070 	andeq	r0, r0, r0, ror r0
	...
8780d20c:	e0070000 	and	r0, r7, r0
8780d210:	04201818 	strteq	r1, [r0], #-2072	; 0x818
8780d214:	00000240 	andeq	r0, r0, r0, asr #4
8780d218:	02400000 	subeq	r0, r0, #0
8780d21c:	18180420 	ldmdane	r8, {r5, sl}
8780d220:	0000e007 	andeq	lr, r0, r7
8780d224:	00000000 	andeq	r0, r0, r0
8780d228:	40024002 	andmi	r4, r2, r2
8780d22c:	f00f8001 			; <UNDEFINED> instruction: 0xf00f8001
8780d230:	40028001 	andmi	r8, r2, r1
8780d234:	00004002 	andeq	r4, r0, r2
8780d238:	80008000 	andhi	r8, r0, r0
8780d23c:	f80f8000 			; <UNDEFINED> instruction: 0xf80f8000
8780d240:	80008000 	andhi	r8, r0, r0
8780d244:	00008000 	andeq	r8, r0, r0
8780d248:	0d000100 	stfeqs	f0, [r0, #-0]
8780d24c:	00000e00 	andeq	r0, r0, r0, lsl #28
	...
8780d258:	80000000 	andhi	r0, r0, r0
8780d25c:	80008000 	andhi	r8, r0, r0
8780d260:	80008000 	andhi	r8, r0, r0
8780d264:	80008000 	andhi	r8, r0, r0
8780d268:	0c000000 	stceq	0, cr0, [r0], {-0}
8780d26c:	00000c00 	andeq	r0, r0, r0, lsl #24
	...
8780d278:	06000000 	streq	r0, [r0], -r0
8780d27c:	60001800 	andvs	r1, r0, r0, lsl #16
8780d280:	00068001 	andeq	r8, r6, r1
8780d284:	00200018 	eoreq	r0, r0, r8, lsl r0
8780d288:	f0070000 			; <UNDEFINED> instruction: 0xf0070000
8780d28c:	04100808 	ldreq	r0, [r0], #-2056	; 0x808
8780d290:	08080410 	stmdaeq	r8, {r4, sl}
8780d294:	0000f007 	andeq	pc, r0, r7
8780d298:	04080000 	streq	r0, [r8], #-0
8780d29c:	fc1f0408 	ldc2	4, cr0, [pc], {8}
8780d2a0:	04000400 	streq	r0, [r0], #-1024	; 0x400
8780d2a4:	00000000 	andeq	r0, r0, r0
8780d2a8:	0c0e0000 	stceq	0, cr0, [lr], {-0}
8780d2ac:	24101410 	ldrcs	r1, [r0], #-1040	; 0x410
8780d2b0:	84114410 	ldrhi	r4, [r1], #-1040	; 0x410
8780d2b4:	00000c0e 	andeq	r0, r0, lr, lsl #24
8780d2b8:	180c0000 	stmdane	ip, {}	; <UNPREDICTABLE>
8780d2bc:	04110410 	ldreq	r0, [r1], #-1040	; 0x410
8780d2c0:	88120411 	ldmdahi	r2, {r0, r4, sl}
8780d2c4:	0000700c 	andeq	r7, r0, ip
8780d2c8:	e0000000 	and	r0, r0, r0
8780d2cc:	24042003 	strcs	r2, [r4], #-3
8780d2d0:	fc1f2408 	ldc2	4, cr2, [pc], {8}
8780d2d4:	00002400 	andeq	r2, r0, r0, lsl #8
8780d2d8:	981f0000 	ldmdals	pc, {}	; <UNPREDICTABLE>
8780d2dc:	04118410 	ldreq	r8, [r1], #-1040	; 0x410
8780d2e0:	88100411 	ldmdahi	r0, {r0, r4, sl}
8780d2e4:	00007010 	andeq	r7, r0, r0, lsl r0
8780d2e8:	f0070000 			; <UNDEFINED> instruction: 0xf0070000
8780d2ec:	04118808 	ldreq	r8, [r1], #-2056	; 0x808
8780d2f0:	88180411 	ldmdahi	r8, {r0, r4, sl}
8780d2f4:	00007000 	andeq	r7, r0, r0
8780d2f8:	001c0000 	andseq	r0, ip, r0
8780d2fc:	fc100010 	ldc2	0, cr0, [r0], {16}
8780d300:	001c0013 	andseq	r0, ip, r3, lsl r0
8780d304:	00000010 	andeq	r0, r0, r0, lsl r0
8780d308:	380e0000 	stmdacc	lr, {}	; <UNPREDICTABLE>
8780d30c:	84104411 	ldrhi	r4, [r0], #-1041	; 0x411
8780d310:	44118410 	ldrmi	r8, [r1], #-1040	; 0x410
8780d314:	0000380e 	andeq	r3, r0, lr, lsl #16
8780d318:	00070000 	andeq	r0, r7, r0
8780d31c:	44108c08 	ldrmi	r8, [r0], #-3080	; 0xc08
8780d320:	88084410 	stmdahi	r8, {r4, sl, lr}
8780d324:	0000f007 	andeq	pc, r0, r7
8780d328:	00000000 	andeq	r0, r0, r0
8780d32c:	0c030000 	stceq	0, cr0, [r3], {-0}
8780d330:	00000c03 	andeq	r0, r0, r3, lsl #24
	...
8780d33c:	06010100 	streq	r0, [r1], -r0, lsl #2
	...
8780d348:	80000000 	andhi	r0, r0, r0
8780d34c:	20024001 	andcs	r4, r2, r1
8780d350:	08081004 	stmdaeq	r8, {r2, ip}
8780d354:	00000410 	andeq	r0, r0, r0, lsl r4
8780d358:	20022002 	andcs	r2, r2, r2
8780d35c:	20022002 	andcs	r2, r2, r2
8780d360:	20022002 	andcs	r2, r2, r2
8780d364:	00002002 	andeq	r2, r0, r2
8780d368:	04100000 	ldreq	r0, [r0], #-0
8780d36c:	10040808 	andne	r0, r4, r8, lsl #16
8780d370:	40012002 	andmi	r2, r1, r2
8780d374:	00008000 	andeq	r8, r0, r0
8780d378:	000e0000 	andeq	r0, lr, r0
8780d37c:	0c100012 	ldceq	0, cr0, [r0], {18}
8780d380:	80106c10 	andshi	r6, r0, r0, lsl ip
8780d384:	0000000f 	andeq	r0, r0, pc
8780d388:	180ce003 	stmdane	ip, {r0, r1, sp, lr, pc}
8780d38c:	2414e413 	ldrcs	lr, [r4], #-1043	; 0x413
8780d390:	2808c417 	stmdacs	r8, {r0, r1, r2, r4, sl, lr, pc}
8780d394:	0000d007 	andeq	sp, r0, r7
8780d398:	3c000400 	cfstrscc	mvf0, [r0], {-0}
8780d39c:	401cc403 	andsmi	ip, ip, r3, lsl #8
8780d3a0:	e4004007 	str	r4, [r0], #-7
8780d3a4:	04001c00 	streq	r1, [r0], #-3072	; 0xc00
8780d3a8:	fc1f0410 	ldc2	4, cr0, [pc], {16}
8780d3ac:	04110411 	ldreq	r0, [r1], #-1041	; 0x411
8780d3b0:	880e0411 	stmdahi	lr, {r0, r4, sl}
8780d3b4:	00007000 	andeq	r7, r0, r0
8780d3b8:	180ce003 	stmdane	ip, {r0, r1, sp, lr, pc}
8780d3bc:	04100410 	ldreq	r0, [r0], #-1040	; 0x410
8780d3c0:	08100410 	ldmdaeq	r0, {r4, sl}
8780d3c4:	0000101c 	andeq	r1, r0, ip, lsl r0
8780d3c8:	fc1f0410 	ldc2	4, cr0, [pc], {16}
8780d3cc:	04100410 	ldreq	r0, [r0], #-1040	; 0x410
8780d3d0:	08080410 	stmdaeq	r8, {r4, sl}
8780d3d4:	0000f007 	andeq	pc, r0, r7
8780d3d8:	fc1f0410 	ldc2	4, cr0, [pc], {16}
8780d3dc:	04110411 	ldreq	r0, [r1], #-1041	; 0x411
8780d3e0:	0410c417 	ldreq	ip, [r0], #-1047	; 0x417
8780d3e4:	00001808 	andeq	r1, r0, r8, lsl #16
8780d3e8:	fc1f0410 	ldc2	4, cr0, [pc], {16}
8780d3ec:	00110411 	andseq	r0, r1, r1, lsl r4
8780d3f0:	0010c017 	andseq	ip, r0, r7, lsl r0
8780d3f4:	00000008 	andeq	r0, r0, r8
8780d3f8:	180ce003 	stmdane	ip, {r0, r1, sp, lr, pc}
8780d3fc:	04100410 	ldreq	r0, [r0], #-1040	; 0x410
8780d400:	781c4410 	ldmdavc	ip, {r4, sl, lr}
8780d404:	00004000 	andeq	r4, r0, r0
8780d408:	fc1f0410 	ldc2	4, cr0, [pc], {16}
8780d40c:	80008410 	andhi	r8, r0, r0, lsl r4
8780d410:	84108000 	ldrhi	r8, [r0], #-0
8780d414:	0410fc1f 	ldreq	pc, [r0], #-3103	; 0xc1f
8780d418:	04100000 	ldreq	r0, [r0], #-0
8780d41c:	fc1f0410 	ldc2	4, cr0, [pc], {16}
8780d420:	04100410 	ldreq	r0, [r0], #-1040	; 0x410
8780d424:	00000000 	andeq	r0, r0, r0
8780d428:	01000300 	mrseq	r0, LR_irq
8780d42c:	01100110 	tsteq	r0, r0, lsl r1
8780d430:	0010fe1f 	andseq	pc, r0, pc, lsl lr	; <UNPREDICTABLE>
8780d434:	00000010 	andeq	r0, r0, r0, lsl r0
8780d438:	fc1f0410 	ldc2	4, cr0, [pc], {16}
8780d43c:	80030411 	andhi	r0, r3, r1, lsl r4
8780d440:	1c186414 	cfldrsne	mvf6, [r8], {20}
8780d444:	00000410 	andeq	r0, r0, r0, lsl r4
8780d448:	fc1f0410 	ldc2	4, cr0, [pc], {16}
8780d44c:	04000410 	streq	r0, [r0], #-1040	; 0x410
8780d450:	04000400 	streq	r0, [r0], #-1024	; 0x400
8780d454:	00000c00 	andeq	r0, r0, r0, lsl #24
8780d458:	fc1f0410 	ldc2	4, cr0, [pc], {16}
8780d45c:	fc00001f 	stc2	0, cr0, [r0], {31}
8780d460:	fc1f001f 	ldc2	0, cr0, [pc], {31}
8780d464:	00000410 	andeq	r0, r0, r0, lsl r4
8780d468:	fc1f0410 	ldc2	4, cr0, [pc], {16}
8780d46c:	0003040c 	andeq	r0, r3, ip, lsl #8
8780d470:	1810e000 	ldmdane	r0, {sp, lr, pc}
8780d474:	0010fc1f 	andseq	pc, r0, pc, lsl ip	; <UNPREDICTABLE>
8780d478:	0808f007 	stmdaeq	r8, {r0, r1, r2, ip, sp, lr, pc}
8780d47c:	04100410 	ldreq	r0, [r0], #-1040	; 0x410
8780d480:	08080410 	stmdaeq	r8, {r4, sl}
8780d484:	0000f007 	andeq	pc, r0, r7
8780d488:	fc1f0410 	ldc2	4, cr0, [pc], {16}
8780d48c:	80108410 	andshi	r8, r0, r0, lsl r4
8780d490:	80108010 	andshi	r8, r0, r0, lsl r0
8780d494:	0000000f 	andeq	r0, r0, pc
8780d498:	1808f007 	stmdane	r8, {r0, r1, r2, ip, sp, lr, pc}
8780d49c:	24102410 	ldrcs	r2, [r0], #-1040	; 0x410
8780d4a0:	0a081c10 	beq	87a144e8 <__bss_end+0x2051a0>
8780d4a4:	0000f207 	andeq	pc, r0, r7, lsl #4
8780d4a8:	fc1f0410 	ldc2	4, cr0, [pc], {16}
8780d4ac:	00110411 	andseq	r0, r1, r1, lsl r4
8780d4b0:	3011c011 	andscc	ip, r1, r1, lsl r0
8780d4b4:	04000c0e 	streq	r0, [r0], #-3086	; 0xc0e
8780d4b8:	1c0e0000 	stcne	0, cr0, [lr], {-0}
8780d4bc:	84100411 	ldrhi	r0, [r0], #-1041	; 0x411
8780d4c0:	44108410 	ldrmi	r8, [r0], #-1040	; 0x410
8780d4c4:	0000381c 	andeq	r3, r0, ip, lsl r8
8780d4c8:	00100018 	andseq	r0, r0, r8, lsl r0
8780d4cc:	fc1f0410 	ldc2	4, cr0, [pc], {16}
8780d4d0:	00100410 	andseq	r0, r0, r0, lsl r4
8780d4d4:	00000018 	andeq	r0, r0, r8, lsl r0
8780d4d8:	f81f0010 			; <UNDEFINED> instruction: 0xf81f0010
8780d4dc:	04000410 	streq	r0, [r0], #-1040	; 0x410
8780d4e0:	04100400 	ldreq	r0, [r0], #-1024	; 0x400
8780d4e4:	0010f81f 	andseq	pc, r0, pc, lsl r8	; <UNPREDICTABLE>
8780d4e8:	001e0010 	andseq	r0, lr, r0, lsl r0
8780d4ec:	1c00e011 	stcne	0, cr14, [r0], {17}
8780d4f0:	80137000 	andshi	r7, r3, r0
8780d4f4:	0010001c 	andseq	r0, r0, ip, lsl r0
8780d4f8:	3c10c01f 	ldccc	0, cr12, [r0], {31}
8780d4fc:	001fe000 	andseq	lr, pc, r0
8780d500:	3c10e000 	ldccc	0, cr14, [r0], {-0}
8780d504:	0000c01f 	andeq	ip, r0, pc, lsl r0
8780d508:	0c180410 	cfldrseq	mvf0, [r8], {16}
8780d50c:	c0013416 	andgt	r3, r1, r6, lsl r4
8780d510:	3416c001 	ldrcc	ip, [r6], #-1
8780d514:	04100c18 	ldreq	r0, [r0], #-3096	; 0xc18
8780d518:	001c0010 	andseq	r0, ip, r0, lsl r0
8780d51c:	fc000413 	stc2	4, cr0, [r0], {19}
8780d520:	001c0413 	andseq	r0, ip, r3, lsl r4
8780d524:	00000010 	andeq	r0, r0, r0, lsl r0
8780d528:	1c100408 	cfldrsne	mvf0, [r0], {8}
8780d52c:	84106410 	ldrhi	r6, [r0], #-1040	; 0x410
8780d530:	041c0413 	ldreq	r0, [ip], #-1043	; 0x413
8780d534:	00001810 	andeq	r1, r0, r0, lsl r8
8780d538:	00000000 	andeq	r0, r0, r0
8780d53c:	fe7f0000 	cdp2	0, 7, cr0, cr15, cr0, {0}
8780d540:	02400240 	subeq	r0, r0, #64, 4
8780d544:	00000240 	andeq	r0, r0, r0, asr #4
8780d548:	00300000 	eorseq	r0, r0, r0
8780d54c:	8003000c 	andhi	r0, r3, ip
8780d550:	1c006000 	stcne	0, cr6, [r0], {-0}
8780d554:	00000300 	andeq	r0, r0, r0, lsl #6
8780d558:	02400000 	subeq	r0, r0, #0
8780d55c:	02400240 	subeq	r0, r0, #64, 4
8780d560:	0000fe7f 	andeq	pc, r0, pc, ror lr	; <UNPREDICTABLE>
	...
8780d56c:	00400020 	subeq	r0, r0, r0, lsr #32
8780d570:	00400040 	subeq	r0, r0, r0, asr #32
8780d574:	00000020 	andeq	r0, r0, r0, lsr #32
8780d578:	01000100 	mrseq	r0, (UNDEF: 16)
8780d57c:	01000100 	mrseq	r0, (UNDEF: 16)
8780d580:	01000100 	mrseq	r0, (UNDEF: 16)
8780d584:	01000100 	mrseq	r0, (UNDEF: 16)
8780d588:	00400000 	subeq	r0, r0, r0
8780d58c:	00200040 	eoreq	r0, r0, r0, asr #32
	...
8780d598:	98000000 	stmdals	r0, {}	; <UNPREDICTABLE>
8780d59c:	44012401 	strmi	r2, [r1], #-1025	; 0x401
8780d5a0:	44014401 	strmi	r4, [r1], #-1025	; 0x401
8780d5a4:	0400fc00 	streq	pc, [r0], #-3072	; 0xc00
8780d5a8:	fc1f0010 	ldc2	0, cr0, [pc], {16}
8780d5ac:	04018800 	streq	r8, [r1], #-2048	; 0x800
8780d5b0:	88000401 	stmdahi	r0, {r0, sl}
8780d5b4:	00007000 	andeq	r7, r0, r0
8780d5b8:	70000000 	andvc	r0, r0, r0
8780d5bc:	04018800 	streq	r8, [r1], #-2048	; 0x800
8780d5c0:	04010401 	streq	r0, [r1], #-1025	; 0x401
8780d5c4:	00008800 	andeq	r8, r0, r0, lsl #16
8780d5c8:	70000000 	andvc	r0, r0, r0
8780d5cc:	04018800 	streq	r8, [r1], #-2048	; 0x800
8780d5d0:	08110401 	ldmdaeq	r1, {r0, sl}
8780d5d4:	0400fc1f 	streq	pc, [r0], #-3103	; 0xc1f
8780d5d8:	f8000000 			; <UNDEFINED> instruction: 0xf8000000
8780d5dc:	44014401 	strmi	r4, [r1], #-1025	; 0x401
8780d5e0:	44014401 	strmi	r4, [r1], #-1025	; 0x401
8780d5e4:	0000c800 	andeq	ip, r0, r0, lsl #16
8780d5e8:	04010000 	streq	r0, [r1], #-0
8780d5ec:	fc0f0401 	stc2	4, cr0, [pc], {1}
8780d5f0:	04110411 	ldreq	r0, [r1], #-1041	; 0x411
8780d5f4:	00180011 	andseq	r0, r8, r1, lsl r0
8780d5f8:	d6000000 	strle	r0, [r0], -r0
8780d5fc:	29012901 	stmdbcs	r1, {r0, r8, fp, sp}
8780d600:	c9012901 	stmdbgt	r1, {r0, r8, fp, sp}
8780d604:	00000601 	andeq	r0, r0, r1, lsl #12
8780d608:	fc1f0410 	ldc2	4, cr0, [pc], {16}
8780d60c:	00018400 	andeq	r8, r1, r0, lsl #8
8780d610:	04010001 	streq	r0, [r1], #-1
8780d614:	0400fc00 	streq	pc, [r0], #-3072	; 0xc00
8780d618:	04010000 	streq	r0, [r1], #-0
8780d61c:	fc190419 	ldc2	4, cr0, [r9], {25}
8780d620:	04000400 	streq	r0, [r0], #-1024	; 0x400
8780d624:	00000000 	andeq	r0, r0, r0
8780d628:	03000000 	movweq	r0, #0
8780d62c:	01010100 	mrseq	r0, (UNDEF: 17)
8780d630:	fe190119 	mrc2	1, 0, r0, cr9, cr9, {0}
8780d634:	00000000 	andeq	r0, r0, r0
8780d638:	fc1f0410 	ldc2	4, cr0, [pc], {16}
8780d63c:	40002400 	andmi	r2, r0, r0, lsl #8
8780d640:	0c01b401 	cfstrseq	mvf11, [r1], {1}
8780d644:	00000401 	andeq	r0, r0, r1, lsl #8
8780d648:	04100000 	ldreq	r0, [r0], #-0
8780d64c:	fc1f0410 	ldc2	4, cr0, [pc], {16}
8780d650:	04000400 	streq	r0, [r0], #-1024	; 0x400
8780d654:	00000000 	andeq	r0, r0, r0
8780d658:	fc010401 	stc2	4, cr0, [r1], {1}
8780d65c:	00010401 	andeq	r0, r1, r1, lsl #8
8780d660:	0401fc01 	streq	pc, [r1], #-3073	; 0xc01
8780d664:	fc000001 	stc2	0, cr0, [r0], {1}
8780d668:	fc010401 	stc2	4, cr0, [r1], {1}
8780d66c:	00018400 	andeq	r8, r1, r0, lsl #8
8780d670:	04010001 	streq	r0, [r1], #-1
8780d674:	0400fc00 	streq	pc, [r0], #-3072	; 0xc00
8780d678:	f8000000 			; <UNDEFINED> instruction: 0xf8000000
8780d67c:	04010401 	streq	r0, [r1], #-1025	; 0x401
8780d680:	04010401 	streq	r0, [r1], #-1025	; 0x401
8780d684:	0000f800 	andeq	pc, r0, r0, lsl #16
8780d688:	ff010101 			; <UNDEFINED> instruction: 0xff010101
8780d68c:	04018500 	streq	r8, [r1], #-1280	; 0x500
8780d690:	88000401 	stmdahi	r0, {r0, sl}
8780d694:	00007000 	andeq	r7, r0, r0
8780d698:	70000000 	andvc	r0, r0, r0
8780d69c:	04018800 	streq	r8, [r1], #-2048	; 0x800
8780d6a0:	05010401 	streq	r0, [r1, #-1025]	; 0x401
8780d6a4:	0100ff01 	tsteq	r0, r1, lsl #30
8780d6a8:	04010401 	streq	r0, [r1], #-1025	; 0x401
8780d6ac:	8400fc01 	strhi	pc, [r0], #-3073	; 0xc01
8780d6b0:	00010401 	andeq	r0, r1, r1, lsl #8
8780d6b4:	00008001 	andeq	r8, r0, r1
8780d6b8:	cc000000 	stcgt	0, cr0, [r0], {-0}
8780d6bc:	24012401 	strcs	r2, [r1], #-1025	; 0x401
8780d6c0:	24012401 	strcs	r2, [r1], #-1025	; 0x401
8780d6c4:	00009801 	andeq	r9, r0, r1, lsl #16
8780d6c8:	00010000 	andeq	r0, r1, r0
8780d6cc:	f8070001 			; <UNDEFINED> instruction: 0xf8070001
8780d6d0:	04010401 	streq	r0, [r1], #-1025	; 0x401
8780d6d4:	00000000 	andeq	r0, r0, r0
8780d6d8:	f8010001 			; <UNDEFINED> instruction: 0xf8010001
8780d6dc:	04000400 	streq	r0, [r0], #-1024	; 0x400
8780d6e0:	08010400 	stmdaeq	r1, {sl}
8780d6e4:	0400fc01 	streq	pc, [r0], #-3073	; 0xc01
8780d6e8:	80010001 	andhi	r0, r1, r1
8780d6ec:	0c007001 	stceq	0, cr7, [r0], {1}
8780d6f0:	60011000 	andvs	r1, r1, r0
8780d6f4:	00018001 	andeq	r8, r1, r1
8780d6f8:	0c01f001 	stceq	0, cr15, [r1], {1}
8780d6fc:	c0013000 	andgt	r3, r1, r0
8780d700:	0c013000 	stceq	0, cr3, [r1], {-0}
8780d704:	0001f001 	andeq	pc, r1, r1
8780d708:	04010000 	streq	r0, [r1], #-0
8780d70c:	74008c01 	strvc	r8, [r0], #-3073	; 0xc01
8780d710:	8c017001 	stchi	0, cr7, [r1], {1}
8780d714:	00000401 	andeq	r0, r0, r1, lsl #8
8780d718:	81010101 	tsthi	r1, r1, lsl #2
8780d71c:	0e007101 	adfeqs	f7, f0, f1
8780d720:	60011800 	andvs	r1, r1, r0, lsl #16
8780d724:	00018001 	andeq	r8, r1, r1
8780d728:	84010000 	strhi	r0, [r1], #-0
8780d72c:	34010c01 	strcc	r0, [r1], #-3073	; 0xc01
8780d730:	84014401 	strhi	r4, [r1], #-1025	; 0x401
8780d734:	00000c01 	andeq	r0, r0, r1, lsl #24
	...
8780d740:	fc3e0001 	ldc2	0, cr0, [lr], #-4
8780d744:	02400240 	subeq	r0, r0, #64, 4
	...
8780d750:	0000ffff 	strdeq	pc, [r0], -pc	; <UNPREDICTABLE>
8780d754:	00000000 	andeq	r0, r0, r0
8780d758:	02400000 	subeq	r0, r0, #0
8780d75c:	fc3e0240 	ldc2	2, cr0, [lr], #-256	; 0xffffff00
8780d760:	00000001 	andeq	r0, r0, r1
8780d764:	00000000 	andeq	r0, r0, r0
8780d768:	00600000 	rsbeq	r0, r0, r0
8780d76c:	00800080 	addeq	r0, r0, r0, lsl #1
8780d770:	00400040 	subeq	r0, r0, r0, asr #32
8780d774:	00200020 	eoreq	r0, r0, r0, lsr #32

8780d778 <ascii_font_12x12>:
	...
8780d788:	0000403f 	andeq	r4, r0, pc, lsr r0
8780d78c:	00000000 	andeq	r0, r0, r0
8780d790:	00300000 	eorseq	r0, r0, r0
8780d794:	00300040 	eorseq	r0, r0, r0, asr #32
8780d798:	00000040 	andeq	r0, r0, r0, asr #32
8780d79c:	c00b0009 	andgt	r0, fp, r9
8780d7a0:	c00b003d 	andgt	r0, fp, sp, lsr r0
8780d7a4:	0009003d 	andeq	r0, r9, sp, lsr r0
8780d7a8:	4024c018 	eormi	ip, r4, r8, lsl r0
8780d7ac:	4022e07f 	eormi	lr, r2, pc, ror r0
8780d7b0:	00008031 	andeq	r8, r0, r1, lsr r0
8780d7b4:	c0240018 	eorgt	r0, r4, r8, lsl r0
8780d7b8:	800d001b 	andhi	r0, sp, fp, lsl r0
8780d7bc:	80014032 	andhi	r4, r1, r2, lsr r0
8780d7c0:	401c8003 	andsmi	r8, ip, r3
8780d7c4:	801c4027 	andshi	r4, ip, r7, lsr #32
8780d7c8:	40004007 	andmi	r4, r0, r7
8780d7cc:	00600010 	rsbeq	r0, r0, r0, lsl r0
	...
8780d7dc:	801f0000 	andshi	r0, pc, r0
8780d7e0:	20404020 	subcs	r4, r0, r0, lsr #32
8780d7e4:	20400000 	subcs	r0, r0, r0
8780d7e8:	801f4020 	andshi	r4, pc, r0, lsr #32
8780d7ec:	00000000 	andeq	r0, r0, r0
8780d7f0:	00060009 	andeq	r0, r6, r9
8780d7f4:	0006801f 	andeq	r8, r6, pc, lsl r0
8780d7f8:	00000009 	andeq	r0, r0, r9
8780d7fc:	00040004 	andeq	r0, r4, r4
8780d800:	0004803f 	andeq	r8, r4, pc, lsr r0
8780d804:	00000004 	andeq	r0, r0, r4
8780d808:	60001000 	andvs	r1, r0, r0
	...
8780d814:	00040004 	andeq	r0, r4, r4
8780d818:	00040004 	andeq	r0, r4, r4
8780d81c:	00000004 	andeq	r0, r0, r4
8780d820:	40000000 	andmi	r0, r0, r0
	...
8780d82c:	c0012000 	andgt	r2, r1, r0
8780d830:	00380006 	eorseq	r0, r8, r6
8780d834:	00000040 	andeq	r0, r0, r0, asr #32
8780d838:	4020801f 	eormi	r8, r0, pc, lsl r0
8780d83c:	40204020 	eormi	r4, r0, r0, lsr #32
8780d840:	0000801f 	andeq	r8, r0, pc, lsl r0
8780d844:	40100000 	andsmi	r0, r0, r0
8780d848:	4000c03f 	andmi	ip, r0, pc, lsr r0
8780d84c:	00000000 	andeq	r0, r0, r0
8780d850:	4021c018 	eormi	ip, r1, r8, lsl r0
8780d854:	40244022 	eormi	r4, r4, r2, lsr #32
8780d858:	00004018 	andeq	r4, r0, r8, lsl r0
8780d85c:	40208010 	eormi	r8, r0, r0, lsl r0
8780d860:	40244024 	eormi	r4, r4, r4, lsr #32
8780d864:	0000801b 	andeq	r8, r0, fp, lsl r0
8780d868:	000d0002 	andeq	r0, sp, r2
8780d86c:	c03f0011 	eorsgt	r0, pc, r1, lsl r0	; <UNPREDICTABLE>
8780d870:	00004001 	andeq	r4, r0, r1
8780d874:	4024803c 	eormi	r8, r4, ip, lsr r0
8780d878:	40244024 	eormi	r4, r4, r4, lsr #32
8780d87c:	00008023 	andeq	r8, r0, r3, lsr #32
8780d880:	4024801f 	eormi	r8, r4, pc, lsl r0
8780d884:	40344024 	eorsmi	r4, r4, r4, lsr #32
8780d888:	00008003 	andeq	r8, r0, r3
8780d88c:	00200030 	eoreq	r0, r0, r0, lsr r0
8780d890:	0038c027 	eorseq	ip, r8, r7, lsr #32
8780d894:	00000020 	andeq	r0, r0, r0, lsr #32
8780d898:	4024801b 	eormi	r8, r4, fp, lsl r0
8780d89c:	40244024 	eormi	r4, r4, r4, lsr #32
8780d8a0:	0000801b 	andeq	r8, r0, fp, lsl r0
8780d8a4:	c022001c 	eorgt	r0, r2, ip, lsl r0
8780d8a8:	40224022 	eormi	r4, r2, r2, lsr #32
8780d8ac:	0000801f 	andeq	r8, r0, pc, lsl r0
8780d8b0:	00000000 	andeq	r0, r0, r0
8780d8b4:	00004008 	andeq	r4, r0, r8
	...
8780d8c0:	00006004 	andeq	r6, r0, r4
8780d8c4:	00000000 	andeq	r0, r0, r0
8780d8c8:	00040000 	andeq	r0, r4, r0
8780d8cc:	0011000a 	andseq	r0, r1, sl
8780d8d0:	40408020 	submi	r8, r0, r0, lsr #32
8780d8d4:	00090009 	andeq	r0, r9, r9
8780d8d8:	00090009 	andeq	r0, r9, r9
8780d8dc:	00000009 	andeq	r0, r0, r9
8780d8e0:	40400000 	submi	r0, r0, r0
8780d8e4:	00118020 	andseq	r8, r1, r0, lsr #32
8780d8e8:	0004000a 	andeq	r0, r4, sl
8780d8ec:	00200018 	eoreq	r0, r0, r8, lsl r0
8780d8f0:	00244023 	eoreq	r4, r4, r3, lsr #32
8780d8f4:	00000018 	andeq	r0, r0, r8, lsl r0
8780d8f8:	4020801f 	eormi	r8, r0, pc, lsl r0
8780d8fc:	40294027 	eormi	r4, r9, r7, lsr #32
8780d900:	0000401f 	andeq	r4, r0, pc, lsl r0
8780d904:	c0074000 	andgt	r4, r7, r0
8780d908:	000f0039 	andeq	r0, pc, r9, lsr r0	; <UNPREDICTABLE>
8780d90c:	4000c001 	andmi	ip, r0, r1
8780d910:	c03f4020 	eorsgt	r4, pc, r0, lsr #32
8780d914:	40244024 	eormi	r4, r4, r4, lsr #32
8780d918:	0000801b 	andeq	r8, r0, fp, lsl r0
8780d91c:	4020801f 	eormi	r8, r0, pc, lsl r0
8780d920:	40204020 	eormi	r4, r0, r0, lsr #32
8780d924:	00008030 	andeq	r8, r0, r0, lsr r0
8780d928:	c03f4020 	eorsgt	r4, pc, r0, lsr #32
8780d92c:	40204020 	eormi	r4, r0, r0, lsr #32
8780d930:	0000801f 	andeq	r8, r0, pc, lsl r0
8780d934:	c03f4020 	eorsgt	r4, pc, r0, lsr #32
8780d938:	402e4024 	eormi	r4, lr, r4, lsr #32
8780d93c:	0000c030 	andeq	ip, r0, r0, lsr r0
8780d940:	c03f4020 	eorsgt	r4, pc, r0, lsr #32
8780d944:	002e4024 	eoreq	r4, lr, r4, lsr #32
8780d948:	00000030 	andeq	r0, r0, r0, lsr r0
8780d94c:	8010000f 	andshi	r0, r0, pc
8780d950:	40224020 	eormi	r4, r2, r0, lsr #32
8780d954:	00028033 	andeq	r8, r2, r3, lsr r0
8780d958:	c03f4020 	eorsgt	r4, pc, r0, lsr #32
8780d95c:	00040004 	andeq	r0, r4, r4
8780d960:	4020c03f 	eormi	ip, r0, pc, lsr r0
8780d964:	40204020 	eormi	r4, r0, r0, lsr #32
8780d968:	4020c03f 	eormi	ip, r0, pc, lsr r0
8780d96c:	00004020 	andeq	r4, r0, r0, lsr #32
8780d970:	20206000 	eorcs	r6, r0, r0
8780d974:	c03f2020 	eorsgt	r2, pc, r0, lsr #32
8780d978:	00200020 	eoreq	r0, r0, r0, lsr #32
8780d97c:	c03f4020 	eorsgt	r4, pc, r0, lsr #32
8780d980:	000b4024 	andeq	r4, fp, r4, lsr #32
8780d984:	4020c030 	eormi	ip, r0, r0, lsr r0
8780d988:	c03f4020 	eorsgt	r4, pc, r0, lsr #32
8780d98c:	40004020 	andmi	r4, r0, r0, lsr #32
8780d990:	c0004000 	andgt	r4, r0, r0
8780d994:	003cc03f 	eorseq	ip, ip, pc, lsr r0
8780d998:	003cc003 	eorseq	ip, ip, r3
8780d99c:	0000c03f 	andeq	ip, r0, pc, lsr r0
8780d9a0:	c03f4020 	eorsgt	r4, pc, r0, lsr #32
8780d9a4:	0023400c 	eoreq	r4, r3, ip
8780d9a8:	0020c03f 	eoreq	ip, r0, pc, lsr r0
8780d9ac:	4020801f 	eormi	r8, r0, pc, lsl r0
8780d9b0:	40204020 	eormi	r4, r0, r0, lsr #32
8780d9b4:	0000801f 	andeq	r8, r0, pc, lsl r0
8780d9b8:	c03f4020 	eorsgt	r4, pc, r0, lsr #32
8780d9bc:	00244024 	eoreq	r4, r4, r4, lsr #32
8780d9c0:	00000018 	andeq	r0, r0, r8, lsl r0
8780d9c4:	4021801f 	eormi	r8, r1, pc, lsl r0
8780d9c8:	e0204021 	eor	r4, r0, r1, lsr #32
8780d9cc:	0000a01f 	andeq	sl, r0, pc, lsl r0
8780d9d0:	c03f4020 	eorsgt	r4, pc, r0, lsr #32
8780d9d4:	00264024 	eoreq	r4, r6, r4, lsr #32
8780d9d8:	4000c019 	andmi	ip, r0, r9, lsl r0
8780d9dc:	4024c018 	eormi	ip, r4, r8, lsl r0
8780d9e0:	40224024 	eormi	r4, r2, r4, lsr #32
8780d9e4:	00008031 	andeq	r8, r0, r1, lsr r0
8780d9e8:	40200030 	eormi	r0, r0, r0, lsr r0
8780d9ec:	4020c03f 	eormi	ip, r0, pc, lsr r0
8780d9f0:	00000030 	andeq	r0, r0, r0, lsr r0
8780d9f4:	803f0020 	eorshi	r0, pc, r0, lsr #32
8780d9f8:	40004000 	andmi	r4, r0, r0
8780d9fc:	0020803f 	eoreq	r8, r0, pc, lsr r0
8780da00:	003e0020 	eorseq	r0, lr, r0, lsr #32
8780da04:	0007c001 	andeq	ip, r7, r1
8780da08:	00200038 	eoreq	r0, r0, r8, lsr r0
8780da0c:	c0070038 	andgt	r0, r7, r8, lsr r0
8780da10:	c007003c 	andgt	r0, r7, ip, lsr r0
8780da14:	00000038 	andeq	r0, r0, r8, lsr r0
8780da18:	c0394020 	eorsgt	r4, r9, r0, lsr #32
8780da1c:	c0390006 	eorsgt	r0, r9, r6
8780da20:	00004020 	andeq	r4, r0, r0, lsr #32
8780da24:	40380020 	eorsmi	r0, r8, r0, lsr #32
8780da28:	4038c007 	eorsmi	ip, r8, r7
8780da2c:	00000020 	andeq	r0, r0, r0, lsr #32
8780da30:	c0214030 	eorgt	r4, r1, r0, lsr r0
8780da34:	40384026 	eorsmi	r4, r8, r6, lsr #32
8780da38:	0000c020 	andeq	ip, r0, r0, lsr #32
8780da3c:	00000000 	andeq	r0, r0, r0
8780da40:	2040e07f 	subcs	lr, r0, pc, ror r0
8780da44:	00002040 	andeq	r2, r0, r0, asr #32
8780da48:	00700000 	rsbseq	r0, r0, r0
8780da4c:	8003000c 	andhi	r0, r3, ip
8780da50:	00004000 	andeq	r4, r0, r0
8780da54:	20400000 	subcs	r0, r0, r0
8780da58:	e07f2040 	rsbs	r2, pc, r0, asr #32
8780da5c:	00000000 	andeq	r0, r0, r0
8780da60:	00200000 	eoreq	r0, r0, r0
8780da64:	00200040 	eoreq	r0, r0, r0, asr #32
8780da68:	00000000 	andeq	r0, r0, r0
8780da6c:	10001000 	andne	r1, r0, r0
8780da70:	10001000 	andne	r1, r0, r0
8780da74:	10001000 	andne	r1, r0, r0
8780da78:	00000000 	andeq	r0, r0, r0
8780da7c:	00000040 	andeq	r0, r0, r0, asr #32
8780da80:	00000000 	andeq	r0, r0, r0
8780da84:	80020000 	andhi	r0, r2, r0
8780da88:	40054005 	andmi	r4, r5, r5
8780da8c:	4000c003 	andmi	ip, r0, r3
8780da90:	c03f0020 	eorsgt	r0, pc, r0, lsr #32
8780da94:	40044004 	andmi	r4, r4, r4
8780da98:	00008003 	andeq	r8, r0, r3
8780da9c:	80030000 	andhi	r0, r3, r0
8780daa0:	40044004 	andmi	r4, r4, r4
8780daa4:	00004006 	andeq	r4, r0, r6
8780daa8:	80030000 	andhi	r0, r3, r0
8780daac:	40244004 	eormi	r4, r4, r4
8780dab0:	4000c03f 	andmi	ip, r0, pc, lsr r0
8780dab4:	80030000 	andhi	r0, r3, r0
8780dab8:	40054005 	andmi	r4, r5, r5
8780dabc:	00004003 	andeq	r4, r0, r3
8780dac0:	40040000 	andmi	r0, r4, r0
8780dac4:	4024c01f 	eormi	ip, r4, pc, lsl r0
8780dac8:	00204024 	eoreq	r4, r0, r4, lsr #32
8780dacc:	e0020000 	and	r0, r2, r0
8780dad0:	50055005 	andpl	r5, r5, r5
8780dad4:	20045006 	andcs	r5, r4, r6
8780dad8:	c03f4020 	eorsgt	r4, pc, r0, lsr #32
8780dadc:	00044004 	andeq	r4, r4, r4
8780dae0:	4000c003 	andmi	ip, r0, r3
8780dae4:	40040000 	andmi	r0, r4, r0
8780dae8:	4000c027 	andmi	ip, r0, r7, lsr #32
8780daec:	00000000 	andeq	r0, r0, r0
8780daf0:	10001000 	andne	r1, r0, r0
8780daf4:	e0271004 	eor	r1, r7, r4
8780daf8:	00000000 	andeq	r0, r0, r0
8780dafc:	c03f4020 	eorsgt	r4, pc, r0, lsr #32
8780db00:	00074001 	andeq	r4, r7, r1
8780db04:	4004c004 	andmi	ip, r4, r4
8780db08:	40204020 	eormi	r4, r0, r0, lsr #32
8780db0c:	4000c03f 	andmi	ip, r0, pc, lsr r0
8780db10:	00004000 	andeq	r4, r0, r0
8780db14:	0004c007 	andeq	ip, r4, r7
8780db18:	0004c007 	andeq	ip, r4, r7
8780db1c:	0000c003 	andeq	ip, r0, r3
8780db20:	c0074004 	andgt	r4, r7, r4
8780db24:	00044004 	andeq	r4, r4, r4
8780db28:	4000c003 	andmi	ip, r0, r3
8780db2c:	80030000 	andhi	r0, r3, r0
8780db30:	40044004 	andmi	r4, r4, r4
8780db34:	00008003 	andeq	r8, r0, r3
8780db38:	f0071004 			; <UNDEFINED> instruction: 0xf0071004
8780db3c:	40045004 	andmi	r5, r4, r4
8780db40:	00008003 	andeq	r8, r0, r3
8780db44:	80030000 	andhi	r0, r3, r0
8780db48:	50044004 	andpl	r4, r4, r4
8780db4c:	1000f007 	andne	pc, r0, r7
8780db50:	c0074004 	andgt	r4, r7, r4
8780db54:	00044002 	andeq	r4, r4, r2
8780db58:	00000004 	andeq	r0, r0, r4
8780db5c:	40060000 	andmi	r0, r6, r0
8780db60:	40054005 	andmi	r4, r5, r5
8780db64:	0000c004 	andeq	ip, r0, r4
8780db68:	00040000 	andeq	r0, r4, r0
8780db6c:	4004801f 	andmi	r8, r4, pc, lsl r0
8780db70:	00004000 	andeq	r4, r0, r0
8780db74:	80070004 	andhi	r0, r7, r4
8780db78:	40044000 	andmi	r4, r4, r0
8780db7c:	4000c007 	andmi	ip, r0, r7
8780db80:	00070004 	andeq	r0, r7, r4
8780db84:	8001c004 	andhi	ip, r1, r4
8780db88:	00040006 	andeq	r0, r4, r6
8780db8c:	c0010006 	andgt	r0, r1, r6
8780db90:	c0010007 	andgt	r0, r1, r7
8780db94:	00000006 	andeq	r0, r0, r6
8780db98:	c0064004 	andgt	r4, r6, r4
8780db9c:	c0060001 	andgt	r0, r6, r1
8780dba0:	00004004 	andeq	r4, r0, r4
8780dba4:	10071004 	andne	r1, r7, r4
8780dba8:	8001e004 	andhi	lr, r1, r4
8780dbac:	00040006 	andeq	r0, r4, r6
8780dbb0:	40040000 	andmi	r0, r4, r0
8780dbb4:	4006c005 	andmi	ip, r6, r5
8780dbb8:	00004004 	andeq	r4, r0, r4
8780dbbc:	00000000 	andeq	r0, r0, r0
8780dbc0:	e07b0004 	rsbs	r0, fp, r4
8780dbc4:	00002040 	andeq	r2, r0, r0, asr #32
8780dbc8:	00000000 	andeq	r0, r0, r0
8780dbcc:	f0ff0000 			; <UNDEFINED> instruction: 0xf0ff0000
8780dbd0:	00000000 	andeq	r0, r0, r0
8780dbd4:	20400000 	subcs	r0, r0, r0
8780dbd8:	0004e07b 	andeq	lr, r4, fp, ror r0
8780dbdc:	00000000 	andeq	r0, r0, r0
8780dbe0:	00800040 	addeq	r0, r0, r0, asr #32
8780dbe4:	00200040 	eoreq	r0, r0, r0, asr #32
8780dbe8:	00400020 	subeq	r0, r0, r0, lsr #32

8780dbec <.LANCHOR0>:
8780dbec:	33323130 	teqcc	r2, #48, 2
8780dbf0:	37363534 			; <UNDEFINED> instruction: 0x37363534
8780dbf4:	42413938 	submi	r3, r1, #56, 18	; 0xe0000
8780dbf8:	46454443 	strbmi	r4, [r5], -r3, asr #8

8780dbfc <.LANCHOR0>:
8780dbfc:	020e00b4 	andeq	r0, lr, #180	; 0xb4
8780dc00:	00000002 	andeq	r0, r0, r2
8780dc04:	020e05a4 	andeq	r0, lr, #164, 10	; 0x29000000
8780dc08:	00000001 	andeq	r0, r0, r1
8780dc0c:	020e0340 	andeq	r0, lr, #64, 6
8780dc10:	020e00b8 	andeq	r0, lr, #184	; 0xb8
8780dc14:	00000002 	andeq	r0, r0, r2
8780dc18:	020e05a8 	andeq	r0, lr, #168, 10	; 0x2a000000
8780dc1c:	00000002 	andeq	r0, r0, r2
8780dc20:	020e0344 	andeq	r0, lr, #68, 6	; 0x10000001

8780dc24 <.LANCHOR1>:
8780dc24:	020e0098 	andeq	r0, lr, #152	; 0x98
8780dc28:	00000008 	andeq	r0, r0, r8
8780dc2c:	020e0554 	andeq	r0, lr, #84, 10	; 0x15000000
8780dc30:	00000000 	andeq	r0, r0, r0
8780dc34:	020e0324 	andeq	r0, lr, #36, 6	; 0x90000000
8780dc38:	020e009c 	andeq	r0, lr, #156	; 0x9c
8780dc3c:	00000008 	andeq	r0, r0, r8
8780dc40:	020e055c 	andeq	r0, lr, #92, 10	; 0x17000000
8780dc44:	00000000 	andeq	r0, r0, r0
8780dc48:	020e0328 	andeq	r0, lr, #40, 6	; 0xa0000000
8780dc4c:	020e00a0 	andeq	r0, lr, #160	; 0xa0
8780dc50:	00000008 	andeq	r0, r0, r8
8780dc54:	020e0558 	andeq	r0, lr, #88, 10	; 0x16000000
8780dc58:	00000000 	andeq	r0, r0, r0
8780dc5c:	020e032c 	andeq	r0, lr, #44, 6	; 0xb0000000
8780dc60:	020e0094 	andeq	r0, lr, #148	; 0x94
8780dc64:	00000005 	andeq	r0, r0, r5
	...
8780dc70:	020e0320 	andeq	r0, lr, #32, 6	; 0x80000000
8780dc74:	326d6369 	rsbcc	r6, sp, #-1543503871	; 0xa4000001
8780dc78:	38303630 	ldmdacc	r0!, {r4, r5, r9, sl, ip, sp}
8780dc7c:	20646920 	rsbcs	r6, r4, r0, lsr #18
8780dc80:	2325203d 	teqcs	r5, #61	; 0x3d
8780dc84:	000a0d58 	andeq	r0, sl, r8, asr sp
8780dc88:	326d6369 	rsbcc	r6, sp, #-1543503871	; 0xa4000001
8780dc8c:	38303630 	ldmdacc	r0!, {r4, r5, r9, sl, ip, sp}
8780dc90:	73657220 	cmnvc	r5, #32, 4
8780dc94:	65207465 	strvs	r7, [r0, #-1125]!	; 0x465
8780dc98:	726f7272 	rsbvc	r7, pc, #536870919	; 0x20000007
8780dc9c:	000a0d2e 	andeq	r0, sl, lr, lsr #26

8780dca0 <.LANCHOR0>:
8780dca0:	020e0110 	andeq	r0, lr, #16, 2
8780dca4:	00000005 	andeq	r0, r0, r5
	...
8780dcb0:	020e039c 	andeq	r0, lr, #156, 6	; 0x70000002
8780dcb4:	020e0134 	andeq	r0, lr, #52, 2
8780dcb8:	00000005 	andeq	r0, r0, r5
	...
8780dcc4:	020e03c0 	andeq	r0, lr, #192, 6
8780dcc8:	020e0154 	andeq	r0, lr, #84, 2
8780dccc:	00000005 	andeq	r0, r0, r5
	...
8780dcd8:	020e03e0 	andeq	r0, lr, #224, 6	; 0x80000003
8780dcdc:	020e0174 	andeq	r0, lr, #116, 2
8780dce0:	00000005 	andeq	r0, r0, r5
	...
8780dcec:	020e0400 	andeq	r0, lr, #0, 8
8780dcf0:	020e0118 	andeq	r0, lr, #24, 2
	...
8780dd00:	020e03a4 	andeq	r0, lr, #164, 6	; 0x90000002
8780dd04:	020e011c 	andeq	r0, lr, #28, 2
	...
8780dd14:	020e03a8 	andeq	r0, lr, #168, 6	; 0xa0000002
8780dd18:	020e0120 	andeq	r0, lr, #32, 2
	...
8780dd28:	020e03ac 	andeq	r0, lr, #172, 6	; 0xb0000002
8780dd2c:	020e0124 	andeq	r0, lr, #36, 2
	...
8780dd3c:	020e03b0 	andeq	r0, lr, #176, 6	; 0xc0000002
8780dd40:	020e0128 	andeq	r0, lr, #40, 2
	...
8780dd50:	020e03b4 	andeq	r0, lr, #180, 6	; 0xd0000002
8780dd54:	020e012c 	andeq	r0, lr, #44, 2
	...
8780dd64:	020e03b8 	andeq	r0, lr, #184, 6	; 0xe0000002
8780dd68:	020e0130 	andeq	r0, lr, #48, 2
	...
8780dd78:	020e03bc 	andeq	r0, lr, #188, 6	; 0xf0000002
8780dd7c:	020e0134 	andeq	r0, lr, #52, 2
	...
8780dd8c:	020e03c0 	andeq	r0, lr, #192, 6
8780dd90:	020e0138 	andeq	r0, lr, #56, 2
	...
8780dda0:	020e03c4 	andeq	r0, lr, #196, 6	; 0x10000003
8780dda4:	020e013c 	andeq	r0, lr, #60, 2
	...
8780ddb4:	020e03c8 	andeq	r0, lr, #200, 6	; 0x20000003
8780ddb8:	020e0140 	andeq	r0, lr, #64, 2
	...
8780ddc8:	020e03cc 	andeq	r0, lr, #204, 6	; 0x30000003
8780ddcc:	020e0144 	andeq	r0, lr, #68, 2
	...
8780dddc:	020e03d0 	andeq	r0, lr, #208, 6	; 0x40000003
8780dde0:	020e0148 	andeq	r0, lr, #72, 2
	...
8780ddf0:	020e03d4 	andeq	r0, lr, #212, 6	; 0x50000003
8780ddf4:	020e014c 	andeq	r0, lr, #76, 2
	...
8780de04:	020e03d8 	andeq	r0, lr, #216, 6	; 0x60000003
8780de08:	020e0150 	andeq	r0, lr, #80, 2
	...
8780de18:	020e03dc 	andeq	r0, lr, #220, 6	; 0x70000003
8780de1c:	020e0154 	andeq	r0, lr, #84, 2
	...
8780de2c:	020e03e0 	andeq	r0, lr, #224, 6	; 0x80000003
8780de30:	020e0158 	andeq	r0, lr, #88, 2
	...
8780de40:	020e03e4 	andeq	r0, lr, #228, 6	; 0x90000003
8780de44:	020e015c 	andeq	r0, lr, #92, 2
	...
8780de54:	020e03e8 	andeq	r0, lr, #232, 6	; 0xa0000003
8780de58:	020e0160 	andeq	r0, lr, #96, 2
	...
8780de68:	020e03ec 	andeq	r0, lr, #236, 6	; 0xb0000003
8780de6c:	020e0164 	andeq	r0, lr, #100, 2
	...
8780de7c:	020e03f0 	andeq	r0, lr, #240, 6	; 0xc0000003
8780de80:	020e0168 	andeq	r0, lr, #104, 2
	...
8780de90:	020e03f4 	andeq	r0, lr, #244, 6	; 0xd0000003
8780de94:	020e016c 	andeq	r0, lr, #108, 2
	...
8780dea4:	020e03f8 	andeq	r0, lr, #248, 6	; 0xe0000003
8780dea8:	020e0170 	andeq	r0, lr, #112, 2
	...
8780deb8:	020e03fc 	andeq	r0, lr, #252, 6	; 0xf0000003
8780debc:	020e0174 	andeq	r0, lr, #116, 2
	...
8780decc:	020e0400 	andeq	r0, lr, #0, 8
8780ded0:	020e0104 	andeq	r0, lr, #4, 2
	...
8780dee0:	020e0390 	andeq	r0, lr, #144, 6	; 0x40000002
8780dee4:	020e0108 	andeq	r0, lr, #8, 2
	...
8780def4:	020e0394 	andeq	r0, lr, #148, 6	; 0x50000002
8780def8:	020e010c 	andeq	r0, lr, #12, 2
8780defc:	00000000 	andeq	r0, r0, r0
8780df00:	020e05dc 	andeq	r0, lr, #220, 10	; 0x37000000
8780df04:	00000000 	andeq	r0, r0, r0
8780df08:	020e0398 	andeq	r0, lr, #152, 6	; 0x60000002
8780df0c:	020e0110 	andeq	r0, lr, #16, 2
	...
8780df1c:	020e039c 	andeq	r0, lr, #156, 6	; 0x70000002
8780df20:	020e008c 	andeq	r0, lr, #140	; 0x8c
8780df24:	00000005 	andeq	r0, r0, r5
	...
8780df30:	020e0318 	andeq	r0, lr, #24, 6	; 0x60000000
8780df34:	2044434c 	subcs	r4, r4, ip, asr #6
8780df38:	253d4449 	ldrcs	r4, [sp, #-1097]!	; 0x449
8780df3c:	0a0d5823 	beq	87b63fd0 <__bss_end+0x354c88>
8780df40:	00000000 	andeq	r0, r0, r0

8780df44 <.LANCHOR0>:
8780df44:	020e00bc 	andeq	r0, lr, #188	; 0xbc
8780df48:	00000002 	andeq	r0, r0, r2
8780df4c:	020e05ac 	andeq	r0, lr, #172, 10	; 0x2b000000
8780df50:	00000002 	andeq	r0, r0, r2
8780df54:	020e0348 	andeq	r0, lr, #72, 6	; 0x20000001
8780df58:	020e00c0 	andeq	r0, lr, #192	; 0xc0
8780df5c:	00000002 	andeq	r0, r0, r2
8780df60:	020e05b0 	andeq	r0, lr, #176, 10	; 0x2c000000
8780df64:	00000002 	andeq	r0, r0, r2
8780df68:	020e034c 	andeq	r0, lr, #76, 6	; 0x30000001
8780df6c:	020e0080 	andeq	r0, lr, #128	; 0x80
8780df70:	00000005 	andeq	r0, r0, r5
	...
8780df7c:	020e030c 	andeq	r0, lr, #12, 6	; 0x30000000
8780df80:	0229002c 	eoreq	r0, r9, #44	; 0x2c
8780df84:	00000005 	andeq	r0, r0, r5
	...
8780df90:	02290070 	eoreq	r0, r9, #112	; 0x70
8780df94:	63756f54 	cmnvs	r5, #84, 30	; 0x150
8780df98:	72462068 	subvc	r2, r6, #104	; 0x68
8780df9c:	61776d69 	cmnvs	r7, r9, ror #26
8780dfa0:	56206572 			; <UNDEFINED> instruction: 0x56206572
8780dfa4:	69737265 	ldmdbvs	r3!, {r0, r2, r5, r6, r9, ip, sp, lr}^
8780dfa8:	253a6e6f 	ldrcs	r6, [sl, #-3695]!	; 0xe6f
8780dfac:	0a0d5823 	beq	87b64040 <__bss_end+0x354cf8>
8780dfb0:	00000000 	andeq	r0, r0, r0

8780dfb4 <.LANCHOR0>:
8780dfb4:	020e00bc 	andeq	r0, lr, #188	; 0xbc
8780dfb8:	00000002 	andeq	r0, r0, r2
8780dfbc:	020e05ac 	andeq	r0, lr, #172, 10	; 0x2b000000
8780dfc0:	00000002 	andeq	r0, r0, r2
8780dfc4:	020e0348 	andeq	r0, lr, #72, 6	; 0x20000001
8780dfc8:	020e00c0 	andeq	r0, lr, #192	; 0xc0
8780dfcc:	00000002 	andeq	r0, r0, r2
8780dfd0:	020e05b0 	andeq	r0, lr, #176, 10	; 0x2c000000
8780dfd4:	00000002 	andeq	r0, r0, r2
8780dfd8:	020e034c 	andeq	r0, lr, #76, 6	; 0x30000001
8780dfdc:	020e0080 	andeq	r0, lr, #128	; 0x80
8780dfe0:	00000005 	andeq	r0, r0, r5
	...
8780dfec:	020e030c 	andeq	r0, lr, #12, 6	; 0x30000000
8780dff0:	0229002c 	eoreq	r0, r9, #44	; 0x2c
8780dff4:	00000005 	andeq	r0, r0, r5
	...
8780e000:	02290070 	eoreq	r0, r9, #112	; 0x70

8780e004 <GT9147_TPX_TBL>:
8780e004:	81588150 	cmphi	r8, r0, asr r1
8780e008:	81688160 	cmnhi	r8, r0, ror #2
8780e00c:	00008170 	andeq	r8, r0, r0, ror r1
8780e010:	20505443 	subscs	r5, r0, r3, asr #8
8780e014:	253a4449 	ldrcs	r4, [sl, #-1097]!	; 0x449
8780e018:	000a0d73 	andeq	r0, sl, r3, ror sp
8780e01c:	61666544 	cmnvs	r6, r4, asr #10
8780e020:	20746c75 	rsbscs	r6, r4, r5, ror ip
8780e024:	3a726556 	bcc	894a7584 <__bss_end+0x1c9823c>
8780e028:	0d782325 	ldcleq	3, cr2, [r8, #-148]!	; 0xffffff6c
8780e02c:	0000000a 	andeq	r0, r0, sl
8780e030:	0d787839 	ldcleq	8, cr7, [r8, #-228]!	; 0xffffff1c
8780e034:	0000000a 	andeq	r0, r0, sl
8780e038:	65746e49 	ldrbvs	r6, [r4, #-3657]!	; 0xe49
8780e03c:	70757272 	rsbsvc	r7, r5, r2, ror r2
8780e040:	646f4d74 	strbtvs	r4, [pc], #-3444	; 8780e048 <GT9147_TPX_TBL+0x44>
8780e044:	6e493a65 	vmlsvs.f32	s7, s18, s11
8780e048:	73695274 	cmnvc	r9, #116, 4	; 0x40000007
8780e04c:	45676e69 	strbmi	r6, [r7, #-3689]!	; 0xe69
8780e050:	0d656764 	stcleq	7, cr6, [r5, #-400]!	; 0xfffffe70
8780e054:	0000000a 	andeq	r0, r0, sl
8780e058:	65746e49 	ldrbvs	r6, [r4, #-3657]!	; 0xe49
8780e05c:	70757272 	rsbsvc	r7, r5, r2, ror r2
8780e060:	646f4d74 	strbtvs	r4, [pc], #-3444	; 8780e068 <GT9147_TPX_TBL+0x64>
8780e064:	6e493a65 	vmlsvs.f32	s7, s18, s11
8780e068:	6c614674 	stclvs	6, cr4, [r1], #-464	; 0xfffffe30
8780e06c:	676e696c 	strbvs	r6, [lr, -ip, ror #18]!
8780e070:	65676445 	strbvs	r6, [r7, #-1093]!	; 0x445
8780e074:	00000a0d 	andeq	r0, r0, sp, lsl #20
8780e078:	65746e49 	ldrbvs	r6, [r4, #-3657]!	; 0xe49
8780e07c:	70757272 	rsbsvc	r7, r5, r2, ror r2
8780e080:	646f4d74 	strbtvs	r4, [pc], #-3444	; 8780e088 <GT9147_TPX_TBL+0x84>
8780e084:	6e493a65 	vmlsvs.f32	s7, s18, s11
8780e088:	776f4c74 			; <UNDEFINED> instruction: 0x776f4c74
8780e08c:	6576654c 	ldrbvs	r6, [r6, #-1356]!	; 0x54c
8780e090:	000a0d6c 	andeq	r0, sl, ip, ror #26
8780e094:	65746e49 	ldrbvs	r6, [r4, #-3657]!	; 0xe49
8780e098:	70757272 	rsbsvc	r7, r5, r2, ror r2
8780e09c:	646f4d74 	strbtvs	r4, [pc], #-3444	; 8780e0a4 <GT9147_TPX_TBL+0xa0>
8780e0a0:	6e493a65 	vmlsvs.f32	s7, s18, s11
8780e0a4:	67694874 			; <UNDEFINED> instruction: 0x67694874
8780e0a8:	76654c68 	strbtvc	r4, [r5], -r8, ror #24
8780e0ac:	0a0d6c65 	beq	87b69248 <__bss_end+0x359f00>
8780e0b0:	00000000 	andeq	r0, r0, r0
8780e0b4:	65746e49 	ldrbvs	r6, [r4, #-3657]!	; 0xe49
8780e0b8:	70757272 	rsbsvc	r7, r5, r2, ror r2
8780e0bc:	646f4d74 	strbtvs	r4, [pc], #-3444	; 8780e0c4 <GT9147_TPX_TBL+0xc0>
8780e0c0:	45203a65 	strmi	r3, [r0, #-2661]!	; 0xa65
8780e0c4:	726f7272 	rsbvc	r7, pc, #536870919	; 0x20000007
8780e0c8:	00000a0d 	andeq	r0, r0, sp, lsl #20
8780e0cc:	6f727245 	svcvs	0x00727245
8780e0d0:	000a0d72 	andeq	r0, sl, r2, ror sp

8780e0d4 <s_iicDividerTable>:
8780e0d4:	0020001e 	eoreq	r0, r0, lr, lsl r0
8780e0d8:	002a0024 	eoreq	r0, sl, r4, lsr #32
8780e0dc:	00340030 	eorseq	r0, r4, r0, lsr r0
8780e0e0:	0048003c 	subeq	r0, r8, ip, lsr r0
8780e0e4:	00580050 	subseq	r0, r8, r0, asr r0
8780e0e8:	00800068 	addeq	r0, r0, r8, rrx
8780e0ec:	00a00090 	umlaleq	r0, r0, r0, r0	; <UNPREDICTABLE>
8780e0f0:	00f000c0 	rscseq	r0, r0, r0, asr #1
8780e0f4:	01400120 	cmpeq	r0, r0, lsr #2
8780e0f8:	01e00180 	mvneq	r0, r0, lsl #3
8780e0fc:	02800240 	addeq	r0, r0, #64, 4
8780e100:	03c00300 	biceq	r0, r0, #0, 6
8780e104:	05000480 	streq	r0, [r0, #-1152]	; 0x480
8780e108:	07800600 	streq	r0, [r0, r0, lsl #12]
8780e10c:	0a000900 	beq	87810514 <__bss_end+0x11cc>
8780e110:	0f000c00 	svceq	0x00000c00
8780e114:	00180016 	andseq	r0, r8, r6, lsl r0
8780e118:	001c001a 	andseq	r0, ip, sl, lsl r0
8780e11c:	00240020 	eoreq	r0, r4, r0, lsr #32
8780e120:	002c0028 	eoreq	r0, ip, r8, lsr #32
8780e124:	00380030 	eorseq	r0, r8, r0, lsr r0
8780e128:	00480040 	subeq	r0, r8, r0, asr #32
8780e12c:	00600050 	rsbeq	r0, r0, r0, asr r0
8780e130:	00800070 	addeq	r0, r0, r0, ror r0
8780e134:	00c000a0 	sbceq	r0, r0, r0, lsr #1
8780e138:	010000e0 	smlatteq	r0, r0, r0, r0
8780e13c:	01800140 	orreq	r0, r0, r0, asr #2
8780e140:	020001c0 	andeq	r0, r0, #192, 2	; 0x30
8780e144:	03000280 	movweq	r0, #640	; 0x280
8780e148:	04000380 	streq	r0, [r0], #-896	; 0x380
8780e14c:	06000500 	streq	r0, [r0], -r0, lsl #10
8780e150:	08000700 	stmdaeq	r0, {r8, r9, sl}

8780e154 <.LANCHOR0>:
8780e154:	00000000 	andeq	r0, r0, r0
8780e158:	003b001f 	eorseq	r0, fp, pc, lsl r0
8780e15c:	0078005a 	rsbseq	r0, r8, sl, asr r0
8780e160:	00b50097 	umlalseq	r0, r5, r7, r0
8780e164:	00f300d4 	ldrsbteq	r0, [r3], #4
8780e168:	01300111 	teqeq	r0, r1, lsl r1
8780e16c:	0000014e 	andeq	r0, r0, lr, asr #2
8780e170:	1f1c1f00 	svcne	0x001c1f00
8780e174:	1f1e1f1e 	svcne	0x001e1f1e
8780e178:	1e1f1e1f 	mrcne	14, 0, r1, cr15, cr15, {0}
8780e17c:	0000001f 	andeq	r0, r0, pc, lsl r0

8780e180 <.LANCHOR0>:
8780e180:	020e0084 	andeq	r0, lr, #132	; 0x84
	...
8780e190:	020e0310 	andeq	r0, lr, #16, 6	; 0x40000000
8780e194:	020e0088 	andeq	r0, lr, #136	; 0x88
8780e198:	00000000 	andeq	r0, r0, r0
8780e19c:	020e0624 	andeq	r0, lr, #36, 12	; 0x2400000
8780e1a0:	00000003 	andeq	r0, r0, r3
8780e1a4:	020e0314 	andeq	r0, lr, #20, 6	; 0x50000000
8780e1a8:	020e0094 	andeq	r0, lr, #148	; 0x94
	...
8780e1b8:	020e0320 	andeq	r0, lr, #32, 6	; 0x80000000
8780e1bc:	020e0098 	andeq	r0, lr, #152	; 0x98
8780e1c0:	00000000 	andeq	r0, r0, r0
8780e1c4:	020e062c 	andeq	r0, lr, #44, 12	; 0x2c00000
8780e1c8:	00000001 	andeq	r0, r0, r1
8780e1cc:	020e0324 	andeq	r0, lr, #36, 6	; 0x90000000
8780e1d0:	020e00a4 	andeq	r0, lr, #164	; 0xa4
	...
8780e1e0:	020e0330 	andeq	r0, lr, #48, 6	; 0xc0000000
8780e1e4:	020e00a8 	andeq	r0, lr, #168	; 0xa8
8780e1e8:	00000000 	andeq	r0, r0, r0
8780e1ec:	020e0634 	andeq	r0, lr, #52, 12	; 0x3400000
8780e1f0:	00000001 	andeq	r0, r0, r1
8780e1f4:	020e0334 	andeq	r0, lr, #52, 6	; 0xd0000000
8780e1f8:	020e00b4 	andeq	r0, lr, #180	; 0xb4
	...
8780e208:	020e0340 	andeq	r0, lr, #64, 6
8780e20c:	020e00b8 	andeq	r0, lr, #184	; 0xb8
8780e210:	00000000 	andeq	r0, r0, r0
8780e214:	020e063c 	andeq	r0, lr, #60, 12	; 0x3c00000
8780e218:	00000001 	andeq	r0, r0, r1
8780e21c:	020e0344 	andeq	r0, lr, #68, 6	; 0x10000001
8780e220:	020e00bc 	andeq	r0, lr, #188	; 0xbc
	...
8780e230:	020e0348 	andeq	r0, lr, #72, 6	; 0x20000001
8780e234:	020e00c0 	andeq	r0, lr, #192	; 0xc0
8780e238:	00000000 	andeq	r0, r0, r0
8780e23c:	020e0644 	andeq	r0, lr, #68, 12	; 0x4400000
8780e240:	00000007 	andeq	r0, r0, r7
8780e244:	020e034c 	andeq	r0, lr, #76, 6	; 0x30000001

8780e248 <.LANCHOR0>:
8780e248:	017d7840 	cmneq	sp, r0, asr #16
8780e24c:	02faf080 	rscseq	pc, sl, #128	; 0x80
8780e250:	05f5e100 	ldrbeq	lr, [r5, #256]!	; 0x100
8780e254:	07735940 	ldrbeq	r5, [r3, -r0, asr #18]!

8780e258 <s_gpioBases>:
8780e258:	00000000 	andeq	r0, r0, r0
8780e25c:	0209c000 	andeq	ip, r9, #0
8780e260:	020a0000 	andeq	r0, sl, #0
8780e264:	020a4000 	andeq	r4, sl, #0
8780e268:	020a8000 	andeq	r8, sl, #0
8780e26c:	020ac000 	andeq	ip, sl, #0

8780e270 <s_gpioClock>:
8780e270:	ffffffff 			; <UNDEFINED> instruction: 0xffffffff
8780e274:	0000010d 	andeq	r0, r0, sp, lsl #2
8780e278:	0000000f 	andeq	r0, r0, pc
8780e27c:	0000020d 	andeq	r0, r0, sp, lsl #4
8780e280:	00000306 	andeq	r0, r0, r6, lsl #6
8780e284:	0000010f 	andeq	r0, r0, pc, lsl #2

8780e288 <s_uartBases>:
8780e288:	00000000 	andeq	r0, r0, r0
8780e28c:	02020000 	andeq	r0, r2, #0
8780e290:	021e8000 	andseq	r8, lr, #0
8780e294:	021ec000 	andseq	ip, lr, #0
8780e298:	021f0000 	andseq	r0, pc, #0
8780e29c:	021f4000 	andseq	r4, pc, #0
8780e2a0:	021fc000 	andseq	ip, pc, #0
8780e2a4:	02018000 	andeq	r8, r1, #0
8780e2a8:	02288000 	eoreq	r8, r8, #0

8780e2ac <s_uartClock>:
8780e2ac:	ffffffff 			; <UNDEFINED> instruction: 0xffffffff
8780e2b0:	0000050c 	andeq	r0, r0, ip, lsl #10
8780e2b4:	0000000e 	andeq	r0, r0, lr
8780e2b8:	00000105 	andeq	r0, r0, r5, lsl #2
8780e2bc:	0000010c 	andeq	r0, r0, ip, lsl #2
8780e2c0:	00000301 	andeq	r0, r0, r1, lsl #6
8780e2c4:	00000303 	andeq	r0, r0, r3, lsl #6
8780e2c8:	0000050d 	andeq	r0, r0, sp, lsl #10
8780e2cc:	00000607 	andeq	r0, r0, r7, lsl #12

8780e2d0 <CSWTCH.48>:
8780e2d0:	00000004 	andeq	r0, r0, r4
8780e2d4:	00000003 	andeq	r0, r0, r3
8780e2d8:	00000002 	andeq	r0, r0, r2
8780e2dc:	00000001 	andeq	r0, r0, r1
8780e2e0:	00000000 	andeq	r0, r0, r0
8780e2e4:	00000006 	andeq	r0, r0, r6

8780e2e8 <s_uartIRQ>:
8780e2e8:	ffffff80 			; <UNDEFINED> instruction: 0xffffff80
8780e2ec:	0000003a 	andeq	r0, r0, sl, lsr r0
8780e2f0:	0000003b 	andeq	r0, r0, fp, lsr r0
8780e2f4:	0000003c 	andeq	r0, r0, ip, lsr r0
8780e2f8:	0000003d 	andeq	r0, r0, sp, lsr r0
8780e2fc:	0000003e 	andeq	r0, r0, lr, lsr r0
8780e300:	00000031 	andeq	r0, r0, r1, lsr r0
8780e304:	00000047 	andeq	r0, r0, r7, asr #32
8780e308:	00000048 	andeq	r0, r0, r8, asr #32

8780e30c <digits.10166>:
8780e30c:	33323130 	teqcc	r2, #48, 2
8780e310:	37363534 			; <UNDEFINED> instruction: 0x37363534
8780e314:	42413938 	submi	r3, r1, #56, 18	; 0xe0000
8780e318:	46454443 	strbmi	r4, [r5], -r3, asr #8
8780e31c:	4c554e3c 	mrrcmi	14, 3, r4, r5, cr12
8780e320:	00003e4c 	andeq	r3, r0, ip, asr #28

Disassembly of section .ARM.exidx:

8780e324 <.ARM.exidx>:
8780e324:	7fffa460 	svcvc	0x00ffa460
8780e328:	00000001 	andeq	r0, r0, r1

Disassembly of section .data:

8780e32c <tft_lcd_bgcolor>:
8780e32c:	008fbc8f 	addeq	fp, pc, pc, lsl #25

8780e330 <tft_lcd_pencolor>:
8780e330:	008fbc8f 	addeq	fp, pc, pc, lsl #25

8780e334 <tft_lcd_display_font>:
8780e334:	00000018 	andeq	r0, r0, r8, lsl r0

8780e338 <GT9147_CFG_TBL>:
8780e338:	1001e041 	andne	lr, r1, r1, asr #32
8780e33c:	000d0501 	andeq	r0, sp, r1, lsl #10
8780e340:	05280801 	streq	r0, [r8, #-2049]!	; 0x801
8780e344:	05033250 	streq	r3, [r3, #-592]	; 0x250
8780e348:	ffff0000 			; <UNDEFINED> instruction: 0xffff0000
8780e34c:	00000000 	andeq	r0, r0, r0
8780e350:	89000000 	stmdbhi	r0, {}	; <UNPREDICTABLE>
8780e354:	15170a28 	ldrne	r0, [r7, #-2600]	; 0xa28
8780e358:	00000d31 	andeq	r0, r0, r1, lsr sp
8780e35c:	25039b02 	strcs	r9, [r3, #-2818]	; 0xb02
8780e360:	00000000 	andeq	r0, r0, r0
8780e364:	32000000 	andcc	r0, r0, #0
8780e368:	0f000000 	svceq	0x00000000
8780e36c:	02c59494 	sbceq	r9, r5, #148, 8	; 0x94000000
8780e370:	04000007 	streq	r0, [r0], #-7
8780e374:	5c00138d 	stcpl	3, cr1, [r0], {141}	; 0x8d
8780e378:	303c001e 	eorscc	r0, ip, lr, lsl r0
8780e37c:	004c2900 	subeq	r2, ip, r0, lsl #18
8780e380:	1e00781e 	mcrne	8, 0, r7, cr0, cr14, {0}
	...
8780e3a8:	0e0c0a08 	vmlaeq.f32	s0, s24, s16
8780e3ac:	16141210 			; <UNDEFINED> instruction: 0x16141210
8780e3b0:	00001a18 	andeq	r1, r0, r8, lsl sl
8780e3b4:	ff1f0000 			; <UNDEFINED> instruction: 0xff1f0000
8780e3b8:	ffffffff 			; <UNDEFINED> instruction: 0xffffffff
8780e3bc:	ffffffff 			; <UNDEFINED> instruction: 0xffffffff
8780e3c0:	ffffffff 			; <UNDEFINED> instruction: 0xffffffff
8780e3c4:	0200ffff 	andeq	pc, r0, #1020	; 0x3fc
8780e3c8:	08060504 	stmdaeq	r6, {r2, r8, sl}
8780e3cc:	1d0e0c0a 	stcne	12, cr0, [lr, #-40]	; 0xffffffd8
8780e3d0:	22201f1e 	eorcs	r1, r0, #30, 30	; 0x78
8780e3d4:	ff292824 			; <UNDEFINED> instruction: 0xff292824
	...
8780e3e0:	ffffffff 			; <UNDEFINED> instruction: 0xffffffff
8780e3e4:	ffffffff 			; <UNDEFINED> instruction: 0xffffffff
8780e3e8:	ffffffff 			; <UNDEFINED> instruction: 0xffffffff
8780e3ec:	ffffffff 			; <UNDEFINED> instruction: 0xffffffff

8780e3f0 <SystemCoreClock>:
8780e3f0:	1f78a400 	svcne	0x0078a400

8780e3f4 <_ctype>:
8780e3f4:	08080808 	stmdaeq	r8, {r3, fp}
8780e3f8:	08080808 	stmdaeq	r8, {r3, fp}
8780e3fc:	28282808 	stmdacs	r8!, {r3, fp, sp}
8780e400:	08082828 	stmdaeq	r8, {r3, r5, fp, sp}
8780e404:	08080808 	stmdaeq	r8, {r3, fp}
8780e408:	08080808 	stmdaeq	r8, {r3, fp}
8780e40c:	08080808 	stmdaeq	r8, {r3, fp}
8780e410:	08080808 	stmdaeq	r8, {r3, fp}
8780e414:	101010a0 	andsne	r1, r0, r0, lsr #1
8780e418:	10101010 	andsne	r1, r0, r0, lsl r0
8780e41c:	10101010 	andsne	r1, r0, r0, lsl r0
8780e420:	10101010 	andsne	r1, r0, r0, lsl r0
8780e424:	04040404 	streq	r0, [r4], #-1028	; 0x404
8780e428:	04040404 	streq	r0, [r4], #-1028	; 0x404
8780e42c:	10100404 	andsne	r0, r0, r4, lsl #8
8780e430:	10101010 	andsne	r1, r0, r0, lsl r0
8780e434:	41414110 	cmpmi	r1, r0, lsl r1
8780e438:	01414141 	cmpeq	r1, r1, asr #2
8780e43c:	01010101 	tsteq	r1, r1, lsl #2
8780e440:	01010101 	tsteq	r1, r1, lsl #2
8780e444:	01010101 	tsteq	r1, r1, lsl #2
8780e448:	01010101 	tsteq	r1, r1, lsl #2
8780e44c:	10010101 	andne	r0, r1, r1, lsl #2
8780e450:	10101010 	andsne	r1, r0, r0, lsl r0
8780e454:	42424210 	submi	r4, r2, #16, 4
8780e458:	02424242 	subeq	r4, r2, #536870916	; 0x20000004
8780e45c:	02020202 	andeq	r0, r2, #536870912	; 0x20000000
8780e460:	02020202 	andeq	r0, r2, #536870912	; 0x20000000
8780e464:	02020202 	andeq	r0, r2, #536870912	; 0x20000000
8780e468:	02020202 	andeq	r0, r2, #536870912	; 0x20000000
8780e46c:	10020202 	andne	r0, r2, r2, lsl #4
8780e470:	08101010 	ldmdaeq	r0, {r4, ip}
	...
8780e494:	101010a0 	andsne	r1, r0, r0, lsr #1
8780e498:	10101010 	andsne	r1, r0, r0, lsl r0
8780e49c:	10101010 	andsne	r1, r0, r0, lsl r0
8780e4a0:	10101010 	andsne	r1, r0, r0, lsl r0
8780e4a4:	10101010 	andsne	r1, r0, r0, lsl r0
8780e4a8:	10101010 	andsne	r1, r0, r0, lsl r0
8780e4ac:	10101010 	andsne	r1, r0, r0, lsl r0
8780e4b0:	10101010 	andsne	r1, r0, r0, lsl r0
8780e4b4:	01010101 	tsteq	r1, r1, lsl #2
8780e4b8:	01010101 	tsteq	r1, r1, lsl #2
8780e4bc:	01010101 	tsteq	r1, r1, lsl #2
8780e4c0:	01010101 	tsteq	r1, r1, lsl #2
8780e4c4:	01010101 	tsteq	r1, r1, lsl #2
8780e4c8:	10010101 	andne	r0, r1, r1, lsl #2
8780e4cc:	01010101 	tsteq	r1, r1, lsl #2
8780e4d0:	02010101 	andeq	r0, r1, #1073741824	; 0x40000000
8780e4d4:	02020202 	andeq	r0, r2, #536870912	; 0x20000000
8780e4d8:	02020202 	andeq	r0, r2, #536870912	; 0x20000000
8780e4dc:	02020202 	andeq	r0, r2, #536870912	; 0x20000000
8780e4e0:	02020202 	andeq	r0, r2, #536870912	; 0x20000000
8780e4e4:	02020202 	andeq	r0, r2, #536870912	; 0x20000000
8780e4e8:	10020202 	andne	r0, r2, r2, lsl #4
8780e4ec:	02020202 	andeq	r0, r2, #536870912	; 0x20000000
8780e4f0:	02020202 	andeq	r0, r2, #536870912	; 0x20000000

Disassembly of section .bss:

8780e4f4 <key_current_status>:
	...

8780e508 <key_last_status>:
	...

8780e51c <icm20608_acc_x>:
	...

8780e51e <icm20608_acc_y>:
	...

8780e520 <icm20608_acc_z>:
	...

8780e522 <icm20608_gyro_x>:
	...

8780e524 <icm20608_gyro_y>:
	...

8780e526 <icm20608_gyro_z>:
	...

8780e528 <key_state>:
8780e528:	00000000 	andeq	r0, r0, r0

8780e52c <key_press_time>:
8780e52c:	00000000 	andeq	r0, r0, r0

8780e530 <scanner_period>:
8780e530:	00000000 	andeq	r0, r0, r0

8780e534 <gt_init_fail>:
8780e534:	00000000 	andeq	r0, r0, r0

8780e538 <s_uartHandle>:
	...

8780e558 <s_uartIsr>:
8780e558:	00000000 	andeq	r0, r0, r0

8780e55c <irqTable>:
	...

8780ea5c <irqNesting>:
8780ea5c:	00000000 	andeq	r0, r0, r0

8780ea60 <g_pcOutBuf>:
	...

8780ee60 <g_pcInBuf>:
	...

8780f260 <gt9147_dev_config>:
	...

8780f278 <rtc_datetime_t>:
	...

8780f280 <ft5426_dev_config>:
	...

8780f298 <icm20608_temp>:
8780f298:	00000000 	andeq	r0, r0, r0

8780f29c <tft_lcd_dev>:
	...

8780f2c0 <ft5426_dev>:
	...

8780f2d8 <gt9147_dev>:
	...

8780f2f0 <pwm_duty_value>:
	...

8780f314 <iomuxc_tx>:
	...

8780f328 <iomuxc_rx>:
	...

8780f33c <g_xtalFreq>:
8780f33c:	00000000 	andeq	r0, r0, r0

8780f340 <g_rtcXtalFreq>:
8780f340:	00000000 	andeq	r0, r0, r0

8780f344 <___strtok>:
8780f344:	00000000 	andeq	r0, r0, r0

Disassembly of section .ARM.attributes:

00000000 <.ARM.attributes>:
   0:	00003241 	andeq	r3, r0, r1, asr #4
   4:	61656100 	cmnvs	r5, r0, lsl #2
   8:	01006962 	tsteq	r0, r2, ror #18
   c:	00000028 	andeq	r0, r0, r8, lsr #32
  10:	412d3705 	teqmi	sp, r5, lsl #14
  14:	070a0600 	streq	r0, [sl, -r0, lsl #12]
  18:	09010841 	stmdbeq	r1, {r0, r6, fp}
  1c:	0c050a02 	stceq	10, cr0, [r5], {2}
  20:	14041202 	strne	r1, [r4], #-514	; 0x202
  24:	17011501 	strne	r1, [r1, -r1, lsl #10]
  28:	1a011803 	bne	4603c <shift+0x4603c>
  2c:	1c031b02 	stcne	11, cr1, [r3], {2}
  30:	地址 0x0000000000000030 越界。


Disassembly of section .comment:

00000000 <.comment>:
   0:	3a434347 	bcc	10d0d24 <shift+0x10d0d24>
   4:	694c2820 	stmdbvs	ip, {r5, fp, sp}^
   8:	6f72616e 	svcvs	0x0072616e
   c:	43434720 	movtmi	r4, #14112	; 0x3720
  10:	392e3420 	stmdbcc	lr!, {r5, sl, ip, sp}
  14:	3130322d 	teqcc	r0, sp, lsr #4
  18:	31302e37 	teqcc	r0, r7, lsr lr
  1c:	2e342029 	cdpcs	0, 3, cr2, cr4, cr9, {1}
  20:	00342e39 	eorseq	r2, r4, r9, lsr lr

Disassembly of section .debug_frame:

00000000 <.debug_frame>:
   0:	0000000c 	andeq	r0, r0, ip
   4:	ffffffff 			; <UNDEFINED> instruction: 0xffffffff
   8:	7c010001 	stcvc	0, cr0, [r1], {1}
   c:	000d0c0e 	andeq	r0, sp, lr, lsl #24
  10:	0000000c 	andeq	r0, r0, ip
  14:	00000000 	andeq	r0, r0, r0
  18:	87808221 	strhi	r8, [r0, r1, lsr #4]
  1c:	0000025c 	andeq	r0, r0, ip, asr r2
  20:	0000000c 	andeq	r0, r0, ip
  24:	ffffffff 			; <UNDEFINED> instruction: 0xffffffff
  28:	7c010001 	stcvc	0, cr0, [r1], {1}
  2c:	000d0c0e 	andeq	r0, sp, lr, lsl #24
  30:	0000000c 	andeq	r0, r0, ip
  34:	00000020 	andeq	r0, r0, r0, lsr #32
  38:	87808499 			; <UNDEFINED> instruction: 0x87808499
  3c:	00000294 	muleq	r0, r4, r2
  40:	0000000c 	andeq	r0, r0, ip
  44:	ffffffff 			; <UNDEFINED> instruction: 0xffffffff
  48:	7c020001 	stcvc	0, cr0, [r2], {1}
  4c:	000d0c0e 	andeq	r0, sp, lr, lsl #24
  50:	00000018 	andeq	r0, r0, r8, lsl r0
  54:	00000040 	andeq	r0, r0, r0, asr #32
  58:	87808748 	strhi	r8, [r0, r8, asr #14]
  5c:	00000030 	andeq	r0, r0, r0, lsr r0
  60:	8e100e50 	mrchi	14, 0, r0, cr0, cr0, {2}
  64:	0ece4703 	cdpeq	7, 12, cr4, cr14, cr3, {0}
  68:	00000010 	andeq	r0, r0, r0, lsl r0
  6c:	0000000c 	andeq	r0, r0, ip
  70:	ffffffff 			; <UNDEFINED> instruction: 0xffffffff
  74:	7c020001 	stcvc	0, cr0, [r2], {1}
  78:	000d0c0e 	andeq	r0, sp, lr, lsl #24
  7c:	00000020 	andeq	r0, r0, r0, lsr #32
  80:	0000006c 	andeq	r0, r0, ip, rrx
  84:	87808784 	strhi	r8, [r0, r4, lsl #15]
  88:	00000116 	andeq	r0, r0, r6, lsl r1
  8c:	841c0e42 	ldrhi	r0, [ip], #-3650	; 0xe42
  90:	86068507 	strhi	r8, [r6], -r7, lsl #10
  94:	88048705 	stmdahi	r4, {r0, r2, r8, r9, sl, pc}
  98:	8e028903 	cdphi	9, 0, cr8, cr2, cr3, {0}
  9c:	00000001 	andeq	r0, r0, r1

Disassembly of section .debug_line:

00000000 <.debug_line>:
   0:	00000100 	andeq	r0, r0, r0, lsl #2
   4:	00c70002 	sbceq	r0, r7, r2
   8:	01020000 	mrseq	r0, (UNDEF: 2)
   c:	000d0efb 	strdeq	r0, [sp], -fp
  10:	01010101 	tsteq	r1, r1, lsl #2
  14:	01000000 	mrseq	r0, (UNDEF: 0)
  18:	2f010000 	svccs	0x00010000
  1c:	656d6f68 	strbvs	r6, [sp, #-3944]!	; 0xf68
  20:	7763742f 	strbvc	r7, [r3, -pc, lsr #8]!
  24:	75622d67 	strbvc	r2, [r2, #-3431]!	; 0xd67
  28:	73646c69 	cmnvc	r4, #26880	; 0x6900
  2c:	6576616c 	ldrbvs	r6, [r6, #-364]!	; 0x16c
  30:	726f772f 	rsbvc	r7, pc, #12320768	; 0xbc0000
  34:	6170736b 	cmnvs	r0, fp, ror #6
  38:	742f6563 	strtvc	r6, [pc], #-1379	; 40 <shift+0x40>
  3c:	2d677763 	stclcs	7, cr7, [r7, #-396]!	; 0xfffffe74
  40:	656b616d 	strbvs	r6, [fp, #-365]!	; 0x16d
  44:	6c65722d 	sfmvs	f7, 2, [r5], #-180	; 0xffffff4c
  48:	65736165 	ldrbvs	r6, [r3, #-357]!	; 0x165
  4c:	62616c2f 	rsbvs	r6, r1, #12032	; 0x2f00
  50:	642f6c65 	strtvs	r6, [pc], #-3173	; 58 <shift+0x58>
  54:	656b636f 	strbvs	r6, [fp, #-879]!	; 0x36f
  58:	72742d72 	rsbsvc	r2, r4, #7296	; 0x1c80
  5c:	79747375 	ldmdbvc	r4!, {r0, r2, r4, r5, r6, r8, r9, ip, sp, lr}^
  60:	646d612d 	strbtvs	r6, [sp], #-301	; 0x12d
  64:	742d3436 	strtvc	r3, [sp], #-1078	; 0x436
  68:	2d677763 	stclcs	7, cr7, [r7, #-396]!	; 0xfffffe74
  6c:	6c697562 	cfstr64vs	mvdx7, [r9], #-392	; 0xfffffe78
  70:	61742f64 	cmnvs	r4, r4, ror #30
  74:	74656772 	strbtvc	r6, [r5], #-1906	; 0x772
  78:	6d72612f 	ldfvse	f6, [r2, #-188]!	; 0xffffff44
  7c:	6e696c2d 	cdpvs	12, 6, cr6, cr9, cr13, {1}
  80:	672d7875 			; <UNDEFINED> instruction: 0x672d7875
  84:	6165756e 	cmnvs	r5, lr, ror #10
  88:	66686962 	strbtvs	r6, [r8], -r2, ror #18
  8c:	616e732f 	cmnvs	lr, pc, lsr #6
  90:	6f687370 	svcvs	0x00687370
  94:	672f7374 			; <UNDEFINED> instruction: 0x672f7374
  98:	6c2d6363 	stcvs	3, cr6, [sp], #-396	; 0xfffffe74
  9c:	72616e69 	rsbvc	r6, r1, #1680	; 0x690
  a0:	2e342d6f 	cdpcs	13, 3, cr2, cr4, cr15, {3}
  a4:	30322d39 	eorscc	r2, r2, r9, lsr sp
  a8:	302e3731 	eorcc	r3, lr, r1, lsr r7
  ac:	696c2f31 	stmdbvs	ip!, {r0, r4, r5, r8, r9, sl, fp, sp}^
  b0:	63636762 	cmnvs	r3, #25690112	; 0x1880000
  b4:	6e6f632f 	cdpvs	3, 6, cr6, cr15, cr15, {1}
  b8:	2f676966 	svccs	0x00676966
  bc:	006d7261 	rsbeq	r7, sp, r1, ror #4
  c0:	62696c00 	rsbvs	r6, r9, #0, 24
  c4:	6e756631 	mrcvs	6, 3, r6, cr5, cr1, {1}
  c8:	532e7363 	teqpl	lr, #-1946157055	; 0x8c000001
  cc:	00000100 	andeq	r0, r0, r0, lsl #2
  d0:	02050000 	andeq	r0, r5, #0
  d4:	87808220 	strhi	r8, [r0, r0, lsr #4]
  d8:	0107cf03 	tsteq	r7, r3, lsl #30
  dc:	2f212121 	svccs	0x00212121
  e0:	30212f21 	eorcc	r2, r1, r1, lsr #30
  e4:	14029102 	strne	r9, [r2], #-258	; 0x102
  e8:	21212221 	teqcs	r1, r1, lsr #4
  ec:	2f4c2221 	svccs	0x004c2221
  f0:	207aeb03 	rsbscs	lr, sl, r3, lsl #22
  f4:	5805af03 	stmdapl	r5, {r0, r1, r8, r9, sl, fp, sp, pc}
  f8:	2f2f2121 	svccs	0x002f2121
  fc:	022f2f2f 	eoreq	r2, pc, #47, 30	; 0xbc
 100:	01010001 	tsteq	r1, r1
 104:	00000111 	andeq	r0, r0, r1, lsl r1
 108:	00c70002 	sbceq	r0, r7, r2
 10c:	01020000 	mrseq	r0, (UNDEF: 2)
 110:	000d0efb 	strdeq	r0, [sp], -fp
 114:	01010101 	tsteq	r1, r1, lsl #2
 118:	01000000 	mrseq	r0, (UNDEF: 0)
 11c:	2f010000 	svccs	0x00010000
 120:	656d6f68 	strbvs	r6, [sp, #-3944]!	; 0xf68
 124:	7763742f 	strbvc	r7, [r3, -pc, lsr #8]!
 128:	75622d67 	strbvc	r2, [r2, #-3431]!	; 0xd67
 12c:	73646c69 	cmnvc	r4, #26880	; 0x6900
 130:	6576616c 	ldrbvs	r6, [r6, #-364]!	; 0x16c
 134:	726f772f 	rsbvc	r7, pc, #12320768	; 0xbc0000
 138:	6170736b 	cmnvs	r0, fp, ror #6
 13c:	742f6563 	strtvc	r6, [pc], #-1379	; 144 <shift+0x144>
 140:	2d677763 	stclcs	7, cr7, [r7, #-396]!	; 0xfffffe74
 144:	656b616d 	strbvs	r6, [fp, #-365]!	; 0x16d
 148:	6c65722d 	sfmvs	f7, 2, [r5], #-180	; 0xffffff4c
 14c:	65736165 	ldrbvs	r6, [r3, #-357]!	; 0x165
 150:	62616c2f 	rsbvs	r6, r1, #12032	; 0x2f00
 154:	642f6c65 	strtvs	r6, [pc], #-3173	; 15c <shift+0x15c>
 158:	656b636f 	strbvs	r6, [fp, #-879]!	; 0x36f
 15c:	72742d72 	rsbsvc	r2, r4, #7296	; 0x1c80
 160:	79747375 	ldmdbvc	r4!, {r0, r2, r4, r5, r6, r8, r9, ip, sp, lr}^
 164:	646d612d 	strbtvs	r6, [sp], #-301	; 0x12d
 168:	742d3436 	strtvc	r3, [sp], #-1078	; 0x436
 16c:	2d677763 	stclcs	7, cr7, [r7, #-396]!	; 0xfffffe74
 170:	6c697562 	cfstr64vs	mvdx7, [r9], #-392	; 0xfffffe78
 174:	61742f64 	cmnvs	r4, r4, ror #30
 178:	74656772 	strbtvc	r6, [r5], #-1906	; 0x772
 17c:	6d72612f 	ldfvse	f6, [r2, #-188]!	; 0xffffff44
 180:	6e696c2d 	cdpvs	12, 6, cr6, cr9, cr13, {1}
 184:	672d7875 			; <UNDEFINED> instruction: 0x672d7875
 188:	6165756e 	cmnvs	r5, lr, ror #10
 18c:	66686962 	strbtvs	r6, [r8], -r2, ror #18
 190:	616e732f 	cmnvs	lr, pc, lsr #6
 194:	6f687370 	svcvs	0x00687370
 198:	672f7374 			; <UNDEFINED> instruction: 0x672f7374
 19c:	6c2d6363 	stcvs	3, cr6, [sp], #-396	; 0xfffffe74
 1a0:	72616e69 	rsbvc	r6, r1, #1680	; 0x690
 1a4:	2e342d6f 	cdpcs	13, 3, cr2, cr4, cr15, {3}
 1a8:	30322d39 	eorscc	r2, r2, r9, lsr sp
 1ac:	302e3731 	eorcc	r3, lr, r1, lsr r7
 1b0:	696c2f31 	stmdbvs	ip!, {r0, r4, r5, r8, r9, sl, fp, sp}^
 1b4:	63636762 	cmnvs	r3, #25690112	; 0x1880000
 1b8:	6e6f632f 	cdpvs	3, 6, cr6, cr15, cr15, {1}
 1bc:	2f676966 	svccs	0x00676966
 1c0:	006d7261 	rsbeq	r7, sp, r1, ror #4
 1c4:	62696c00 	rsbvs	r6, r9, #0, 24
 1c8:	6e756631 	mrcvs	6, 3, r6, cr5, cr1, {1}
 1cc:	532e7363 	teqpl	lr, #-1946157055	; 0x8c000001
 1d0:	00000100 	andeq	r0, r0, r0, lsl #2
 1d4:	02050000 	andeq	r0, r5, #0
 1d8:	87808498 			; <UNDEFINED> instruction: 0x87808498
 1dc:	0108f603 	tsteq	r8, r3, lsl #12
 1e0:	212f3021 	teqcs	pc, r1, lsr #32
 1e4:	212f2121 	teqcs	pc, r1, lsr #2
 1e8:	2f212121 	svccs	0x00212121
 1ec:	91023021 	tstls	r2, r1, lsr #32
 1f0:	212f1402 	teqcs	pc, r2, lsl #8
 1f4:	212f2221 	teqcs	pc, r1, lsr #4
 1f8:	21212221 	teqcs	r1, r1, lsr #4
 1fc:	222f2f21 	eorcs	r2, pc, #33, 30	; 0x84
 200:	212f2f4c 	teqcs	pc, ip, asr #30
 204:	79b10321 	ldmibvc	r1!, {r0, r5, r8, r9}
 208:	06e90320 	strbteq	r0, [r9], r0, lsr #6
 20c:	2f212190 	svccs	0x00212190
 210:	2f2f2f2f 	svccs	0x002f2f2f
 214:	01000102 	tsteq	r0, r2, lsl #2
 218:	0000dd01 	andeq	sp, r0, r1, lsl #26
 21c:	c3000200 	movwgt	r0, #512	; 0x200
 220:	02000000 	andeq	r0, r0, #0
 224:	0d0efb01 	vstreq	d15, [lr, #-4]
 228:	01010100 	mrseq	r0, (UNDEF: 17)
 22c:	00000001 	andeq	r0, r0, r1
 230:	01000001 	tsteq	r0, r1
 234:	6d6f682f 	stclvs	8, cr6, [pc, #-188]!	; 180 <shift+0x180>
 238:	63742f65 	cmnvs	r4, #404	; 0x194
 23c:	622d6777 	eorvs	r6, sp, #31195136	; 0x1dc0000
 240:	646c6975 	strbtvs	r6, [ip], #-2421	; 0x975
 244:	76616c73 			; <UNDEFINED> instruction: 0x76616c73
 248:	6f772f65 	svcvs	0x00772f65
 24c:	70736b72 	rsbsvc	r6, r3, r2, ror fp
 250:	2f656361 	svccs	0x00656361
 254:	67776374 			; <UNDEFINED> instruction: 0x67776374
 258:	6b616d2d 	blvs	185b714 <shift+0x185b714>
 25c:	65722d65 	ldrbvs	r2, [r2, #-3429]!	; 0xd65
 260:	7361656c 	cmnvc	r1, #108, 10	; 0x1b000000
 264:	616c2f65 	cmnvs	ip, r5, ror #30
 268:	2f6c6562 	svccs	0x006c6562
 26c:	6b636f64 	blvs	18dc004 <shift+0x18dc004>
 270:	742d7265 	strtvc	r7, [sp], #-613	; 0x265
 274:	74737572 	ldrbtvc	r7, [r3], #-1394	; 0x572
 278:	6d612d79 	stclvs	13, cr2, [r1, #-484]!	; 0xfffffe1c
 27c:	2d343664 	ldccs	6, cr3, [r4, #-400]!	; 0xfffffe70
 280:	67776374 			; <UNDEFINED> instruction: 0x67776374
 284:	6975622d 	ldmdbvs	r5!, {r0, r2, r3, r5, r9, sp, lr}^
 288:	742f646c 	strtvc	r6, [pc], #-1132	; 290 <shift+0x290>
 28c:	65677261 	strbvs	r7, [r7, #-609]!	; 0x261
 290:	72612f74 	rsbvc	r2, r1, #116, 30	; 0x1d0
 294:	696c2d6d 	stmdbvs	ip!, {r0, r2, r3, r5, r6, r8, sl, fp, sp}^
 298:	2d78756e 	cfldr64cs	mvdx7, [r8, #-440]!	; 0xfffffe48
 29c:	65756e67 	ldrbvs	r6, [r5, #-3687]!	; 0xe67
 2a0:	68696261 	stmdavs	r9!, {r0, r5, r6, r9, sp, lr}^
 2a4:	6e732f66 	cdpvs	15, 7, cr2, cr3, cr6, {3}
 2a8:	68737061 	ldmdavs	r3!, {r0, r5, r6, ip, sp, lr}^
 2ac:	2f73746f 	svccs	0x0073746f
 2b0:	2d636367 	stclcs	3, cr6, [r3, #-412]!	; 0xfffffe64
 2b4:	616e696c 	cmnvs	lr, ip, ror #18
 2b8:	342d6f72 	strtcc	r6, [sp], #-3954	; 0xf72
 2bc:	322d392e 	eorcc	r3, sp, #753664	; 0xb8000
 2c0:	2e373130 	mrccs	1, 1, r3, cr7, cr0, {1}
 2c4:	6c2f3130 	stfvss	f3, [pc], #-192	; 20c <shift+0x20c>
 2c8:	63676269 	cmnvs	r7, #-1879048186	; 0x90000006
 2cc:	6f632f63 	svcvs	0x00632f63
 2d0:	6769666e 	strbvs	r6, [r9, -lr, ror #12]!
 2d4:	6d72612f 	ldfvse	f6, [r2, #-188]!	; 0xffffff44
 2d8:	70620000 	rsbvc	r0, r2, r0
 2dc:	2e696261 	cdpcs	2, 6, cr6, cr9, cr1, {3}
 2e0:	00010053 	andeq	r0, r1, r3, asr r0
 2e4:	05000000 	streq	r0, [r0, #-0]
 2e8:	80874802 	addhi	r4, r7, r2, lsl #16
 2ec:	01fd0387 	mvnseq	r0, r7, lsl #7
 2f0:	2f4cbc01 	svccs	0x004cbc01
 2f4:	00010259 	andeq	r0, r1, r9, asr r2
 2f8:	00e30101 	rsceq	r0, r3, r1, lsl #2
 2fc:	00020000 	andeq	r0, r2, r0
 300:	000000c7 	andeq	r0, r0, r7, asr #1
 304:	0efb0102 	cdpeq	1, 15, cr0, cr11, cr2, {0}
 308:	0101000d 	tsteq	r1, sp
 30c:	00000101 	andeq	r0, r0, r1, lsl #2
 310:	00000100 	andeq	r0, r0, r0, lsl #2
 314:	6f682f01 	svcvs	0x00682f01
 318:	742f656d 	strtvc	r6, [pc], #-1389	; 320 <shift+0x320>
 31c:	2d677763 	stclcs	7, cr7, [r7, #-396]!	; 0xfffffe74
 320:	6c697562 	cfstr64vs	mvdx7, [r9], #-392	; 0xfffffe78
 324:	616c7364 	cmnvs	ip, r4, ror #6
 328:	772f6576 			; <UNDEFINED> instruction: 0x772f6576
 32c:	736b726f 	cmnvc	fp, #-268435450	; 0xf0000006
 330:	65636170 	strbvs	r6, [r3, #-368]!	; 0x170
 334:	7763742f 	strbvc	r7, [r3, -pc, lsr #8]!
 338:	616d2d67 	cmnvs	sp, r7, ror #26
 33c:	722d656b 	eorvc	r6, sp, #448790528	; 0x1ac00000
 340:	61656c65 	cmnvs	r5, r5, ror #24
 344:	6c2f6573 	cfstr32vs	mvfx6, [pc], #-460	; 180 <shift+0x180>
 348:	6c656261 	sfmvs	f6, 2, [r5], #-388	; 0xfffffe7c
 34c:	636f642f 	cmnvs	pc, #788529152	; 0x2f000000
 350:	2d72656b 	cfldr64cs	mvdx6, [r2, #-428]!	; 0xfffffe54
 354:	73757274 	cmnvc	r5, #116, 4	; 0x40000007
 358:	612d7974 	teqvs	sp, r4, ror r9
 35c:	3436646d 	ldrtcc	r6, [r6], #-1133	; 0x46d
 360:	7763742d 	strbvc	r7, [r3, -sp, lsr #8]!
 364:	75622d67 	strbvc	r2, [r2, #-3431]!	; 0xd67
 368:	2f646c69 	svccs	0x00646c69
 36c:	67726174 			; <UNDEFINED> instruction: 0x67726174
 370:	612f7465 	teqvs	pc, r5, ror #8
 374:	6c2d6d72 	stcvs	13, cr6, [sp], #-456	; 0xfffffe38
 378:	78756e69 	ldmdavc	r5!, {r0, r3, r5, r6, r9, sl, fp, sp, lr}^
 37c:	756e672d 	strbvc	r6, [lr, #-1837]!	; 0x72d
 380:	69626165 	stmdbvs	r2!, {r0, r2, r5, r6, r8, sp, lr}^
 384:	732f6668 	teqvc	pc, #104, 12	; 0x6800000
 388:	7370616e 	cmnvc	r0, #-2147483621	; 0x8000001b
 38c:	73746f68 	cmnvc	r4, #104, 30	; 0x1a0
 390:	6363672f 	cmnvs	r3, #12320768	; 0xbc0000
 394:	6e696c2d 	cdpvs	12, 6, cr6, cr9, cr13, {1}
 398:	2d6f7261 	sfmcs	f7, 2, [pc, #-388]!	; 21c <shift+0x21c>
 39c:	2d392e34 	ldccs	14, cr2, [r9, #-208]!	; 0xffffff30
 3a0:	37313032 			; <UNDEFINED> instruction: 0x37313032
 3a4:	2f31302e 	svccs	0x0031302e
 3a8:	6762696c 	strbvs	r6, [r2, -ip, ror #18]!
 3ac:	632f6363 	teqvs	pc, #-1946157055	; 0x8c000001
 3b0:	69666e6f 	stmdbvs	r6!, {r0, r1, r2, r3, r5, r6, r9, sl, fp, sp, lr}^
 3b4:	72612f67 	rsbvc	r2, r1, #412	; 0x19c
 3b8:	6c00006d 	stcvs	0, cr0, [r0], {109}	; 0x6d
 3bc:	66316269 	ldrtvs	r6, [r1], -r9, ror #4
 3c0:	73636e75 	cmnvc	r3, #1872	; 0x750
 3c4:	0100532e 	tsteq	r0, lr, lsr #6
 3c8:	00000000 	andeq	r0, r0, r0
 3cc:	87780205 	ldrbhi	r0, [r8, -r5, lsl #4]!
 3d0:	b0038780 	andlt	r8, r3, r0, lsl #15
 3d4:	2f21010a 	svccs	0x0021010a
 3d8:	2e77bb03 	vaddcs.f64	d27, d7, d3
 3dc:	01000102 	tsteq	r0, r2, lsl #2
 3e0:	00011301 	andeq	r1, r1, r1, lsl #6
 3e4:	c7000200 	strgt	r0, [r0, -r0, lsl #4]
 3e8:	02000000 	andeq	r0, r0, #0
 3ec:	0d0efb01 	vstreq	d15, [lr, #-4]
 3f0:	01010100 	mrseq	r0, (UNDEF: 17)
 3f4:	00000001 	andeq	r0, r0, r1
 3f8:	01000001 	tsteq	r0, r1
 3fc:	6d6f682f 	stclvs	8, cr6, [pc, #-188]!	; 348 <shift+0x348>
 400:	63742f65 	cmnvs	r4, #404	; 0x194
 404:	622d6777 	eorvs	r6, sp, #31195136	; 0x1dc0000
 408:	646c6975 	strbtvs	r6, [ip], #-2421	; 0x975
 40c:	76616c73 			; <UNDEFINED> instruction: 0x76616c73
 410:	6f772f65 	svcvs	0x00772f65
 414:	70736b72 	rsbsvc	r6, r3, r2, ror fp
 418:	2f656361 	svccs	0x00656361
 41c:	67776374 			; <UNDEFINED> instruction: 0x67776374
 420:	6b616d2d 	blvs	185b8dc <shift+0x185b8dc>
 424:	65722d65 	ldrbvs	r2, [r2, #-3429]!	; 0xd65
 428:	7361656c 	cmnvc	r1, #108, 10	; 0x1b000000
 42c:	616c2f65 	cmnvs	ip, r5, ror #30
 430:	2f6c6562 	svccs	0x006c6562
 434:	6b636f64 	blvs	18dc1cc <shift+0x18dc1cc>
 438:	742d7265 	strtvc	r7, [sp], #-613	; 0x265
 43c:	74737572 	ldrbtvc	r7, [r3], #-1394	; 0x572
 440:	6d612d79 	stclvs	13, cr2, [r1, #-484]!	; 0xfffffe1c
 444:	2d343664 	ldccs	6, cr3, [r4, #-400]!	; 0xfffffe70
 448:	67776374 			; <UNDEFINED> instruction: 0x67776374
 44c:	6975622d 	ldmdbvs	r5!, {r0, r2, r3, r5, r9, sp, lr}^
 450:	742f646c 	strtvc	r6, [pc], #-1132	; 458 <shift+0x458>
 454:	65677261 	strbvs	r7, [r7, #-609]!	; 0x261
 458:	72612f74 	rsbvc	r2, r1, #116, 30	; 0x1d0
 45c:	696c2d6d 	stmdbvs	ip!, {r0, r2, r3, r5, r6, r8, sl, fp, sp}^
 460:	2d78756e 	cfldr64cs	mvdx7, [r8, #-440]!	; 0xfffffe48
 464:	65756e67 	ldrbvs	r6, [r5, #-3687]!	; 0xe67
 468:	68696261 	stmdavs	r9!, {r0, r5, r6, r9, sp, lr}^
 46c:	6e732f66 	cdpvs	15, 7, cr2, cr3, cr6, {3}
 470:	68737061 	ldmdavs	r3!, {r0, r5, r6, ip, sp, lr}^
 474:	2f73746f 	svccs	0x0073746f
 478:	2d636367 	stclcs	3, cr6, [r3, #-412]!	; 0xfffffe64
 47c:	616e696c 	cmnvs	lr, ip, ror #18
 480:	342d6f72 	strtcc	r6, [sp], #-3954	; 0xf72
 484:	322d392e 	eorcc	r3, sp, #753664	; 0xb8000
 488:	2e373130 	mrccs	1, 1, r3, cr7, cr0, {1}
 48c:	6c2f3130 	stfvss	f3, [pc], #-192	; 3d4 <shift+0x3d4>
 490:	63676269 	cmnvs	r7, #-1879048186	; 0x90000006
 494:	6c000063 	stcvs	0, cr0, [r0], {99}	; 0x63
 498:	63676269 	cmnvs	r7, #-1879048186	; 0x90000006
 49c:	632e3263 	teqvs	lr, #805306374	; 0x30000006
 4a0:	00000100 	andeq	r0, r0, r0, lsl #2
 4a4:	6762696c 	strbvs	r6, [r2, -ip, ror #18]!
 4a8:	2e326363 	cdpcs	3, 3, cr6, cr2, cr3, {3}
 4ac:	00010068 	andeq	r0, r1, r8, rrx
 4b0:	05000000 	streq	r0, [r0, #-0]
 4b4:	80878402 	addhi	r8, r7, r2, lsl #8
 4b8:	07b00387 	ldreq	r0, [r0, r7, lsl #7]!
 4bc:	0c032e01 	stceq	14, cr2, [r3], {1}
 4c0:	20740320 	rsbscs	r0, r4, r0, lsr #6
 4c4:	033c0c03 	teqeq	ip, #768	; 0x300
 4c8:	03212e74 	teqeq	r1, #116, 28	; 0x740
 4cc:	4b223c0b 	blmi	88f500 <shift+0x88f500>
 4d0:	03f9214c 	mvnseq	r2, #76, 2
 4d4:	18033c68 	stmdane	r3, {r3, r5, r6, sl, fp, ip, sp}
 4d8:	212d233c 	teqcs	sp, ip, lsr r3
 4dc:	52303281 	eorspl	r3, r0, #268435464	; 0x10000008
 4e0:	304d2986 	subcc	r2, sp, r6, lsl #19
 4e4:	4921b933 	stmdbmi	r1!, {r0, r1, r4, r5, r8, fp, ip, sp, pc}
 4e8:	32082121 	andcc	r2, r8, #1073741832	; 0x40000008
 4ec:	55033021 	strpl	r3, [r3, #-33]	; 0x21
 4f0:	024b492e 	subeq	r4, fp, #753664	; 0xb8000
 4f4:	01010005 	tsteq	r1, r5

Disassembly of section .debug_info:

00000000 <.debug_info>:
   0:	000001bb 			; <UNDEFINED> instruction: 0x000001bb
   4:	00000002 	andeq	r0, r0, r2
   8:	01040000 	mrseq	r0, (UNDEF: 4)
   c:	00000000 	andeq	r0, r0, r0
  10:	87808220 	strhi	r8, [r0, r0, lsr #4]
  14:	87808496 			; <UNDEFINED> instruction: 0x87808496
  18:	6d6f682f 	stclvs	8, cr6, [pc, #-188]!	; ffffff64 <__bss_end+0x787f0c1c>
  1c:	63742f65 	cmnvs	r4, #404	; 0x194
  20:	622d6777 	eorvs	r6, sp, #31195136	; 0x1dc0000
  24:	646c6975 	strbtvs	r6, [ip], #-2421	; 0x975
  28:	76616c73 			; <UNDEFINED> instruction: 0x76616c73
  2c:	6f772f65 	svcvs	0x00772f65
  30:	70736b72 	rsbsvc	r6, r3, r2, ror fp
  34:	2f656361 	svccs	0x00656361
  38:	67776374 			; <UNDEFINED> instruction: 0x67776374
  3c:	6b616d2d 	blvs	185b4f8 <shift+0x185b4f8>
  40:	65722d65 	ldrbvs	r2, [r2, #-3429]!	; 0xd65
  44:	7361656c 	cmnvc	r1, #108, 10	; 0x1b000000
  48:	616c2f65 	cmnvs	ip, r5, ror #30
  4c:	2f6c6562 	svccs	0x006c6562
  50:	6b636f64 	blvs	18dbde8 <shift+0x18dbde8>
  54:	742d7265 	strtvc	r7, [sp], #-613	; 0x265
  58:	74737572 	ldrbtvc	r7, [r3], #-1394	; 0x572
  5c:	6d612d79 	stclvs	13, cr2, [r1, #-484]!	; 0xfffffe1c
  60:	2d343664 	ldccs	6, cr3, [r4, #-400]!	; 0xfffffe70
  64:	67776374 			; <UNDEFINED> instruction: 0x67776374
  68:	6975622d 	ldmdbvs	r5!, {r0, r2, r3, r5, r9, sp, lr}^
  6c:	742f646c 	strtvc	r6, [pc], #-1132	; 74 <shift+0x74>
  70:	65677261 	strbvs	r7, [r7, #-609]!	; 0x261
  74:	72612f74 	rsbvc	r2, r1, #116, 30	; 0x1d0
  78:	696c2d6d 	stmdbvs	ip!, {r0, r2, r3, r5, r6, r8, sl, fp, sp}^
  7c:	2d78756e 	cfldr64cs	mvdx7, [r8, #-440]!	; 0xfffffe48
  80:	65756e67 	ldrbvs	r6, [r5, #-3687]!	; 0xe67
  84:	68696261 	stmdavs	r9!, {r0, r5, r6, r9, sp, lr}^
  88:	6e732f66 	cdpvs	15, 7, cr2, cr3, cr6, {3}
  8c:	68737061 	ldmdavs	r3!, {r0, r5, r6, ip, sp, lr}^
  90:	2f73746f 	svccs	0x0073746f
  94:	2d636367 	stclcs	3, cr6, [r3, #-412]!	; 0xfffffe64
  98:	616e696c 	cmnvs	lr, ip, ror #18
  9c:	342d6f72 	strtcc	r6, [sp], #-3954	; 0xf72
  a0:	322d392e 	eorcc	r3, sp, #753664	; 0xb8000
  a4:	2e373130 	mrccs	1, 1, r3, cr7, cr0, {1}
  a8:	6c2f3130 	stfvss	f3, [pc], #-192	; fffffff0 <__bss_end+0x787f0ca8>
  ac:	63676269 	cmnvs	r7, #-1879048186	; 0x90000006
  b0:	6f632f63 	svcvs	0x00632f63
  b4:	6769666e 	strbvs	r6, [r9, -lr, ror #12]!
  b8:	6d72612f 	ldfvse	f6, [r2, #-188]!	; 0xffffff44
  bc:	62696c2f 	rsbvs	r6, r9, #12032	; 0x2f00
  c0:	6e756631 	mrcvs	6, 3, r6, cr5, cr1, {1}
  c4:	532e7363 	teqpl	lr, #-1946157055	; 0x8c000001
  c8:	6f682f00 	svcvs	0x00682f00
  cc:	742f656d 	strtvc	r6, [pc], #-1389	; d4 <shift+0xd4>
  d0:	2d677763 	stclcs	7, cr7, [r7, #-396]!	; 0xfffffe74
  d4:	6c697562 	cfstr64vs	mvdx7, [r9], #-392	; 0xfffffe78
  d8:	616c7364 	cmnvs	ip, r4, ror #6
  dc:	772f6576 			; <UNDEFINED> instruction: 0x772f6576
  e0:	736b726f 	cmnvc	fp, #-268435450	; 0xf0000006
  e4:	65636170 	strbvs	r6, [r3, #-368]!	; 0x170
  e8:	7763742f 	strbvc	r7, [r3, -pc, lsr #8]!
  ec:	616d2d67 	cmnvs	sp, r7, ror #26
  f0:	722d656b 	eorvc	r6, sp, #448790528	; 0x1ac00000
  f4:	61656c65 	cmnvs	r5, r5, ror #24
  f8:	6c2f6573 	cfstr32vs	mvfx6, [pc], #-460	; ffffff34 <__bss_end+0x787f0bec>
  fc:	6c656261 	sfmvs	f6, 2, [r5], #-388	; 0xfffffe7c
 100:	636f642f 	cmnvs	pc, #788529152	; 0x2f000000
 104:	2d72656b 	cfldr64cs	mvdx6, [r2, #-428]!	; 0xfffffe54
 108:	73757274 	cmnvc	r5, #116, 4	; 0x40000007
 10c:	612d7974 	teqvs	sp, r4, ror r9
 110:	3436646d 	ldrtcc	r6, [r6], #-1133	; 0x46d
 114:	7763742d 	strbvc	r7, [r3, -sp, lsr #8]!
 118:	75622d67 	strbvc	r2, [r2, #-3431]!	; 0xd67
 11c:	2f646c69 	svccs	0x00646c69
 120:	67726174 			; <UNDEFINED> instruction: 0x67726174
 124:	612f7465 	teqvs	pc, r5, ror #8
 128:	6c2d6d72 	stcvs	13, cr6, [sp], #-456	; 0xfffffe38
 12c:	78756e69 	ldmdavc	r5!, {r0, r3, r5, r6, r9, sl, fp, sp, lr}^
 130:	756e672d 	strbvc	r6, [lr, #-1837]!	; 0x72d
 134:	69626165 	stmdbvs	r2!, {r0, r2, r5, r6, r8, sp, lr}^
 138:	5f2f6668 	svcpl	0x002f6668
 13c:	6c697562 	cfstr64vs	mvdx7, [r9], #-392	; 0xfffffe78
 140:	75622f64 	strbvc	r2, [r2, #-3940]!	; 0xf64
 144:	73646c69 	cmnvc	r4, #26880	; 0x6900
 148:	3638782f 	ldrtcc	r7, [r8], -pc, lsr #16
 14c:	2d34365f 	ldccs	6, cr3, [r4, #-380]!	; 0xfffffe84
 150:	6e6b6e75 	mcrvs	14, 3, r6, cr11, cr5, {3}
 154:	2d6e776f 	stclcs	7, cr7, [lr, #-444]!	; 0xfffffe44
 158:	756e696c 	strbvc	r6, [lr, #-2412]!	; 0x96c
 15c:	6e672d78 	mcrvs	13, 3, r2, cr7, cr8, {3}
 160:	72612f75 	rsbvc	r2, r1, #468	; 0x1d4
 164:	696c2d6d 	stmdbvs	ip!, {r0, r2, r3, r5, r6, r8, sl, fp, sp}^
 168:	2d78756e 	cfldr64cs	mvdx7, [r8, #-440]!	; 0xfffffe48
 16c:	65756e67 	ldrbvs	r6, [r5, #-3687]!	; 0xe67
 170:	68696261 	stmdavs	r9!, {r0, r5, r6, r9, sp, lr}^
 174:	63672f66 	cmnvs	r7, #408	; 0x198
 178:	696c2d63 	stmdbvs	ip!, {r0, r1, r5, r6, r8, sl, fp, sp}^
 17c:	6f72616e 	svcvs	0x0072616e
 180:	392e342d 	stmdbcc	lr!, {r0, r2, r3, r5, sl, ip, sp}
 184:	3130322d 	teqcc	r0, sp, lsr #4
 188:	31302e37 	teqcc	r0, r7, lsr lr
 18c:	6174732d 	cmnvs	r4, sp, lsr #6
 190:	2f326567 	svccs	0x00326567
 194:	2d6d7261 	sfmcs	f7, 2, [sp, #-388]!	; 0xfffffe7c
 198:	756e696c 	strbvc	r6, [lr, #-2412]!	; 0x96c
 19c:	6e672d78 	mcrvs	13, 3, r2, cr7, cr8, {3}
 1a0:	62616575 	rsbvs	r6, r1, #490733568	; 0x1d400000
 1a4:	2f666869 	svccs	0x00666869
 1a8:	6762696c 	strbvs	r6, [r2, -ip, ror #18]!
 1ac:	47006363 	strmi	r6, [r0, -r3, ror #6]
 1b0:	4120554e 	teqmi	r0, lr, asr #10
 1b4:	2e322053 	mrccs	0, 1, r2, cr2, cr3, {2}
 1b8:	302e3432 	eorcc	r3, lr, r2, lsr r4
 1bc:	bb800100 	bllt	fe0005c4 <__bss_end+0x767f127c>
 1c0:	02000001 	andeq	r0, r0, #1
 1c4:	00001400 	andeq	r1, r0, r0, lsl #8
 1c8:	04010400 	streq	r0, [r1], #-1024	; 0x400
 1cc:	98000001 	stmdals	r0, {r0}
 1d0:	46878084 	strmi	r8, [r7], r4, lsl #1
 1d4:	2f878087 	svccs	0x00878087
 1d8:	656d6f68 	strbvs	r6, [sp, #-3944]!	; 0xf68
 1dc:	7763742f 	strbvc	r7, [r3, -pc, lsr #8]!
 1e0:	75622d67 	strbvc	r2, [r2, #-3431]!	; 0xd67
 1e4:	73646c69 	cmnvc	r4, #26880	; 0x6900
 1e8:	6576616c 	ldrbvs	r6, [r6, #-364]!	; 0x16c
 1ec:	726f772f 	rsbvc	r7, pc, #12320768	; 0xbc0000
 1f0:	6170736b 	cmnvs	r0, fp, ror #6
 1f4:	742f6563 	strtvc	r6, [pc], #-1379	; 1fc <shift+0x1fc>
 1f8:	2d677763 	stclcs	7, cr7, [r7, #-396]!	; 0xfffffe74
 1fc:	656b616d 	strbvs	r6, [fp, #-365]!	; 0x16d
 200:	6c65722d 	sfmvs	f7, 2, [r5], #-180	; 0xffffff4c
 204:	65736165 	ldrbvs	r6, [r3, #-357]!	; 0x165
 208:	62616c2f 	rsbvs	r6, r1, #12032	; 0x2f00
 20c:	642f6c65 	strtvs	r6, [pc], #-3173	; 214 <shift+0x214>
 210:	656b636f 	strbvs	r6, [fp, #-879]!	; 0x36f
 214:	72742d72 	rsbsvc	r2, r4, #7296	; 0x1c80
 218:	79747375 	ldmdbvc	r4!, {r0, r2, r4, r5, r6, r8, r9, ip, sp, lr}^
 21c:	646d612d 	strbtvs	r6, [sp], #-301	; 0x12d
 220:	742d3436 	strtvc	r3, [sp], #-1078	; 0x436
 224:	2d677763 	stclcs	7, cr7, [r7, #-396]!	; 0xfffffe74
 228:	6c697562 	cfstr64vs	mvdx7, [r9], #-392	; 0xfffffe78
 22c:	61742f64 	cmnvs	r4, r4, ror #30
 230:	74656772 	strbtvc	r6, [r5], #-1906	; 0x772
 234:	6d72612f 	ldfvse	f6, [r2, #-188]!	; 0xffffff44
 238:	6e696c2d 	cdpvs	12, 6, cr6, cr9, cr13, {1}
 23c:	672d7875 			; <UNDEFINED> instruction: 0x672d7875
 240:	6165756e 	cmnvs	r5, lr, ror #10
 244:	66686962 	strbtvs	r6, [r8], -r2, ror #18
 248:	616e732f 	cmnvs	lr, pc, lsr #6
 24c:	6f687370 	svcvs	0x00687370
 250:	672f7374 			; <UNDEFINED> instruction: 0x672f7374
 254:	6c2d6363 	stcvs	3, cr6, [sp], #-396	; 0xfffffe74
 258:	72616e69 	rsbvc	r6, r1, #1680	; 0x690
 25c:	2e342d6f 	cdpcs	13, 3, cr2, cr4, cr15, {3}
 260:	30322d39 	eorscc	r2, r2, r9, lsr sp
 264:	302e3731 	eorcc	r3, lr, r1, lsr r7
 268:	696c2f31 	stmdbvs	ip!, {r0, r4, r5, r8, r9, sl, fp, sp}^
 26c:	63636762 	cmnvs	r3, #25690112	; 0x1880000
 270:	6e6f632f 	cdpvs	3, 6, cr6, cr15, cr15, {1}
 274:	2f676966 	svccs	0x00676966
 278:	2f6d7261 	svccs	0x006d7261
 27c:	3162696c 	cmncc	r2, ip, ror #18
 280:	636e7566 	cmnvs	lr, #427819008	; 0x19800000
 284:	00532e73 	subseq	r2, r3, r3, ror lr
 288:	6d6f682f 	stclvs	8, cr6, [pc, #-188]!	; 1d4 <shift+0x1d4>
 28c:	63742f65 	cmnvs	r4, #404	; 0x194
 290:	622d6777 	eorvs	r6, sp, #31195136	; 0x1dc0000
 294:	646c6975 	strbtvs	r6, [ip], #-2421	; 0x975
 298:	76616c73 			; <UNDEFINED> instruction: 0x76616c73
 29c:	6f772f65 	svcvs	0x00772f65
 2a0:	70736b72 	rsbsvc	r6, r3, r2, ror fp
 2a4:	2f656361 	svccs	0x00656361
 2a8:	67776374 			; <UNDEFINED> instruction: 0x67776374
 2ac:	6b616d2d 	blvs	185b768 <shift+0x185b768>
 2b0:	65722d65 	ldrbvs	r2, [r2, #-3429]!	; 0xd65
 2b4:	7361656c 	cmnvc	r1, #108, 10	; 0x1b000000
 2b8:	616c2f65 	cmnvs	ip, r5, ror #30
 2bc:	2f6c6562 	svccs	0x006c6562
 2c0:	6b636f64 	blvs	18dc058 <shift+0x18dc058>
 2c4:	742d7265 	strtvc	r7, [sp], #-613	; 0x265
 2c8:	74737572 	ldrbtvc	r7, [r3], #-1394	; 0x572
 2cc:	6d612d79 	stclvs	13, cr2, [r1, #-484]!	; 0xfffffe1c
 2d0:	2d343664 	ldccs	6, cr3, [r4, #-400]!	; 0xfffffe70
 2d4:	67776374 			; <UNDEFINED> instruction: 0x67776374
 2d8:	6975622d 	ldmdbvs	r5!, {r0, r2, r3, r5, r9, sp, lr}^
 2dc:	742f646c 	strtvc	r6, [pc], #-1132	; 2e4 <shift+0x2e4>
 2e0:	65677261 	strbvs	r7, [r7, #-609]!	; 0x261
 2e4:	72612f74 	rsbvc	r2, r1, #116, 30	; 0x1d0
 2e8:	696c2d6d 	stmdbvs	ip!, {r0, r2, r3, r5, r6, r8, sl, fp, sp}^
 2ec:	2d78756e 	cfldr64cs	mvdx7, [r8, #-440]!	; 0xfffffe48
 2f0:	65756e67 	ldrbvs	r6, [r5, #-3687]!	; 0xe67
 2f4:	68696261 	stmdavs	r9!, {r0, r5, r6, r9, sp, lr}^
 2f8:	625f2f66 	subsvs	r2, pc, #408	; 0x198
 2fc:	646c6975 	strbtvs	r6, [ip], #-2421	; 0x975
 300:	6975622f 	ldmdbvs	r5!, {r0, r1, r2, r3, r5, r9, sp, lr}^
 304:	2f73646c 	svccs	0x0073646c
 308:	5f363878 	svcpl	0x00363878
 30c:	752d3436 	strvc	r3, [sp, #-1078]!	; 0x436
 310:	6f6e6b6e 	svcvs	0x006e6b6e
 314:	6c2d6e77 	stcvs	14, cr6, [sp], #-476	; 0xfffffe24
 318:	78756e69 	ldmdavc	r5!, {r0, r3, r5, r6, r9, sl, fp, sp, lr}^
 31c:	756e672d 	strbvc	r6, [lr, #-1837]!	; 0x72d
 320:	6d72612f 	ldfvse	f6, [r2, #-188]!	; 0xffffff44
 324:	6e696c2d 	cdpvs	12, 6, cr6, cr9, cr13, {1}
 328:	672d7875 			; <UNDEFINED> instruction: 0x672d7875
 32c:	6165756e 	cmnvs	r5, lr, ror #10
 330:	66686962 	strbtvs	r6, [r8], -r2, ror #18
 334:	6363672f 	cmnvs	r3, #12320768	; 0xbc0000
 338:	6e696c2d 	cdpvs	12, 6, cr6, cr9, cr13, {1}
 33c:	2d6f7261 	sfmcs	f7, 2, [pc, #-388]!	; 1c0 <shift+0x1c0>
 340:	2d392e34 	ldccs	14, cr2, [r9, #-208]!	; 0xffffff30
 344:	37313032 			; <UNDEFINED> instruction: 0x37313032
 348:	2d31302e 	ldccs	0, cr3, [r1, #-184]!	; 0xffffff48
 34c:	67617473 			; <UNDEFINED> instruction: 0x67617473
 350:	612f3265 	teqvs	pc, r5, ror #4
 354:	6c2d6d72 	stcvs	13, cr6, [sp], #-456	; 0xfffffe38
 358:	78756e69 	ldmdavc	r5!, {r0, r3, r5, r6, r9, sl, fp, sp, lr}^
 35c:	756e672d 	strbvc	r6, [lr, #-1837]!	; 0x72d
 360:	69626165 	stmdbvs	r2!, {r0, r2, r5, r6, r8, sp, lr}^
 364:	6c2f6668 	stcvs	6, cr6, [pc], #-416	; 1cc <shift+0x1cc>
 368:	63676269 	cmnvs	r7, #-1879048186	; 0x90000006
 36c:	4e470063 	cdpmi	0, 4, cr0, cr7, cr3, {3}
 370:	53412055 	movtpl	r2, #4181	; 0x1055
 374:	322e3220 	eorcc	r3, lr, #32, 4
 378:	00302e34 	eorseq	r2, r0, r4, lsr lr
 37c:	01b78001 			; <UNDEFINED> instruction: 0x01b78001
 380:	00020000 	andeq	r0, r2, r0
 384:	00000028 	andeq	r0, r0, r8, lsr #32
 388:	02190104 	andseq	r0, r9, #4, 2
 38c:	87480000 	strbhi	r0, [r8, -r0]
 390:	87788780 	ldrbhi	r8, [r8, -r0, lsl #15]!
 394:	682f8780 	stmdavs	pc!, {r7, r8, r9, sl, pc}	; <UNPREDICTABLE>
 398:	2f656d6f 	svccs	0x00656d6f
 39c:	67776374 			; <UNDEFINED> instruction: 0x67776374
 3a0:	6975622d 	ldmdbvs	r5!, {r0, r2, r3, r5, r9, sp, lr}^
 3a4:	6c73646c 	cfldrdvs	mvd6, [r3], #-432	; 0xfffffe50
 3a8:	2f657661 	svccs	0x00657661
 3ac:	6b726f77 	blvs	1c9c190 <shift+0x1c9c190>
 3b0:	63617073 	cmnvs	r1, #115	; 0x73
 3b4:	63742f65 	cmnvs	r4, #404	; 0x194
 3b8:	6d2d6777 	stcvs	7, cr6, [sp, #-476]!	; 0xfffffe24
 3bc:	2d656b61 	fstmdbxcs	r5!, {d22-d69}	;@ Deprecated
 3c0:	656c6572 	strbvs	r6, [ip, #-1394]!	; 0x572
 3c4:	2f657361 	svccs	0x00657361
 3c8:	6562616c 	strbvs	r6, [r2, #-364]!	; 0x16c
 3cc:	6f642f6c 	svcvs	0x00642f6c
 3d0:	72656b63 	rsbvc	r6, r5, #101376	; 0x18c00
 3d4:	7572742d 	ldrbvc	r7, [r2, #-1069]!	; 0x42d
 3d8:	2d797473 	cfldrdcs	mvd7, [r9, #-460]!	; 0xfffffe34
 3dc:	36646d61 	strbtcc	r6, [r4], -r1, ror #26
 3e0:	63742d34 	cmnvs	r4, #52, 26	; 0xd00
 3e4:	622d6777 	eorvs	r6, sp, #31195136	; 0x1dc0000
 3e8:	646c6975 	strbtvs	r6, [ip], #-2421	; 0x975
 3ec:	7261742f 	rsbvc	r7, r1, #788529152	; 0x2f000000
 3f0:	2f746567 	svccs	0x00746567
 3f4:	2d6d7261 	sfmcs	f7, 2, [sp, #-388]!	; 0xfffffe7c
 3f8:	756e696c 	strbvc	r6, [lr, #-2412]!	; 0x96c
 3fc:	6e672d78 	mcrvs	13, 3, r2, cr7, cr8, {3}
 400:	62616575 	rsbvs	r6, r1, #490733568	; 0x1d400000
 404:	2f666869 	svccs	0x00666869
 408:	70616e73 	rsbvc	r6, r1, r3, ror lr
 40c:	746f6873 	strbtvc	r6, [pc], #-2163	; 414 <shift+0x414>
 410:	63672f73 	cmnvs	r7, #460	; 0x1cc
 414:	696c2d63 	stmdbvs	ip!, {r0, r1, r5, r6, r8, sl, fp, sp}^
 418:	6f72616e 	svcvs	0x0072616e
 41c:	392e342d 	stmdbcc	lr!, {r0, r2, r3, r5, sl, ip, sp}
 420:	3130322d 	teqcc	r0, sp, lsr #4
 424:	31302e37 	teqcc	r0, r7, lsr lr
 428:	62696c2f 	rsbvs	r6, r9, #12032	; 0x2f00
 42c:	2f636367 	svccs	0x00636367
 430:	666e6f63 	strbtvs	r6, [lr], -r3, ror #30
 434:	612f6769 	teqvs	pc, r9, ror #14
 438:	622f6d72 	eorvs	r6, pc, #7296	; 0x1c80
 43c:	69626170 	stmdbvs	r2!, {r4, r5, r6, r8, sp, lr}^
 440:	2f00532e 	svccs	0x0000532e
 444:	656d6f68 	strbvs	r6, [sp, #-3944]!	; 0xf68
 448:	7763742f 	strbvc	r7, [r3, -pc, lsr #8]!
 44c:	75622d67 	strbvc	r2, [r2, #-3431]!	; 0xd67
 450:	73646c69 	cmnvc	r4, #26880	; 0x6900
 454:	6576616c 	ldrbvs	r6, [r6, #-364]!	; 0x16c
 458:	726f772f 	rsbvc	r7, pc, #12320768	; 0xbc0000
 45c:	6170736b 	cmnvs	r0, fp, ror #6
 460:	742f6563 	strtvc	r6, [pc], #-1379	; 468 <shift+0x468>
 464:	2d677763 	stclcs	7, cr7, [r7, #-396]!	; 0xfffffe74
 468:	656b616d 	strbvs	r6, [fp, #-365]!	; 0x16d
 46c:	6c65722d 	sfmvs	f7, 2, [r5], #-180	; 0xffffff4c
 470:	65736165 	ldrbvs	r6, [r3, #-357]!	; 0x165
 474:	62616c2f 	rsbvs	r6, r1, #12032	; 0x2f00
 478:	642f6c65 	strtvs	r6, [pc], #-3173	; 480 <shift+0x480>
 47c:	656b636f 	strbvs	r6, [fp, #-879]!	; 0x36f
 480:	72742d72 	rsbsvc	r2, r4, #7296	; 0x1c80
 484:	79747375 	ldmdbvc	r4!, {r0, r2, r4, r5, r6, r8, r9, ip, sp, lr}^
 488:	646d612d 	strbtvs	r6, [sp], #-301	; 0x12d
 48c:	742d3436 	strtvc	r3, [sp], #-1078	; 0x436
 490:	2d677763 	stclcs	7, cr7, [r7, #-396]!	; 0xfffffe74
 494:	6c697562 	cfstr64vs	mvdx7, [r9], #-392	; 0xfffffe78
 498:	61742f64 	cmnvs	r4, r4, ror #30
 49c:	74656772 	strbtvc	r6, [r5], #-1906	; 0x772
 4a0:	6d72612f 	ldfvse	f6, [r2, #-188]!	; 0xffffff44
 4a4:	6e696c2d 	cdpvs	12, 6, cr6, cr9, cr13, {1}
 4a8:	672d7875 			; <UNDEFINED> instruction: 0x672d7875
 4ac:	6165756e 	cmnvs	r5, lr, ror #10
 4b0:	66686962 	strbtvs	r6, [r8], -r2, ror #18
 4b4:	75625f2f 	strbvc	r5, [r2, #-3887]!	; 0xf2f
 4b8:	2f646c69 	svccs	0x00646c69
 4bc:	6c697562 	cfstr64vs	mvdx7, [r9], #-392	; 0xfffffe78
 4c0:	782f7364 	stmdavc	pc!, {r2, r5, r6, r8, r9, ip, sp, lr}	; <UNPREDICTABLE>
 4c4:	365f3638 			; <UNDEFINED> instruction: 0x365f3638
 4c8:	6e752d34 	mrcvs	13, 3, r2, cr5, cr4, {1}
 4cc:	776f6e6b 	strbvc	r6, [pc, -fp, ror #28]!
 4d0:	696c2d6e 	stmdbvs	ip!, {r1, r2, r3, r5, r6, r8, sl, fp, sp}^
 4d4:	2d78756e 	cfldr64cs	mvdx7, [r8, #-440]!	; 0xfffffe48
 4d8:	2f756e67 	svccs	0x00756e67
 4dc:	2d6d7261 	sfmcs	f7, 2, [sp, #-388]!	; 0xfffffe7c
 4e0:	756e696c 	strbvc	r6, [lr, #-2412]!	; 0x96c
 4e4:	6e672d78 	mcrvs	13, 3, r2, cr7, cr8, {3}
 4e8:	62616575 	rsbvs	r6, r1, #490733568	; 0x1d400000
 4ec:	2f666869 	svccs	0x00666869
 4f0:	2d636367 	stclcs	3, cr6, [r3, #-412]!	; 0xfffffe64
 4f4:	616e696c 	cmnvs	lr, ip, ror #18
 4f8:	342d6f72 	strtcc	r6, [sp], #-3954	; 0xf72
 4fc:	322d392e 	eorcc	r3, sp, #753664	; 0xb8000
 500:	2e373130 	mrccs	1, 1, r3, cr7, cr0, {1}
 504:	732d3130 	teqvc	sp, #48, 2
 508:	65676174 	strbvs	r6, [r7, #-372]!	; 0x174
 50c:	72612f32 	rsbvc	r2, r1, #50, 30	; 0xc8
 510:	696c2d6d 	stmdbvs	ip!, {r0, r2, r3, r5, r6, r8, sl, fp, sp}^
 514:	2d78756e 	cfldr64cs	mvdx7, [r8, #-440]!	; 0xfffffe48
 518:	65756e67 	ldrbvs	r6, [r5, #-3687]!	; 0xe67
 51c:	68696261 	stmdavs	r9!, {r0, r5, r6, r9, sp, lr}^
 520:	696c2f66 	stmdbvs	ip!, {r1, r2, r5, r6, r8, r9, sl, fp, sp}^
 524:	63636762 	cmnvs	r3, #25690112	; 0x1880000
 528:	554e4700 	strbpl	r4, [lr, #-1792]	; 0x700
 52c:	20534120 	subscs	r4, r3, r0, lsr #2
 530:	34322e32 	ldrtcc	r2, [r2], #-3634	; 0xe32
 534:	0100302e 	tsteq	r0, lr, lsr #32
 538:	0001bb80 	andeq	fp, r1, r0, lsl #23
 53c:	3c000200 	sfmcc	f0, 4, [r0], {-0}
 540:	04000000 	streq	r0, [r0], #-0
 544:	0002fa01 	andeq	pc, r2, r1, lsl #20
 548:	80877800 	addhi	r7, r7, r0, lsl #16
 54c:	80878487 	addhi	r8, r7, r7, lsl #9
 550:	6f682f87 	svcvs	0x00682f87
 554:	742f656d 	strtvc	r6, [pc], #-1389	; 55c <shift+0x55c>
 558:	2d677763 	stclcs	7, cr7, [r7, #-396]!	; 0xfffffe74
 55c:	6c697562 	cfstr64vs	mvdx7, [r9], #-392	; 0xfffffe78
 560:	616c7364 	cmnvs	ip, r4, ror #6
 564:	772f6576 			; <UNDEFINED> instruction: 0x772f6576
 568:	736b726f 	cmnvc	fp, #-268435450	; 0xf0000006
 56c:	65636170 	strbvs	r6, [r3, #-368]!	; 0x170
 570:	7763742f 	strbvc	r7, [r3, -pc, lsr #8]!
 574:	616d2d67 	cmnvs	sp, r7, ror #26
 578:	722d656b 	eorvc	r6, sp, #448790528	; 0x1ac00000
 57c:	61656c65 	cmnvs	r5, r5, ror #24
 580:	6c2f6573 	cfstr32vs	mvfx6, [pc], #-460	; 3bc <shift+0x3bc>
 584:	6c656261 	sfmvs	f6, 2, [r5], #-388	; 0xfffffe7c
 588:	636f642f 	cmnvs	pc, #788529152	; 0x2f000000
 58c:	2d72656b 	cfldr64cs	mvdx6, [r2, #-428]!	; 0xfffffe54
 590:	73757274 	cmnvc	r5, #116, 4	; 0x40000007
 594:	612d7974 	teqvs	sp, r4, ror r9
 598:	3436646d 	ldrtcc	r6, [r6], #-1133	; 0x46d
 59c:	7763742d 	strbvc	r7, [r3, -sp, lsr #8]!
 5a0:	75622d67 	strbvc	r2, [r2, #-3431]!	; 0xd67
 5a4:	2f646c69 	svccs	0x00646c69
 5a8:	67726174 			; <UNDEFINED> instruction: 0x67726174
 5ac:	612f7465 	teqvs	pc, r5, ror #8
 5b0:	6c2d6d72 	stcvs	13, cr6, [sp], #-456	; 0xfffffe38
 5b4:	78756e69 	ldmdavc	r5!, {r0, r3, r5, r6, r9, sl, fp, sp, lr}^
 5b8:	756e672d 	strbvc	r6, [lr, #-1837]!	; 0x72d
 5bc:	69626165 	stmdbvs	r2!, {r0, r2, r5, r6, r8, sp, lr}^
 5c0:	732f6668 	teqvc	pc, #104, 12	; 0x6800000
 5c4:	7370616e 	cmnvc	r0, #-2147483621	; 0x8000001b
 5c8:	73746f68 	cmnvc	r4, #104, 30	; 0x1a0
 5cc:	6363672f 	cmnvs	r3, #12320768	; 0xbc0000
 5d0:	6e696c2d 	cdpvs	12, 6, cr6, cr9, cr13, {1}
 5d4:	2d6f7261 	sfmcs	f7, 2, [pc, #-388]!	; 458 <shift+0x458>
 5d8:	2d392e34 	ldccs	14, cr2, [r9, #-208]!	; 0xffffff30
 5dc:	37313032 			; <UNDEFINED> instruction: 0x37313032
 5e0:	2f31302e 	svccs	0x0031302e
 5e4:	6762696c 	strbvs	r6, [r2, -ip, ror #18]!
 5e8:	632f6363 	teqvs	pc, #-1946157055	; 0x8c000001
 5ec:	69666e6f 	stmdbvs	r6!, {r0, r1, r2, r3, r5, r6, r9, sl, fp, sp, lr}^
 5f0:	72612f67 	rsbvc	r2, r1, #412	; 0x19c
 5f4:	696c2f6d 	stmdbvs	ip!, {r0, r2, r3, r5, r6, r8, r9, sl, fp, sp}^
 5f8:	75663162 	strbvc	r3, [r6, #-354]!	; 0x162
 5fc:	2e73636e 	cdpcs	3, 7, cr6, cr3, cr14, {3}
 600:	682f0053 	stmdavs	pc!, {r0, r1, r4, r6}	; <UNPREDICTABLE>
 604:	2f656d6f 	svccs	0x00656d6f
 608:	67776374 			; <UNDEFINED> instruction: 0x67776374
 60c:	6975622d 	ldmdbvs	r5!, {r0, r2, r3, r5, r9, sp, lr}^
 610:	6c73646c 	cfldrdvs	mvd6, [r3], #-432	; 0xfffffe50
 614:	2f657661 	svccs	0x00657661
 618:	6b726f77 	blvs	1c9c3fc <shift+0x1c9c3fc>
 61c:	63617073 	cmnvs	r1, #115	; 0x73
 620:	63742f65 	cmnvs	r4, #404	; 0x194
 624:	6d2d6777 	stcvs	7, cr6, [sp, #-476]!	; 0xfffffe24
 628:	2d656b61 	fstmdbxcs	r5!, {d22-d69}	;@ Deprecated
 62c:	656c6572 	strbvs	r6, [ip, #-1394]!	; 0x572
 630:	2f657361 	svccs	0x00657361
 634:	6562616c 	strbvs	r6, [r2, #-364]!	; 0x16c
 638:	6f642f6c 	svcvs	0x00642f6c
 63c:	72656b63 	rsbvc	r6, r5, #101376	; 0x18c00
 640:	7572742d 	ldrbvc	r7, [r2, #-1069]!	; 0x42d
 644:	2d797473 	cfldrdcs	mvd7, [r9, #-460]!	; 0xfffffe34
 648:	36646d61 	strbtcc	r6, [r4], -r1, ror #26
 64c:	63742d34 	cmnvs	r4, #52, 26	; 0xd00
 650:	622d6777 	eorvs	r6, sp, #31195136	; 0x1dc0000
 654:	646c6975 	strbtvs	r6, [ip], #-2421	; 0x975
 658:	7261742f 	rsbvc	r7, r1, #788529152	; 0x2f000000
 65c:	2f746567 	svccs	0x00746567
 660:	2d6d7261 	sfmcs	f7, 2, [sp, #-388]!	; 0xfffffe7c
 664:	756e696c 	strbvc	r6, [lr, #-2412]!	; 0x96c
 668:	6e672d78 	mcrvs	13, 3, r2, cr7, cr8, {3}
 66c:	62616575 	rsbvs	r6, r1, #490733568	; 0x1d400000
 670:	2f666869 	svccs	0x00666869
 674:	6975625f 	ldmdbvs	r5!, {r0, r1, r2, r3, r4, r6, r9, sp, lr}^
 678:	622f646c 	eorvs	r6, pc, #108, 8	; 0x6c000000
 67c:	646c6975 	strbtvs	r6, [ip], #-2421	; 0x975
 680:	38782f73 	ldmdacc	r8!, {r0, r1, r4, r5, r6, r8, r9, sl, fp, sp}^
 684:	34365f36 	ldrtcc	r5, [r6], #-3894	; 0xf36
 688:	6b6e752d 	blvs	1b9db44 <shift+0x1b9db44>
 68c:	6e776f6e 	cdpvs	15, 7, cr6, cr7, cr14, {3}
 690:	6e696c2d 	cdpvs	12, 6, cr6, cr9, cr13, {1}
 694:	672d7875 			; <UNDEFINED> instruction: 0x672d7875
 698:	612f756e 	teqvs	pc, lr, ror #10
 69c:	6c2d6d72 	stcvs	13, cr6, [sp], #-456	; 0xfffffe38
 6a0:	78756e69 	ldmdavc	r5!, {r0, r3, r5, r6, r9, sl, fp, sp, lr}^
 6a4:	756e672d 	strbvc	r6, [lr, #-1837]!	; 0x72d
 6a8:	69626165 	stmdbvs	r2!, {r0, r2, r5, r6, r8, sp, lr}^
 6ac:	672f6668 	strvs	r6, [pc, -r8, ror #12]!
 6b0:	6c2d6363 	stcvs	3, cr6, [sp], #-396	; 0xfffffe74
 6b4:	72616e69 	rsbvc	r6, r1, #1680	; 0x690
 6b8:	2e342d6f 	cdpcs	13, 3, cr2, cr4, cr15, {3}
 6bc:	30322d39 	eorscc	r2, r2, r9, lsr sp
 6c0:	302e3731 	eorcc	r3, lr, r1, lsr r7
 6c4:	74732d31 	ldrbtvc	r2, [r3], #-3377	; 0xd31
 6c8:	32656761 	rsbcc	r6, r5, #25427968	; 0x1840000
 6cc:	6d72612f 	ldfvse	f6, [r2, #-188]!	; 0xffffff44
 6d0:	6e696c2d 	cdpvs	12, 6, cr6, cr9, cr13, {1}
 6d4:	672d7875 			; <UNDEFINED> instruction: 0x672d7875
 6d8:	6165756e 	cmnvs	r5, lr, ror #10
 6dc:	66686962 	strbtvs	r6, [r8], -r2, ror #18
 6e0:	62696c2f 	rsbvs	r6, r9, #12032	; 0x2f00
 6e4:	00636367 	rsbeq	r6, r3, r7, ror #6
 6e8:	20554e47 	subscs	r4, r5, r7, asr #28
 6ec:	32205341 	eorcc	r5, r0, #67108865	; 0x4000001
 6f0:	2e34322e 	cdpcs	2, 3, cr3, cr4, cr14, {1}
 6f4:	80010030 	andhi	r0, r1, r0, lsr r0
 6f8:	0000015a 	andeq	r0, r0, sl, asr r1
 6fc:	00500004 	subseq	r0, r0, r4
 700:	01040000 	mrseq	r0, (UNDEF: 4)
 704:	0000012b 	andeq	r0, r0, fp, lsr #2
 708:	00024f01 	andeq	r4, r2, r1, lsl #30
 70c:	00000d00 	andeq	r0, r0, r0, lsl #26
 710:	80878400 	addhi	r8, r7, r0, lsl #8
 714:	00011687 	andeq	r1, r1, r7, lsl #13
 718:	0003e100 	andeq	lr, r3, r0, lsl #2
 71c:	07080200 	streq	r0, [r8, -r0, lsl #4]
 720:	000000f3 	strdeq	r0, [r0], -r3
 724:	69050403 	stmdbvs	r5, {r0, r1, sl}
 728:	0200746e 	andeq	r7, r0, #1845493760	; 0x6e000000
 72c:	00fd0704 	rscseq	r0, sp, r4, lsl #14
 730:	01020000 	mrseq	r0, (UNDEF: 2)
 734:	00010a08 	andeq	r0, r1, r8, lsl #20
 738:	07020200 	streq	r0, [r2, -r0, lsl #4]
 73c:	00000118 	andeq	r0, r0, r8, lsl r1
 740:	f8070402 			; <UNDEFINED> instruction: 0xf8070402
 744:	02000000 	andeq	r0, r0, #0
 748:	010c0601 	tsteq	ip, r1, lsl #12
 74c:	02020000 	andeq	r0, r2, #0
 750:	00023605 	andeq	r3, r2, r5, lsl #12
 754:	05080200 	streq	r0, [r8, #-512]	; 0x200
 758:	00000220 	andeq	r0, r0, r0, lsr #4
 75c:	25050402 	strcs	r0, [r5, #-1026]	; 0x402
 760:	02000002 	andeq	r0, r0, #2
 764:	02170704 	andseq	r0, r7, #4, 14	; 0x100000
 768:	01020000 	mrseq	r0, (UNDEF: 2)
 76c:	00011308 	andeq	r1, r1, r8, lsl #6
 770:	022e0400 	eoreq	r0, lr, #0, 8
 774:	82020000 	andhi	r0, r2, #0
 778:	00000033 	andeq	r0, r0, r3, lsr r0
 77c:	00020104 	andeq	r0, r2, r4, lsl #2
 780:	25860200 	strcs	r0, [r6, #512]	; 0x200
 784:	02000000 	andeq	r0, r0, #0
 788:	02110404 	andseq	r0, r1, #4, 8	; 0x4000000
 78c:	08020000 	stmdaeq	r2, {}	; <UNPREDICTABLE>
 790:	00020903 	andeq	r0, r2, r3, lsl #18
 794:	04080200 	streq	r0, [r8], #-512	; 0x200
 798:	00000248 	andeq	r0, r0, r8, asr #4
 79c:	40031002 	andmi	r1, r3, r2
 7a0:	05000002 	streq	r0, [r0, #-2]
 7a4:	00000000 	andeq	r0, r0, r0
 7a8:	8403b001 	strhi	fp, [r3], #-1
 7ac:	84000000 	strhi	r0, [r0], #-0
 7b0:	16878087 	strne	r8, [r7], r7, lsl #1
 7b4:	01000001 	tsteq	r0, r1
 7b8:	0001579c 	muleq	r1, ip, r7
 7bc:	006e0600 	rsbeq	r0, lr, r0, lsl #12
 7c0:	8403b001 	strhi	fp, [r3], #-1
 7c4:	00000000 	andeq	r0, r0, r0
 7c8:	06000000 	streq	r0, [r0], -r0
 7cc:	b0010064 	andlt	r0, r1, r4, rrx
 7d0:	00008403 	andeq	r8, r0, r3, lsl #8
 7d4:	00002800 	andeq	r2, r0, r0, lsl #16
 7d8:	70720600 	rsbsvc	r0, r2, r0, lsl #12
 7dc:	03b00100 	movseq	r0, #0, 2
 7e0:	00000157 	andeq	r0, r0, r7, asr r1
 7e4:	00000050 	andeq	r0, r0, r0, asr r0
 7e8:	01007107 	tsteq	r0, r7, lsl #2
 7ec:	008403b2 			; <UNDEFINED> instruction: 0x008403b2
 7f0:	00700000 	rsbseq	r0, r0, r0
 7f4:	72070000 	andvc	r0, r7, #0
 7f8:	03b20100 			; <UNDEFINED> instruction: 0x03b20100
 7fc:	00000084 	andeq	r0, r0, r4, lsl #1
 800:	000000d0 	ldrdeq	r0, [r0], -r0	; <UNPREDICTABLE>
 804:	01007907 	tsteq	r0, r7, lsl #18
 808:	008403b2 			; <UNDEFINED> instruction: 0x008403b2
 80c:	01280000 	teqeq	r8, r0
 810:	6c070000 	stcvs	0, cr0, [r7], {-0}
 814:	0100317a 	tsteq	r0, sl, ror r1
 818:	007903b3 	ldrhteq	r0, [r9], #-51	; 0xffffffcd
 81c:	01500000 	cmpeq	r0, r0
 820:	6c070000 	stcvs	0, cr0, [r7], {-0}
 824:	0100327a 	tsteq	r0, sl, ror r2
 828:	007903b3 	ldrhteq	r0, [r9], #-51	; 0xffffffcd
 82c:	01630000 	cmneq	r3, r0
 830:	69070000 	stmdbvs	r7, {}	; <UNPREDICTABLE>
 834:	03b30100 			; <UNDEFINED> instruction: 0x03b30100
 838:	00000079 	andeq	r0, r0, r9, ror r0
 83c:	00000176 	andeq	r0, r0, r6, ror r1
 840:	01006b07 	tsteq	r0, r7, lsl #22
 844:	007903b3 	ldrhteq	r0, [r9], #-51	; 0xffffffcd
 848:	01b90000 			; <UNDEFINED> instruction: 0x01b90000
 84c:	08000000 	stmdaeq	r0, {}	; <UNPREDICTABLE>
 850:	00008404 	andeq	r8, r0, r4, lsl #8
	...

Disassembly of section .debug_abbrev:

00000000 <.debug_abbrev>:
   0:	10001101 	andne	r1, r0, r1, lsl #2
   4:	12011106 	andne	r1, r1, #-2147483647	; 0x80000001
   8:	1b080301 	blne	200c14 <shift+0x200c14>
   c:	13082508 	movwne	r2, #34056	; 0x8508
  10:	00000005 	andeq	r0, r0, r5
  14:	10001101 	andne	r1, r0, r1, lsl #2
  18:	12011106 	andne	r1, r1, #-2147483647	; 0x80000001
  1c:	1b080301 	blne	200c28 <shift+0x200c28>
  20:	13082508 	movwne	r2, #34056	; 0x8508
  24:	00000005 	andeq	r0, r0, r5
  28:	10001101 	andne	r1, r0, r1, lsl #2
  2c:	12011106 	andne	r1, r1, #-2147483647	; 0x80000001
  30:	1b080301 	blne	200c3c <shift+0x200c3c>
  34:	13082508 	movwne	r2, #34056	; 0x8508
  38:	00000005 	andeq	r0, r0, r5
  3c:	10001101 	andne	r1, r0, r1, lsl #2
  40:	12011106 	andne	r1, r1, #-2147483647	; 0x80000001
  44:	1b080301 	blne	200c50 <shift+0x200c50>
  48:	13082508 	movwne	r2, #34056	; 0x8508
  4c:	00000005 	andeq	r0, r0, r5
  50:	25011101 	strcs	r1, [r1, #-257]	; 0x101
  54:	030b130e 	movweq	r1, #45838	; 0xb30e
  58:	110e1b0e 	tstne	lr, lr, lsl #22
  5c:	10061201 	andne	r1, r6, r1, lsl #4
  60:	02000017 	andeq	r0, r0, #23
  64:	0b0b0024 	bleq	2c00fc <shift+0x2c00fc>
  68:	0e030b3e 	vmoveq.16	d3[0], r0
  6c:	24030000 	strcs	r0, [r3], #-0
  70:	3e0b0b00 	vmlacc.f64	d0, d11, d0
  74:	0008030b 	andeq	r0, r8, fp, lsl #6
  78:	00160400 	andseq	r0, r6, r0, lsl #8
  7c:	0b3a0e03 	bleq	e83890 <shift+0xe83890>
  80:	13490b3b 	movtne	r0, #39739	; 0x9b3b
  84:	2e050000 	cdpcs	0, 0, cr0, cr5, cr0, {0}
  88:	03193f01 	tsteq	r9, #1, 30
  8c:	3b0b3a0e 	blcc	2ce8cc <shift+0x2ce8cc>
  90:	49192705 	ldmdbmi	r9, {r0, r2, r8, r9, sl, sp}
  94:	12011113 	andne	r1, r1, #-1073741820	; 0xc0000004
  98:	97184006 	ldrls	r4, [r8, -r6]
  9c:	13011942 	movwne	r1, #6466	; 0x1942
  a0:	05060000 	streq	r0, [r6, #-0]
  a4:	3a080300 	bcc	200cac <shift+0x200cac>
  a8:	49053b0b 	stmdbmi	r5, {r0, r1, r3, r8, r9, fp, ip, sp}
  ac:	00170213 	andseq	r0, r7, r3, lsl r2
  b0:	00340700 	eorseq	r0, r4, r0, lsl #14
  b4:	0b3a0803 	bleq	e820c8 <shift+0xe820c8>
  b8:	1349053b 	movtne	r0, #38203	; 0x953b
  bc:	00001702 	andeq	r1, r0, r2, lsl #14
  c0:	0b000f08 	bleq	3ce8 <shift+0x3ce8>
  c4:	0013490b 	andseq	r4, r3, fp, lsl #18
	...

Disassembly of section .debug_aranges:

00000000 <.debug_aranges>:
   0:	0000001c 	andeq	r0, r0, ip, lsl r0
   4:	00000002 	andeq	r0, r0, r2
   8:	00040000 	andeq	r0, r4, r0
   c:	00000000 	andeq	r0, r0, r0
  10:	87808220 	strhi	r8, [r0, r0, lsr #4]
  14:	00000276 	andeq	r0, r0, r6, ror r2
	...
  20:	0000001c 	andeq	r0, r0, ip, lsl r0
  24:	01bf0002 			; <UNDEFINED> instruction: 0x01bf0002
  28:	00040000 	andeq	r0, r4, r0
  2c:	00000000 	andeq	r0, r0, r0
  30:	87808498 			; <UNDEFINED> instruction: 0x87808498
  34:	000002ae 	andeq	r0, r0, lr, lsr #5
	...
  40:	0000001c 	andeq	r0, r0, ip, lsl r0
  44:	037e0002 	cmneq	lr, #2
  48:	00040000 	andeq	r0, r4, r0
  4c:	00000000 	andeq	r0, r0, r0
  50:	87808748 	strhi	r8, [r0, r8, asr #14]
  54:	00000030 	andeq	r0, r0, r0, lsr r0
	...
  60:	0000001c 	andeq	r0, r0, ip, lsl r0
  64:	05390002 	ldreq	r0, [r9, #-2]!
  68:	00040000 	andeq	r0, r4, r0
  6c:	00000000 	andeq	r0, r0, r0
  70:	87808778 			; <UNDEFINED> instruction: 0x87808778
  74:	0000000c 	andeq	r0, r0, ip
	...
  80:	0000001c 	andeq	r0, r0, ip, lsl r0
  84:	06f80002 	ldrbteq	r0, [r8], r2
  88:	00040000 	andeq	r0, r4, r0
  8c:	00000000 	andeq	r0, r0, r0
  90:	87808784 	strhi	r8, [r0, r4, lsl #15]
  94:	00000116 	andeq	r0, r0, r6, lsl r1
	...

Disassembly of section .debug_loc:

00000000 <.debug_loc>:
   0:	00000000 	andeq	r0, r0, r0
   4:	0000000c 	andeq	r0, r0, ip
   8:	93500006 	cmpls	r0, #6
   c:	04935104 	ldreq	r5, [r3], #260	; 0x104
  10:	0000000c 	andeq	r0, r0, ip
  14:	00000116 	andeq	r0, r0, r6, lsl r1
  18:	03f30006 	mvnseq	r0, #6
  1c:	9f2500f5 	svcls	0x002500f5
	...
  2c:	00000014 	andeq	r0, r0, r4, lsl r0
  30:	93520006 	cmpls	r2, #6
  34:	04935304 	ldreq	r5, [r3], #772	; 0x304
  38:	00000014 	andeq	r0, r0, r4, lsl r0
  3c:	00000116 	andeq	r0, r0, r6, lsl r1
  40:	03f30006 	mvnseq	r0, #6
  44:	9f2502f5 	svcls	0x002502f5
	...
  54:	000000fc 	strdeq	r0, [r0], -ip
  58:	00910002 	addseq	r0, r1, r2
  5c:	000000fc 	strdeq	r0, [r0], -ip
  60:	00000116 	andeq	r0, r0, r6, lsl r1
  64:	00910002 	addseq	r0, r1, r2
	...
  74:	00000076 	andeq	r0, r0, r6, ror r0
  78:	089e000a 	ldmeq	lr, {r1, r3}
	...
  84:	00000076 	andeq	r0, r0, r6, ror r0
  88:	000000c0 	andeq	r0, r0, r0, asr #1
  8c:	93500006 	cmpls	r0, #6
  90:	04935104 	ldreq	r5, [r3], #260	; 0x104
  94:	000000ca 	andeq	r0, r0, sl, asr #1
  98:	000000ea 	andeq	r0, r0, sl, ror #1
  9c:	93500006 	cmpls	r0, #6
  a0:	04935104 	ldreq	r5, [r3], #260	; 0x104
  a4:	000000f2 	strdeq	r0, [r0], -r2
  a8:	000000fc 	strdeq	r0, [r0], -ip
  ac:	93500006 	cmpls	r0, #6
  b0:	04935104 	ldreq	r5, [r3], #260	; 0x104
  b4:	000000fc 	strdeq	r0, [r0], -ip
  b8:	00000116 	andeq	r0, r0, r6, lsl r1
  bc:	089e000a 	ldmeq	lr, {r1, r3}
	...
  d0:	0000000a 	andeq	r0, r0, sl
  d4:	00000062 	andeq	r0, r0, r2, rrx
  d8:	93540006 	cmpls	r4, #6
  dc:	04935504 	ldreq	r5, [r3], #1284	; 0x504
  e0:	00000076 	andeq	r0, r0, r6, ror r0
  e4:	00000084 	andeq	r0, r0, r4, lsl #1
  e8:	93540006 	cmpls	r4, #6
  ec:	04935504 	ldreq	r5, [r3], #1284	; 0x504
  f0:	00000092 	muleq	r0, r2, r0
  f4:	000000a0 	andeq	r0, r0, r0, lsr #1
  f8:	93540006 	cmpls	r4, #6
  fc:	04935504 	ldreq	r5, [r3], #1284	; 0x504
 100:	000000a2 	andeq	r0, r0, r2, lsr #1
 104:	000000c8 	andeq	r0, r0, r8, asr #1
 108:	93540006 	cmpls	r4, #6
 10c:	04935504 	ldreq	r5, [r3], #1284	; 0x504
 110:	000000cc 	andeq	r0, r0, ip, asr #1
 114:	00000116 	andeq	r0, r0, r6, lsl r1
 118:	93540006 	cmpls	r4, #6
 11c:	04935504 	ldreq	r5, [r3], #1284	; 0x504
	...
 128:	0000000e 	andeq	r0, r0, lr
 12c:	00000018 	andeq	r0, r0, r8, lsl r0
 130:	93500006 	cmpls	r0, #6
 134:	04935104 	ldreq	r5, [r3], #260	; 0x104
 138:	0000004e 	andeq	r0, r0, lr, asr #32
 13c:	000000ae 	andeq	r0, r0, lr, lsr #1
 140:	93560006 	cmpls	r6, #6
 144:	04935704 	ldreq	r5, [r3], #1796	; 0x704
	...
 150:	0000010c 	andeq	r0, r0, ip, lsl #2
 154:	00000116 	andeq	r0, r0, r6, lsl r1
 158:	00560001 	subseq	r0, r6, r1
 15c:	00000000 	andeq	r0, r0, r0
 160:	2c000000 	stccs	0, cr0, [r0], {-0}
 164:	2e000000 	cdpcs	0, 0, cr0, cr0, cr0, {0}
 168:	01000000 	mrseq	r0, (UNDEF: 0)
 16c:	00005300 	andeq	r5, r0, r0, lsl #6
 170:	00000000 	andeq	r0, r0, r0
 174:	00800000 	addeq	r0, r0, r0
 178:	00920000 	addseq	r0, r2, r0
 17c:	00010000 	andeq	r0, r1, r0
 180:	00009253 	andeq	r9, r0, r3, asr r2
 184:	00009400 	andeq	r9, r0, r0, lsl #8
 188:	73000300 	movwvc	r0, #768	; 0x300
 18c:	00949f7f 	addseq	r9, r4, pc, ror pc
 190:	00a20000 	adceq	r0, r2, r0
 194:	00010000 	andeq	r0, r1, r0
 198:	0000a253 	andeq	sl, r0, r3, asr r2
 19c:	0000a400 	andeq	sl, r0, r0, lsl #8
 1a0:	73000300 	movwvc	r0, #768	; 0x300
 1a4:	00a49f7f 	adceq	r9, r4, pc, ror pc
 1a8:	00b60000 	adcseq	r0, r6, r0
 1ac:	00010000 	andeq	r0, r1, r0
 1b0:	00000053 	andeq	r0, r0, r3, asr r0
 1b4:	00000000 	andeq	r0, r0, r0
 1b8:	00002e00 	andeq	r2, r0, r0, lsl #28
 1bc:	00008200 	andeq	r8, r0, r0, lsl #4
 1c0:	53000100 	movwpl	r0, #256	; 0x100
 1c4:	00000082 	andeq	r0, r0, r2, lsl #1
 1c8:	000000f2 	strdeq	r0, [r0], -r2
 1cc:	005e0001 	subseq	r0, lr, r1
 1d0:	00000000 	andeq	r0, r0, r0
 1d4:	地址 0x00000000000001d4 越界。


Disassembly of section .debug_str:

00000000 <.debug_str>:
   0:	64755f5f 	ldrbtvs	r5, [r5], #-3935	; 0xf5f
   4:	6f6d7669 	svcvs	0x006d7669
   8:	34696464 	strbtcc	r6, [r9], #-1124	; 0x464
   c:	6f682f00 	svcvs	0x00682f00
  10:	742f656d 	strtvc	r6, [pc], #-1389	; 18 <shift+0x18>
  14:	2d677763 	stclcs	7, cr7, [r7, #-396]!	; 0xfffffe74
  18:	6c697562 	cfstr64vs	mvdx7, [r9], #-392	; 0xfffffe78
  1c:	616c7364 	cmnvs	ip, r4, ror #6
  20:	772f6576 			; <UNDEFINED> instruction: 0x772f6576
  24:	736b726f 	cmnvc	fp, #-268435450	; 0xf0000006
  28:	65636170 	strbvs	r6, [r3, #-368]!	; 0x170
  2c:	7763742f 	strbvc	r7, [r3, -pc, lsr #8]!
  30:	616d2d67 	cmnvs	sp, r7, ror #26
  34:	722d656b 	eorvc	r6, sp, #448790528	; 0x1ac00000
  38:	61656c65 	cmnvs	r5, r5, ror #24
  3c:	6c2f6573 	cfstr32vs	mvfx6, [pc], #-460	; fffffe78 <__bss_end+0x787f0b30>
  40:	6c656261 	sfmvs	f6, 2, [r5], #-388	; 0xfffffe7c
  44:	636f642f 	cmnvs	pc, #788529152	; 0x2f000000
  48:	2d72656b 	cfldr64cs	mvdx6, [r2, #-428]!	; 0xfffffe54
  4c:	73757274 	cmnvc	r5, #116, 4	; 0x40000007
  50:	612d7974 	teqvs	sp, r4, ror r9
  54:	3436646d 	ldrtcc	r6, [r6], #-1133	; 0x46d
  58:	7763742d 	strbvc	r7, [r3, -sp, lsr #8]!
  5c:	75622d67 	strbvc	r2, [r2, #-3431]!	; 0xd67
  60:	2f646c69 	svccs	0x00646c69
  64:	67726174 			; <UNDEFINED> instruction: 0x67726174
  68:	612f7465 	teqvs	pc, r5, ror #8
  6c:	6c2d6d72 	stcvs	13, cr6, [sp], #-456	; 0xfffffe38
  70:	78756e69 	ldmdavc	r5!, {r0, r3, r5, r6, r9, sl, fp, sp, lr}^
  74:	756e672d 	strbvc	r6, [lr, #-1837]!	; 0x72d
  78:	69626165 	stmdbvs	r2!, {r0, r2, r5, r6, r8, sp, lr}^
  7c:	5f2f6668 	svcpl	0x002f6668
  80:	6c697562 	cfstr64vs	mvdx7, [r9], #-392	; 0xfffffe78
  84:	75622f64 	strbvc	r2, [r2, #-3940]!	; 0xf64
  88:	73646c69 	cmnvc	r4, #26880	; 0x6900
  8c:	3638782f 	ldrtcc	r7, [r8], -pc, lsr #16
  90:	2d34365f 	ldccs	6, cr3, [r4, #-380]!	; 0xfffffe84
  94:	6e6b6e75 	mcrvs	14, 3, r6, cr11, cr5, {3}
  98:	2d6e776f 	stclcs	7, cr7, [lr, #-444]!	; 0xfffffe44
  9c:	756e696c 	strbvc	r6, [lr, #-2412]!	; 0x96c
  a0:	6e672d78 	mcrvs	13, 3, r2, cr7, cr8, {3}
  a4:	72612f75 	rsbvc	r2, r1, #468	; 0x1d4
  a8:	696c2d6d 	stmdbvs	ip!, {r0, r2, r3, r5, r6, r8, sl, fp, sp}^
  ac:	2d78756e 	cfldr64cs	mvdx7, [r8, #-440]!	; 0xfffffe48
  b0:	65756e67 	ldrbvs	r6, [r5, #-3687]!	; 0xe67
  b4:	68696261 	stmdavs	r9!, {r0, r5, r6, r9, sp, lr}^
  b8:	63672f66 	cmnvs	r7, #408	; 0x198
  bc:	696c2d63 	stmdbvs	ip!, {r0, r1, r5, r6, r8, sl, fp, sp}^
  c0:	6f72616e 	svcvs	0x0072616e
  c4:	392e342d 	stmdbcc	lr!, {r0, r2, r3, r5, sl, ip, sp}
  c8:	3130322d 	teqcc	r0, sp, lsr #4
  cc:	31302e37 	teqcc	r0, r7, lsr lr
  d0:	6174732d 	cmnvs	r4, sp, lsr #6
  d4:	2f326567 	svccs	0x00326567
  d8:	2d6d7261 	sfmcs	f7, 2, [sp, #-388]!	; 0xfffffe7c
  dc:	756e696c 	strbvc	r6, [lr, #-2412]!	; 0x96c
  e0:	6e672d78 	mcrvs	13, 3, r2, cr7, cr8, {3}
  e4:	62616575 	rsbvs	r6, r1, #490733568	; 0x1d400000
  e8:	2f666869 	svccs	0x00666869
  ec:	6762696c 	strbvs	r6, [r2, -ip, ror #18]!
  f0:	6c006363 	stcvs	3, cr6, [r0], {99}	; 0x63
  f4:	20676e6f 	rsbcs	r6, r7, pc, ror #28
  f8:	676e6f6c 	strbvs	r6, [lr, -ip, ror #30]!
  fc:	736e7520 	cmnvc	lr, #32, 10	; 0x8000000
 100:	656e6769 	strbvs	r6, [lr, #-1897]!	; 0x769
 104:	6e692064 	cdpvs	0, 6, cr2, cr9, cr4, {3}
 108:	6e750074 	mrcvs	0, 3, r0, cr5, cr4, {3}
 10c:	6e676973 	mcrvs	9, 3, r6, cr7, cr3, {3}
 110:	63206465 	teqvs	r0, #1694498816	; 0x65000000
 114:	00726168 	rsbseq	r6, r2, r8, ror #2
 118:	726f6873 	rsbvc	r6, pc, #7536640	; 0x730000
 11c:	6e752074 	mrcvs	0, 3, r2, cr5, cr4, {3}
 120:	6e676973 	mcrvs	9, 3, r6, cr7, cr3, {3}
 124:	69206465 	stmdbvs	r0!, {r0, r2, r5, r6, sl, sp, lr}
 128:	4700746e 	strmi	r7, [r0, -lr, ror #8]
 12c:	4320554e 	teqmi	r0, #327155712	; 0x13800000
 130:	392e3420 	stmdbcc	lr!, {r5, sl, ip, sp}
 134:	2d20342e 	cfstrscs	mvf3, [r0, #-184]!	; 0xffffff48
 138:	6372616d 	cmnvs	r2, #1073741851	; 0x4000001b
 13c:	72613d68 	rsbvc	r3, r1, #104, 26	; 0x1a00
 140:	2d37766d 	ldccs	6, cr7, [r7, #-436]!	; 0xfffffe4c
 144:	6d2d2061 	stcvs	0, cr2, [sp, #-388]!	; 0xfffffe7c
 148:	656e7574 	strbvs	r7, [lr, #-1396]!	; 0x574
 14c:	726f633d 	rsbvc	r6, pc, #-201326592	; 0xf4000000
 150:	2d786574 	cfldr64cs	mvdx6, [r8, #-464]!	; 0xfffffe30
 154:	2d203961 	stccs	9, cr3, [r0, #-388]!	; 0xfffffe7c
 158:	6f6c666d 	svcvs	0x006c666d
 15c:	612d7461 	teqvs	sp, r1, ror #8
 160:	683d6962 	ldmdavs	sp!, {r1, r5, r6, r8, fp, sp, lr}
 164:	20647261 	rsbcs	r7, r4, r1, ror #4
 168:	70666d2d 	rsbvc	r6, r6, sp, lsr #26
 16c:	66763d75 			; <UNDEFINED> instruction: 0x66763d75
 170:	2d337670 	ldccs	6, cr7, [r3, #-448]!	; 0xfffffe40
 174:	20363164 	eorscs	r3, r6, r4, ror #2
 178:	68746d2d 	ldmdavs	r4!, {r0, r2, r3, r5, r8, sl, fp, sp, lr}^
 17c:	20626d75 	rsbcs	r6, r2, r5, ror sp
 180:	6c746d2d 	ldclvs	13, cr6, [r4], #-180	; 0xffffff4c
 184:	69642d73 	stmdbvs	r4!, {r0, r1, r4, r5, r6, r8, sl, fp, sp}^
 188:	63656c61 	cmnvs	r5, #24832	; 0x6100
 18c:	6e673d74 	mcrvs	13, 3, r3, cr7, cr4, {3}
 190:	672d2075 			; <UNDEFINED> instruction: 0x672d2075
 194:	20672d20 	rsbcs	r2, r7, r0, lsr #26
 198:	2d20672d 	stccs	7, cr6, [r0, #-180]!	; 0xffffff4c
 19c:	2d20324f 	sfmcs	f3, 4, [r0, #-316]!	; 0xfffffec4
 1a0:	2d20324f 	sfmcs	f3, 4, [r0, #-316]!	; 0xfffffec4
 1a4:	2d20324f 	sfmcs	f3, 4, [r0, #-316]!	; 0xfffffec4
 1a8:	69756266 	ldmdbvs	r5!, {r1, r2, r5, r6, r9, sp, lr}^
 1ac:	6e69646c 	cdpvs	4, 6, cr6, cr9, cr12, {3}
 1b0:	696c2d67 	stmdbvs	ip!, {r0, r1, r2, r5, r6, r8, sl, fp, sp}^
 1b4:	63636762 	cmnvs	r3, #25690112	; 0x1880000
 1b8:	6e662d20 	cdpvs	13, 6, cr2, cr6, cr0, {1}
 1bc:	74732d6f 	ldrbtvc	r2, [r3], #-3439	; 0xd6f
 1c0:	2d6b6361 	stclcs	3, cr6, [fp, #-388]!	; 0xfffffe7c
 1c4:	746f7270 	strbtvc	r7, [pc], #-624	; 1cc <shift+0x1cc>
 1c8:	6f746365 	svcvs	0x00746365
 1cc:	662d2072 			; <UNDEFINED> instruction: 0x662d2072
 1d0:	20434950 	subcs	r4, r3, r0, asr r9
 1d4:	6f6e662d 	svcvs	0x006e662d
 1d8:	6c6e692d 	stclvs	9, cr6, [lr], #-180	; 0xffffff4c
 1dc:	20656e69 	rsbcs	r6, r5, r9, ror #28
 1e0:	7865662d 	stmdavc	r5!, {r0, r2, r3, r5, r9, sl, sp, lr}^
 1e4:	74706563 	ldrbtvc	r6, [r0], #-1379	; 0x563
 1e8:	736e6f69 	cmnvc	lr, #420	; 0x1a4
 1ec:	76662d20 	strbtvc	r2, [r6], -r0, lsr #26
 1f0:	62697369 	rsbvs	r7, r9, #-1543503871	; 0xa4000001
 1f4:	74696c69 	strbtvc	r6, [r9], #-3177	; 0xc69
 1f8:	69683d79 	stmdbvs	r8!, {r0, r3, r4, r5, r6, r8, sl, fp, ip, sp}^
 1fc:	6e656464 	cdpvs	4, 6, cr6, cr5, cr4, {3}
 200:	49445500 	stmdbmi	r4, {r8, sl, ip, lr}^
 204:	65707974 	ldrbvs	r7, [r0, #-2420]!	; 0x974
 208:	6d6f6300 	stclvs	3, cr6, [pc, #-0]	; 210 <shift+0x210>
 20c:	78656c70 	stmdavc	r5!, {r4, r5, r6, sl, fp, sp, lr}^
 210:	6f6c6620 	svcvs	0x006c6620
 214:	73007461 	movwvc	r7, #1121	; 0x461
 218:	74657a69 	strbtvc	r7, [r5], #-2665	; 0xa69
 21c:	00657079 	rsbeq	r7, r5, r9, ror r0
 220:	676e6f6c 	strbvs	r6, [lr, -ip, ror #30]!
 224:	6e6f6c20 	cdpvs	12, 6, cr6, cr15, cr0, {1}
 228:	6e692067 	cdpvs	0, 6, cr2, cr9, cr7, {3}
 22c:	53550074 	cmppl	r5, #116	; 0x74
 230:	70797449 	rsbsvc	r7, r9, r9, asr #8
 234:	68730065 	ldmdavs	r3!, {r0, r2, r5, r6}^
 238:	2074726f 	rsbscs	r7, r4, pc, ror #4
 23c:	00746e69 	rsbseq	r6, r4, r9, ror #28
 240:	706d6f63 	rsbvc	r6, sp, r3, ror #30
 244:	2078656c 	rsbscs	r6, r8, ip, ror #10
 248:	62756f64 	rsbsvs	r6, r5, #100, 30	; 0x190
 24c:	2f00656c 	svccs	0x0000656c
 250:	656d6f68 	strbvs	r6, [sp, #-3944]!	; 0xf68
 254:	7763742f 	strbvc	r7, [r3, -pc, lsr #8]!
 258:	75622d67 	strbvc	r2, [r2, #-3431]!	; 0xd67
 25c:	73646c69 	cmnvc	r4, #26880	; 0x6900
 260:	6576616c 	ldrbvs	r6, [r6, #-364]!	; 0x16c
 264:	726f772f 	rsbvc	r7, pc, #12320768	; 0xbc0000
 268:	6170736b 	cmnvs	r0, fp, ror #6
 26c:	742f6563 	strtvc	r6, [pc], #-1379	; 274 <shift+0x274>
 270:	2d677763 	stclcs	7, cr7, [r7, #-396]!	; 0xfffffe74
 274:	656b616d 	strbvs	r6, [fp, #-365]!	; 0x16d
 278:	6c65722d 	sfmvs	f7, 2, [r5], #-180	; 0xffffff4c
 27c:	65736165 	ldrbvs	r6, [r3, #-357]!	; 0x165
 280:	62616c2f 	rsbvs	r6, r1, #12032	; 0x2f00
 284:	642f6c65 	strtvs	r6, [pc], #-3173	; 28c <shift+0x28c>
 288:	656b636f 	strbvs	r6, [fp, #-879]!	; 0x36f
 28c:	72742d72 	rsbsvc	r2, r4, #7296	; 0x1c80
 290:	79747375 	ldmdbvc	r4!, {r0, r2, r4, r5, r6, r8, r9, ip, sp, lr}^
 294:	646d612d 	strbtvs	r6, [sp], #-301	; 0x12d
 298:	742d3436 	strtvc	r3, [sp], #-1078	; 0x436
 29c:	2d677763 	stclcs	7, cr7, [r7, #-396]!	; 0xfffffe74
 2a0:	6c697562 	cfstr64vs	mvdx7, [r9], #-392	; 0xfffffe78
 2a4:	61742f64 	cmnvs	r4, r4, ror #30
 2a8:	74656772 	strbtvc	r6, [r5], #-1906	; 0x772
 2ac:	6d72612f 	ldfvse	f6, [r2, #-188]!	; 0xffffff44
 2b0:	6e696c2d 	cdpvs	12, 6, cr6, cr9, cr13, {1}
 2b4:	672d7875 			; <UNDEFINED> instruction: 0x672d7875
 2b8:	6165756e 	cmnvs	r5, lr, ror #10
 2bc:	66686962 	strbtvs	r6, [r8], -r2, ror #18
 2c0:	616e732f 	cmnvs	lr, pc, lsr #6
 2c4:	6f687370 	svcvs	0x00687370
 2c8:	672f7374 			; <UNDEFINED> instruction: 0x672f7374
 2cc:	6c2d6363 	stcvs	3, cr6, [sp], #-396	; 0xfffffe74
 2d0:	72616e69 	rsbvc	r6, r1, #1680	; 0x690
 2d4:	2e342d6f 	cdpcs	13, 3, cr2, cr4, cr15, {3}
 2d8:	30322d39 	eorscc	r2, r2, r9, lsr sp
 2dc:	302e3731 	eorcc	r3, lr, r1, lsr r7
 2e0:	696c2f31 	stmdbvs	ip!, {r0, r4, r5, r8, r9, sl, fp, sp}^
 2e4:	63636762 	cmnvs	r3, #25690112	; 0x1880000
 2e8:	62696c2f 	rsbvs	r6, r9, #12032	; 0x2f00
 2ec:	32636367 	rsbcc	r6, r3, #-1677721599	; 0x9c000001
 2f0:	地址 0x00000000000002f0 越界。

